Archive member included to satisfy reference by file (symbol)

.build/obj_crkbd_rev1_tensotha_helios/serial_protocol.a(serial_protocol.o)
                              .build/obj_crkbd_rev1_tensotha_helios/quantum/split_common/transport.o (symbol from plugin) (soft_serial_target_init)
.build/obj_crkbd_rev1_tensotha_helios/serial_vendor.a(serial_vendor.o)
                              .build/obj_crkbd_rev1_tensotha_helios/serial_protocol.a(serial_protocol.o) (serial_transport_driver_clear)
.build/obj_crkbd_rev1_tensotha_helios/i2c_master.a(i2c_master.o)
                              .build/obj_crkbd_rev1_tensotha_helios/oled_driver.o (symbol from plugin) (i2c_init)
/opt/homebrew/Cellar/arm-none-eabi-gcc@8/8.5.0_2/lib/arm-none-eabi-gcc/8/gcc/arm-none-eabi/8.5.0/thumb/v6-m/nofp/libgcc.a(_dvmd_tls.o)
                              .build/obj_crkbd_rev1_tensotha_helios/./lib/pico-sdk/src/rp2_common/pico_divider/divider.o (__aeabi_idiv0)
/opt/homebrew/Cellar/arm-none-eabi-gcc@8/8.5.0_2/lib/arm-none-eabi-gcc/8/gcc/arm-none-eabi/8.5.0/thumb/v6-m/nofp/libgcc.a(_fixunssfsi.o)
                              .build/obj_crkbd_rev1_tensotha_helios/serial_vendor.a(serial_vendor.o) (__aeabi_f2uiz)
/opt/homebrew/Cellar/arm-none-eabi-gcc@8/8.5.0_2/lib/arm-none-eabi-gcc/8/gcc/arm-none-eabi/8.5.0/thumb/v6-m/nofp/libgcc.a(divsf3.o)
                              .build/obj_crkbd_rev1_tensotha_helios/serial_vendor.a(serial_vendor.o) (__aeabi_fdiv)
/opt/homebrew/Cellar/arm-none-eabi-gcc@8/8.5.0_2/lib/arm-none-eabi-gcc/8/gcc/arm-none-eabi/8.5.0/thumb/v6-m/nofp/libgcc.a(mulsf3.o)
                              .build/obj_crkbd_rev1_tensotha_helios/serial_vendor.a(serial_vendor.o) (__aeabi_fmul)
/opt/homebrew/Cellar/arm-none-eabi-gcc@8/8.5.0_2/lib/arm-none-eabi-gcc/8/gcc/arm-none-eabi/8.5.0/thumb/v6-m/nofp/libgcc.a(subsf3.o)
                              .build/obj_crkbd_rev1_tensotha_helios/serial_vendor.a(serial_vendor.o) (__aeabi_fsub)
/opt/homebrew/Cellar/arm-none-eabi-gcc@8/8.5.0_2/lib/arm-none-eabi-gcc/8/gcc/arm-none-eabi/8.5.0/thumb/v6-m/nofp/libgcc.a(fixsfsi.o)
                              /opt/homebrew/Cellar/arm-none-eabi-gcc@8/8.5.0_2/lib/arm-none-eabi-gcc/8/gcc/arm-none-eabi/8.5.0/thumb/v6-m/nofp/libgcc.a(_fixunssfsi.o) (__aeabi_f2iz)
/opt/homebrew/Cellar/arm-none-eabi-gcc@8/8.5.0_2/lib/arm-none-eabi-gcc/8/gcc/arm-none-eabi/8.5.0/thumb/v6-m/nofp/libgcc.a(floatunsisf.o)
                              .build/obj_crkbd_rev1_tensotha_helios/serial_vendor.a(serial_vendor.o) (__aeabi_ui2f)
/opt/homebrew/Cellar/arm-none-eabi-gcc@8/8.5.0_2/lib/arm-none-eabi-gcc/8/gcc/arm-none-eabi/8.5.0/thumb/v6-m/nofp/libgcc.a(_arm_cmpsf2.o)
                              /opt/homebrew/Cellar/arm-none-eabi-gcc@8/8.5.0_2/lib/arm-none-eabi-gcc/8/gcc/arm-none-eabi/8.5.0/thumb/v6-m/nofp/libgcc.a(_fixunssfsi.o) (__aeabi_fcmpge)
/opt/homebrew/Cellar/arm-none-eabi-gcc@8/8.5.0_2/lib/arm-none-eabi-gcc/8/gcc/arm-none-eabi/8.5.0/thumb/v6-m/nofp/libgcc.a(_clzsi2.o)
                              /opt/homebrew/Cellar/arm-none-eabi-gcc@8/8.5.0_2/lib/arm-none-eabi-gcc/8/gcc/arm-none-eabi/8.5.0/thumb/v6-m/nofp/libgcc.a(divsf3.o) (__clzsi2)
/opt/homebrew/Cellar/arm-none-eabi-gcc@8/8.5.0_2/lib/arm-none-eabi-gcc/8/gcc/arm-none-eabi/8.5.0/thumb/v6-m/nofp/libgcc.a(eqsf2.o)
                              /opt/homebrew/Cellar/arm-none-eabi-gcc@8/8.5.0_2/lib/arm-none-eabi-gcc/8/gcc/arm-none-eabi/8.5.0/thumb/v6-m/nofp/libgcc.a(_arm_cmpsf2.o) (__eqsf2)
/opt/homebrew/Cellar/arm-none-eabi-gcc@8/8.5.0_2/lib/arm-none-eabi-gcc/8/gcc/arm-none-eabi/8.5.0/thumb/v6-m/nofp/libgcc.a(gesf2.o)
                              /opt/homebrew/Cellar/arm-none-eabi-gcc@8/8.5.0_2/lib/arm-none-eabi-gcc/8/gcc/arm-none-eabi/8.5.0/thumb/v6-m/nofp/libgcc.a(_arm_cmpsf2.o) (__gesf2)
/opt/homebrew/Cellar/arm-none-eabi-gcc@8/8.5.0_2/lib/arm-none-eabi-gcc/8/gcc/arm-none-eabi/8.5.0/thumb/v6-m/nofp/libgcc.a(lesf2.o)
                              /opt/homebrew/Cellar/arm-none-eabi-gcc@8/8.5.0_2/lib/arm-none-eabi-gcc/8/gcc/arm-none-eabi/8.5.0/thumb/v6-m/nofp/libgcc.a(_arm_cmpsf2.o) (__lesf2)
/opt/homebrew/Cellar/arm-none-eabi-gcc@8/8.5.0_2/lib/arm-none-eabi-gcc/8/gcc/arm-none-eabi/8.5.0/../../../../../../arm-none-eabi/lib/thumb/v6-m/nofp/libg_nano.a(lib_a-ctype_.o)
                              .build/obj_crkbd_rev1_tensotha_helios/quantum/send_string/send_string.o (symbol from plugin) (_ctype_)
/opt/homebrew/Cellar/arm-none-eabi-gcc@8/8.5.0_2/lib/arm-none-eabi-gcc/8/gcc/arm-none-eabi/8.5.0/../../../../../../arm-none-eabi/lib/thumb/v6-m/nofp/libg_nano.a(lib_a-errno.o)
                              .build/obj_crkbd_rev1_tensotha_helios/platforms/chibios/syscall-fallbacks.o (symbol from plugin) (__errno)
/opt/homebrew/Cellar/arm-none-eabi-gcc@8/8.5.0_2/lib/arm-none-eabi-gcc/8/gcc/arm-none-eabi/8.5.0/../../../../../../arm-none-eabi/lib/thumb/v6-m/nofp/libg_nano.a(lib_a-impure.o)
                              /opt/homebrew/Cellar/arm-none-eabi-gcc@8/8.5.0_2/lib/arm-none-eabi-gcc/8/gcc/arm-none-eabi/8.5.0/../../../../../../arm-none-eabi/lib/thumb/v6-m/nofp/libg_nano.a(lib_a-errno.o) (_impure_ptr)
/opt/homebrew/Cellar/arm-none-eabi-gcc@8/8.5.0_2/lib/arm-none-eabi-gcc/8/gcc/arm-none-eabi/8.5.0/../../../../../../arm-none-eabi/lib/thumb/v6-m/nofp/libg_nano.a(lib_a-memcpy-stub.o)
                              .build/obj_crkbd_rev1_tensotha_helios/serial_vendor.a(serial_vendor.o) (memcpy)
/opt/homebrew/Cellar/arm-none-eabi-gcc@8/8.5.0_2/lib/arm-none-eabi-gcc/8/gcc/arm-none-eabi/8.5.0/../../../../../../arm-none-eabi/lib/thumb/v6-m/nofp/libg_nano.a(lib_a-rand.o)
                              .build/obj_crkbd_rev1_tensotha_helios/quantum/rgblight/rgblight.o (symbol from plugin) (rand)
/opt/homebrew/Cellar/arm-none-eabi-gcc@8/8.5.0_2/lib/arm-none-eabi-gcc/8/gcc/arm-none-eabi/8.5.0/../../../../../../arm-none-eabi/lib/thumb/v6-m/nofp/libg_nano.a(lib_a-assert.o)
                              /opt/homebrew/Cellar/arm-none-eabi-gcc@8/8.5.0_2/lib/arm-none-eabi-gcc/8/gcc/arm-none-eabi/8.5.0/../../../../../../arm-none-eabi/lib/thumb/v6-m/nofp/libg_nano.a(lib_a-rand.o) (__assert_func)
/opt/homebrew/Cellar/arm-none-eabi-gcc@8/8.5.0_2/lib/arm-none-eabi-gcc/8/gcc/arm-none-eabi/8.5.0/../../../../../../arm-none-eabi/lib/thumb/v6-m/nofp/libg_nano.a(lib_a-fprintf.o)
                              /opt/homebrew/Cellar/arm-none-eabi-gcc@8/8.5.0_2/lib/arm-none-eabi-gcc/8/gcc/arm-none-eabi/8.5.0/../../../../../../arm-none-eabi/lib/thumb/v6-m/nofp/libg_nano.a(lib_a-assert.o) (fiprintf)
/opt/homebrew/Cellar/arm-none-eabi-gcc@8/8.5.0_2/lib/arm-none-eabi-gcc/8/gcc/arm-none-eabi/8.5.0/../../../../../../arm-none-eabi/lib/thumb/v6-m/nofp/libg_nano.a(lib_a-malloc.o)
                              /opt/homebrew/Cellar/arm-none-eabi-gcc@8/8.5.0_2/lib/arm-none-eabi-gcc/8/gcc/arm-none-eabi/8.5.0/../../../../../../arm-none-eabi/lib/thumb/v6-m/nofp/libg_nano.a(lib_a-rand.o) (malloc)
/opt/homebrew/Cellar/arm-none-eabi-gcc@8/8.5.0_2/lib/arm-none-eabi-gcc/8/gcc/arm-none-eabi/8.5.0/../../../../../../arm-none-eabi/lib/thumb/v6-m/nofp/libg_nano.a(lib_a-nano-freer.o)
                              /opt/homebrew/Cellar/arm-none-eabi-gcc@8/8.5.0_2/lib/arm-none-eabi-gcc/8/gcc/arm-none-eabi/8.5.0/../../../../../../arm-none-eabi/lib/thumb/v6-m/nofp/libg_nano.a(lib_a-malloc.o) (_free_r)
/opt/homebrew/Cellar/arm-none-eabi-gcc@8/8.5.0_2/lib/arm-none-eabi-gcc/8/gcc/arm-none-eabi/8.5.0/../../../../../../arm-none-eabi/lib/thumb/v6-m/nofp/libg_nano.a(lib_a-nano-mallocr.o)
                              /opt/homebrew/Cellar/arm-none-eabi-gcc@8/8.5.0_2/lib/arm-none-eabi-gcc/8/gcc/arm-none-eabi/8.5.0/../../../../../../arm-none-eabi/lib/thumb/v6-m/nofp/libg_nano.a(lib_a-malloc.o) (_malloc_r)
/opt/homebrew/Cellar/arm-none-eabi-gcc@8/8.5.0_2/lib/arm-none-eabi-gcc/8/gcc/arm-none-eabi/8.5.0/../../../../../../arm-none-eabi/lib/thumb/v6-m/nofp/libg_nano.a(lib_a-nano-vfprintf.o)
                              /opt/homebrew/Cellar/arm-none-eabi-gcc@8/8.5.0_2/lib/arm-none-eabi-gcc/8/gcc/arm-none-eabi/8.5.0/../../../../../../arm-none-eabi/lib/thumb/v6-m/nofp/libg_nano.a(lib_a-fprintf.o) (_vfprintf_r)
/opt/homebrew/Cellar/arm-none-eabi-gcc@8/8.5.0_2/lib/arm-none-eabi-gcc/8/gcc/arm-none-eabi/8.5.0/../../../../../../arm-none-eabi/lib/thumb/v6-m/nofp/libg_nano.a(lib_a-nano-vfprintf_i.o)
                              /opt/homebrew/Cellar/arm-none-eabi-gcc@8/8.5.0_2/lib/arm-none-eabi-gcc/8/gcc/arm-none-eabi/8.5.0/../../../../../../arm-none-eabi/lib/thumb/v6-m/nofp/libg_nano.a(lib_a-nano-vfprintf.o) (_printf_i)
/opt/homebrew/Cellar/arm-none-eabi-gcc@8/8.5.0_2/lib/arm-none-eabi-gcc/8/gcc/arm-none-eabi/8.5.0/../../../../../../arm-none-eabi/lib/thumb/v6-m/nofp/libg_nano.a(lib_a-wbuf.o)
                              /opt/homebrew/Cellar/arm-none-eabi-gcc@8/8.5.0_2/lib/arm-none-eabi-gcc/8/gcc/arm-none-eabi/8.5.0/../../../../../../arm-none-eabi/lib/thumb/v6-m/nofp/libg_nano.a(lib_a-nano-vfprintf.o) (__swbuf_r)
/opt/homebrew/Cellar/arm-none-eabi-gcc@8/8.5.0_2/lib/arm-none-eabi-gcc/8/gcc/arm-none-eabi/8.5.0/../../../../../../arm-none-eabi/lib/thumb/v6-m/nofp/libg_nano.a(lib_a-wsetup.o)
                              /opt/homebrew/Cellar/arm-none-eabi-gcc@8/8.5.0_2/lib/arm-none-eabi-gcc/8/gcc/arm-none-eabi/8.5.0/../../../../../../arm-none-eabi/lib/thumb/v6-m/nofp/libg_nano.a(lib_a-nano-vfprintf.o) (__swsetup_r)
/opt/homebrew/Cellar/arm-none-eabi-gcc@8/8.5.0_2/lib/arm-none-eabi-gcc/8/gcc/arm-none-eabi/8.5.0/../../../../../../arm-none-eabi/lib/thumb/v6-m/nofp/libg_nano.a(lib_a-abort.o)
                              /opt/homebrew/Cellar/arm-none-eabi-gcc@8/8.5.0_2/lib/arm-none-eabi-gcc/8/gcc/arm-none-eabi/8.5.0/../../../../../../arm-none-eabi/lib/thumb/v6-m/nofp/libg_nano.a(lib_a-assert.o) (abort)
/opt/homebrew/Cellar/arm-none-eabi-gcc@8/8.5.0_2/lib/arm-none-eabi-gcc/8/gcc/arm-none-eabi/8.5.0/../../../../../../arm-none-eabi/lib/thumb/v6-m/nofp/libg_nano.a(lib_a-fflush.o)
                              /opt/homebrew/Cellar/arm-none-eabi-gcc@8/8.5.0_2/lib/arm-none-eabi-gcc/8/gcc/arm-none-eabi/8.5.0/../../../../../../arm-none-eabi/lib/thumb/v6-m/nofp/libg_nano.a(lib_a-wbuf.o) (_fflush_r)
/opt/homebrew/Cellar/arm-none-eabi-gcc@8/8.5.0_2/lib/arm-none-eabi-gcc/8/gcc/arm-none-eabi/8.5.0/../../../../../../arm-none-eabi/lib/thumb/v6-m/nofp/libg_nano.a(lib_a-findfp.o)
                              /opt/homebrew/Cellar/arm-none-eabi-gcc@8/8.5.0_2/lib/arm-none-eabi-gcc/8/gcc/arm-none-eabi/8.5.0/../../../../../../arm-none-eabi/lib/thumb/v6-m/nofp/libg_nano.a(lib_a-nano-vfprintf.o) (__sinit)
/opt/homebrew/Cellar/arm-none-eabi-gcc@8/8.5.0_2/lib/arm-none-eabi-gcc/8/gcc/arm-none-eabi/8.5.0/../../../../../../arm-none-eabi/lib/thumb/v6-m/nofp/libg_nano.a(lib_a-fvwrite.o)
                              /opt/homebrew/Cellar/arm-none-eabi-gcc@8/8.5.0_2/lib/arm-none-eabi-gcc/8/gcc/arm-none-eabi/8.5.0/../../../../../../arm-none-eabi/lib/thumb/v6-m/nofp/libg_nano.a(lib_a-nano-vfprintf.o) (__sfvwrite_r)
/opt/homebrew/Cellar/arm-none-eabi-gcc@8/8.5.0_2/lib/arm-none-eabi-gcc/8/gcc/arm-none-eabi/8.5.0/../../../../../../arm-none-eabi/lib/thumb/v6-m/nofp/libg_nano.a(lib_a-fwalk.o)
                              /opt/homebrew/Cellar/arm-none-eabi-gcc@8/8.5.0_2/lib/arm-none-eabi-gcc/8/gcc/arm-none-eabi/8.5.0/../../../../../../arm-none-eabi/lib/thumb/v6-m/nofp/libg_nano.a(lib_a-findfp.o) (_fwalk)
/opt/homebrew/Cellar/arm-none-eabi-gcc@8/8.5.0_2/lib/arm-none-eabi-gcc/8/gcc/arm-none-eabi/8.5.0/../../../../../../arm-none-eabi/lib/thumb/v6-m/nofp/libg_nano.a(lib_a-lock.o)
                              /opt/homebrew/Cellar/arm-none-eabi-gcc@8/8.5.0_2/lib/arm-none-eabi-gcc/8/gcc/arm-none-eabi/8.5.0/../../../../../../arm-none-eabi/lib/thumb/v6-m/nofp/libg_nano.a(lib_a-findfp.o) (__retarget_lock_init_recursive)
/opt/homebrew/Cellar/arm-none-eabi-gcc@8/8.5.0_2/lib/arm-none-eabi-gcc/8/gcc/arm-none-eabi/8.5.0/../../../../../../arm-none-eabi/lib/thumb/v6-m/nofp/libg_nano.a(lib_a-makebuf.o)
                              /opt/homebrew/Cellar/arm-none-eabi-gcc@8/8.5.0_2/lib/arm-none-eabi-gcc/8/gcc/arm-none-eabi/8.5.0/../../../../../../arm-none-eabi/lib/thumb/v6-m/nofp/libg_nano.a(lib_a-wsetup.o) (__smakebuf_r)
/opt/homebrew/Cellar/arm-none-eabi-gcc@8/8.5.0_2/lib/arm-none-eabi-gcc/8/gcc/arm-none-eabi/8.5.0/../../../../../../arm-none-eabi/lib/thumb/v6-m/nofp/libg_nano.a(lib_a-memchr-stub.o)
                              /opt/homebrew/Cellar/arm-none-eabi-gcc@8/8.5.0_2/lib/arm-none-eabi-gcc/8/gcc/arm-none-eabi/8.5.0/../../../../../../arm-none-eabi/lib/thumb/v6-m/nofp/libg_nano.a(lib_a-nano-vfprintf.o) (memchr)
/opt/homebrew/Cellar/arm-none-eabi-gcc@8/8.5.0_2/lib/arm-none-eabi-gcc/8/gcc/arm-none-eabi/8.5.0/../../../../../../arm-none-eabi/lib/thumb/v6-m/nofp/libg_nano.a(lib_a-memmove.o)
                              /opt/homebrew/Cellar/arm-none-eabi-gcc@8/8.5.0_2/lib/arm-none-eabi-gcc/8/gcc/arm-none-eabi/8.5.0/../../../../../../arm-none-eabi/lib/thumb/v6-m/nofp/libg_nano.a(lib_a-fvwrite.o) (memmove)
/opt/homebrew/Cellar/arm-none-eabi-gcc@8/8.5.0_2/lib/arm-none-eabi-gcc/8/gcc/arm-none-eabi/8.5.0/../../../../../../arm-none-eabi/lib/thumb/v6-m/nofp/libg_nano.a(lib_a-memset.o)
                              /opt/homebrew/Cellar/arm-none-eabi-gcc@8/8.5.0_2/lib/arm-none-eabi-gcc/8/gcc/arm-none-eabi/8.5.0/../../../../../../arm-none-eabi/lib/thumb/v6-m/nofp/libg_nano.a(lib_a-findfp.o) (memset)
/opt/homebrew/Cellar/arm-none-eabi-gcc@8/8.5.0_2/lib/arm-none-eabi-gcc/8/gcc/arm-none-eabi/8.5.0/../../../../../../arm-none-eabi/lib/thumb/v6-m/nofp/libg_nano.a(lib_a-mlock.o)
                              /opt/homebrew/Cellar/arm-none-eabi-gcc@8/8.5.0_2/lib/arm-none-eabi-gcc/8/gcc/arm-none-eabi/8.5.0/../../../../../../arm-none-eabi/lib/thumb/v6-m/nofp/libg_nano.a(lib_a-nano-freer.o) (__malloc_lock)
/opt/homebrew/Cellar/arm-none-eabi-gcc@8/8.5.0_2/lib/arm-none-eabi-gcc/8/gcc/arm-none-eabi/8.5.0/../../../../../../arm-none-eabi/lib/thumb/v6-m/nofp/libg_nano.a(lib_a-nano-reallocr.o)
                              /opt/homebrew/Cellar/arm-none-eabi-gcc@8/8.5.0_2/lib/arm-none-eabi-gcc/8/gcc/arm-none-eabi/8.5.0/../../../../../../arm-none-eabi/lib/thumb/v6-m/nofp/libg_nano.a(lib_a-fvwrite.o) (_realloc_r)
/opt/homebrew/Cellar/arm-none-eabi-gcc@8/8.5.0_2/lib/arm-none-eabi-gcc/8/gcc/arm-none-eabi/8.5.0/../../../../../../arm-none-eabi/lib/thumb/v6-m/nofp/libg_nano.a(lib_a-signal.o)
                              /opt/homebrew/Cellar/arm-none-eabi-gcc@8/8.5.0_2/lib/arm-none-eabi-gcc/8/gcc/arm-none-eabi/8.5.0/../../../../../../arm-none-eabi/lib/thumb/v6-m/nofp/libg_nano.a(lib_a-abort.o) (raise)
/opt/homebrew/Cellar/arm-none-eabi-gcc@8/8.5.0_2/lib/arm-none-eabi-gcc/8/gcc/arm-none-eabi/8.5.0/../../../../../../arm-none-eabi/lib/thumb/v6-m/nofp/libg_nano.a(lib_a-signalr.o)
                              /opt/homebrew/Cellar/arm-none-eabi-gcc@8/8.5.0_2/lib/arm-none-eabi-gcc/8/gcc/arm-none-eabi/8.5.0/../../../../../../arm-none-eabi/lib/thumb/v6-m/nofp/libg_nano.a(lib_a-signal.o) (_kill_r)
/opt/homebrew/Cellar/arm-none-eabi-gcc@8/8.5.0_2/lib/arm-none-eabi-gcc/8/gcc/arm-none-eabi/8.5.0/../../../../../../arm-none-eabi/lib/thumb/v6-m/nofp/libg_nano.a(lib_a-stdio.o)
                              /opt/homebrew/Cellar/arm-none-eabi-gcc@8/8.5.0_2/lib/arm-none-eabi-gcc/8/gcc/arm-none-eabi/8.5.0/../../../../../../arm-none-eabi/lib/thumb/v6-m/nofp/libg_nano.a(lib_a-findfp.o) (__sread)
/opt/homebrew/Cellar/arm-none-eabi-gcc@8/8.5.0_2/lib/arm-none-eabi-gcc/8/gcc/arm-none-eabi/8.5.0/../../../../../../arm-none-eabi/lib/thumb/v6-m/nofp/libg_nano.a(lib_a-nano-msizer.o)
                              /opt/homebrew/Cellar/arm-none-eabi-gcc@8/8.5.0_2/lib/arm-none-eabi-gcc/8/gcc/arm-none-eabi/8.5.0/../../../../../../arm-none-eabi/lib/thumb/v6-m/nofp/libg_nano.a(lib_a-nano-reallocr.o) (_malloc_usable_size_r)
/opt/homebrew/Cellar/arm-none-eabi-gcc@8/8.5.0_2/lib/arm-none-eabi-gcc/8/gcc/arm-none-eabi/8.5.0/../../../../../../arm-none-eabi/lib/thumb/v6-m/nofp/libg_nano.a(lib_a-reent.o)
                              /opt/homebrew/Cellar/arm-none-eabi-gcc@8/8.5.0_2/lib/arm-none-eabi-gcc/8/gcc/arm-none-eabi/8.5.0/../../../../../../arm-none-eabi/lib/thumb/v6-m/nofp/libg_nano.a(lib_a-signalr.o) (errno)
/opt/homebrew/Cellar/arm-none-eabi-gcc@8/8.5.0_2/lib/arm-none-eabi-gcc/8/gcc/arm-none-eabi/8.5.0/thumb/v6-m/nofp/libgcc.a(_thumb1_case_sqi.o)
                              /var/folders/01/r6qc96lx1x7c0h1529l70j5m0000gn/T//ccqg8YyW.ltrans0.ltrans.o (__gnu_thumb1_case_sqi)
/opt/homebrew/Cellar/arm-none-eabi-gcc@8/8.5.0_2/lib/arm-none-eabi-gcc/8/gcc/arm-none-eabi/8.5.0/thumb/v6-m/nofp/libgcc.a(_thumb1_case_uqi.o)
                              /var/folders/01/r6qc96lx1x7c0h1529l70j5m0000gn/T//ccqg8YyW.ltrans0.ltrans.o (__gnu_thumb1_case_uqi)
/opt/homebrew/Cellar/arm-none-eabi-gcc@8/8.5.0_2/lib/arm-none-eabi-gcc/8/gcc/arm-none-eabi/8.5.0/thumb/v6-m/nofp/libgcc.a(_thumb1_case_shi.o)
                              /var/folders/01/r6qc96lx1x7c0h1529l70j5m0000gn/T//ccqg8YyW.ltrans0.ltrans.o (__gnu_thumb1_case_shi)
/opt/homebrew/Cellar/arm-none-eabi-gcc@8/8.5.0_2/lib/arm-none-eabi-gcc/8/gcc/arm-none-eabi/8.5.0/thumb/v6-m/nofp/libgcc.a(_thumb1_case_uhi.o)
                              /var/folders/01/r6qc96lx1x7c0h1529l70j5m0000gn/T//ccqg8YyW.ltrans0.ltrans.o (__gnu_thumb1_case_uhi)
/opt/homebrew/Cellar/arm-none-eabi-gcc@8/8.5.0_2/lib/arm-none-eabi-gcc/8/gcc/arm-none-eabi/8.5.0/thumb/v6-m/nofp/libgcc.a(_ctzsi2.o)
                              /var/folders/01/r6qc96lx1x7c0h1529l70j5m0000gn/T//ccqg8YyW.ltrans0.ltrans.o (__ctzsi2)
/opt/homebrew/Cellar/arm-none-eabi-gcc@8/8.5.0_2/lib/arm-none-eabi-gcc/8/gcc/arm-none-eabi/8.5.0/../../../../../../arm-none-eabi/lib/thumb/v6-m/nofp/libg_nano.a(lib_a-memcmp.o)
                              /var/folders/01/r6qc96lx1x7c0h1529l70j5m0000gn/T//ccqg8YyW.ltrans0.ltrans.o (memcmp)
/opt/homebrew/Cellar/arm-none-eabi-gcc@8/8.5.0_2/lib/arm-none-eabi-gcc/8/gcc/arm-none-eabi/8.5.0/../../../../../../arm-none-eabi/lib/thumb/v6-m/nofp/libg_nano.a(lib_a-strlen-stub.o)
                              /var/folders/01/r6qc96lx1x7c0h1529l70j5m0000gn/T//ccqg8YyW.ltrans0.ltrans.o (strlen)

Allocating common symbols
Common symbol       size              file

event_queue         0x10              .build/obj_crkbd_rev1_tensotha_helios/protocol/chibios/usb_main.o (symbol from plugin)
rgblight_config     0x8               .build/obj_crkbd_rev1_tensotha_helios/quantum/rgblight/rgblight.o (symbol from plugin)
__lock___atexit_recursive_mutex
                    0x1               /opt/homebrew/Cellar/arm-none-eabi-gcc@8/8.5.0_2/lib/arm-none-eabi-gcc/8/gcc/arm-none-eabi/8.5.0/../../../../../../arm-none-eabi/lib/thumb/v6-m/nofp/libg_nano.a(lib_a-lock.o)
keymap_config       0x2               .build/obj_crkbd_rev1_tensotha_helios/quantum/keycode_config.o (symbol from plugin)
__lock___arc4random_mutex
                    0x1               /opt/homebrew/Cellar/arm-none-eabi-gcc@8/8.5.0_2/lib/arm-none-eabi-gcc/8/gcc/arm-none-eabi/8.5.0/../../../../../../arm-none-eabi/lib/thumb/v6-m/nofp/libg_nano.a(lib_a-lock.o)
event_queue_head    0x1               .build/obj_crkbd_rev1_tensotha_helios/protocol/chibios/usb_main.o (symbol from plugin)
thatHand            0x1               .build/obj_crkbd_rev1_tensotha_helios/quantum/matrix_common.o (symbol from plugin)
I2CD1               0x38              /var/folders/01/r6qc96lx1x7c0h1529l70j5m0000gn/T//ccqg8YyW.ltrans0.ltrans.o
errno               0x4               /opt/homebrew/Cellar/arm-none-eabi-gcc@8/8.5.0_2/lib/arm-none-eabi-gcc/8/gcc/arm-none-eabi/8.5.0/../../../../../../arm-none-eabi/lib/thumb/v6-m/nofp/libg_nano.a(lib_a-reent.o)
oled_buffer         0x200             .build/obj_crkbd_rev1_tensotha_helios/oled_driver.o (symbol from plugin)
SystemCoreClock     0x4               .build/obj_crkbd_rev1_tensotha_helios/lib/chibios/os/hal/ports/RP/RP2040/hal_lld.o (symbol from plugin)
sync_timer_ms       0x4               .build/obj_crkbd_rev1_tensotha_helios/quantum/sync_timer.o (symbol from plugin)
__lock___env_recursive_mutex
                    0x1               /opt/homebrew/Cellar/arm-none-eabi-gcc@8/8.5.0_2/lib/arm-none-eabi-gcc/8/gcc/arm-none-eabi/8.5.0/../../../../../../arm-none-eabi/lib/thumb/v6-m/nofp/libg_nano.a(lib_a-lock.o)
__lock___sinit_recursive_mutex
                    0x1               /opt/homebrew/Cellar/arm-none-eabi-gcc@8/8.5.0_2/lib/arm-none-eabi-gcc/8/gcc/arm-none-eabi/8.5.0/../../../../../../arm-none-eabi/lib/thumb/v6-m/nofp/libg_nano.a(lib_a-lock.o)
__lock___malloc_recursive_mutex
                    0x1               /opt/homebrew/Cellar/arm-none-eabi-gcc@8/8.5.0_2/lib/arm-none-eabi-gcc/8/gcc/arm-none-eabi/8.5.0/../../../../../../arm-none-eabi/lib/thumb/v6-m/nofp/libg_nano.a(lib_a-lock.o)
ADCD1               0x38              .build/obj_crkbd_rev1_tensotha_helios/lib/chibios-contrib/os/hal/ports/RP/LLD/ADCv1/hal_adc_lld.o (symbol from plugin)
led                 0xa2              .build/obj_crkbd_rev1_tensotha_helios/quantum/rgblight/rgblight.o (symbol from plugin)
oled_update_timeout
                    0x2               .build/obj_crkbd_rev1_tensotha_helios/oled_driver.o (symbol from plugin)
last_col            0x1               .build/obj_crkbd_rev1_tensotha_helios/keyboards/crkbd/crkbd.o (symbol from plugin)
raw_matrix          0x8               .build/obj_crkbd_rev1_tensotha_helios/quantum/matrix_common.o (symbol from plugin)
ch_system           0x10              .build/obj_crkbd_rev1_tensotha_helios/lib/chibios/os/rt/src/chsys.o (symbol from plugin)
oled_timeout        0x4               .build/obj_crkbd_rev1_tensotha_helios/oled_driver.o (symbol from plugin)
USBD1               0xe4              .build/obj_crkbd_rev1_tensotha_helios/lib/chibios-contrib/os/hal/ports/RP/LLD/USBDv1/hal_usb_lld.o (symbol from plugin)
matrix              0x8               .build/obj_crkbd_rev1_tensotha_helios/quantum/matrix_common.o (symbol from plugin)
tp_buttons          0x4               .build/obj_crkbd_rev1_tensotha_helios/quantum/action.o (symbol from plugin)
last_row            0x1               .build/obj_crkbd_rev1_tensotha_helios/keyboards/crkbd/crkbd.o (symbol from plugin)
event_queue_tail    0x1               .build/obj_crkbd_rev1_tensotha_helios/protocol/chibios/usb_main.o (symbol from plugin)
__lock___at_quick_exit_mutex
                    0x1               /opt/homebrew/Cellar/arm-none-eabi-gcc@8/8.5.0_2/lib/arm-none-eabi-gcc/8/gcc/arm-none-eabi/8.5.0/../../../../../../arm-none-eabi/lib/thumb/v6-m/nofp/libg_nano.a(lib_a-lock.o)
ch_memcore          0x8               .build/obj_crkbd_rev1_tensotha_helios/lib/chibios/os/oslib/src/chmemcore.o (symbol from plugin)
oled_cursor         0x4               .build/obj_crkbd_rev1_tensotha_helios/oled_driver.o (symbol from plugin)
thisHand            0x1               .build/obj_crkbd_rev1_tensotha_helios/quantum/matrix_common.o (symbol from plugin)
__lock___dd_hash_mutex
                    0x1               /opt/homebrew/Cellar/arm-none-eabi-gcc@8/8.5.0_2/lib/arm-none-eabi-gcc/8/gcc/arm-none-eabi/8.5.0/../../../../../../arm-none-eabi/lib/thumb/v6-m/nofp/libg_nano.a(lib_a-lock.o)
__lock___tz_mutex   0x1               /opt/homebrew/Cellar/arm-none-eabi-gcc@8/8.5.0_2/lib/arm-none-eabi-gcc/8/gcc/arm-none-eabi/8.5.0/../../../../../../arm-none-eabi/lib/thumb/v6-m/nofp/libg_nano.a(lib_a-lock.o)
SPID0               0x30              .build/obj_crkbd_rev1_tensotha_helios/lib/chibios/os/hal/ports/RP/LLD/SPIv1/hal_spi_lld.o (symbol from plugin)
st_callbacks        0x10              .build/obj_crkbd_rev1_tensotha_helios/lib/chibios/os/hal/src/hal_st.o (symbol from plugin)
last_keycode        0x2               .build/obj_crkbd_rev1_tensotha_helios/keyboards/crkbd/crkbd.o (symbol from plugin)
__lock___sfp_recursive_mutex
                    0x1               /opt/homebrew/Cellar/arm-none-eabi-gcc@8/8.5.0_2/lib/arm-none-eabi-gcc/8/gcc/arm-none-eabi/8.5.0/../../../../../../arm-none-eabi/lib/thumb/v6-m/nofp/libg_nano.a(lib_a-lock.o)

Discarded input sections

 .comment       0x00000000     0x1887 /var/folders/01/r6qc96lx1x7c0h1529l70j5m0000gn/T//ccZ3h3t9debugobj
 .text          0x00000000        0x0 /var/folders/01/r6qc96lx1x7c0h1529l70j5m0000gn/T//ccqg8YyW.ltrans0.ltrans.o
 .data          0x00000000        0x0 /var/folders/01/r6qc96lx1x7c0h1529l70j5m0000gn/T//ccqg8YyW.ltrans0.ltrans.o
 .bss           0x00000000        0x0 /var/folders/01/r6qc96lx1x7c0h1529l70j5m0000gn/T//ccqg8YyW.ltrans0.ltrans.o
 .text.putchar_wrapper
                0x00000000       0x10 /var/folders/01/r6qc96lx1x7c0h1529l70j5m0000gn/T//ccqg8YyW.ltrans0.ltrans.o
 .text.putchar_via_gadget
                0x00000000       0x24 /var/folders/01/r6qc96lx1x7c0h1529l70j5m0000gn/T//ccqg8YyW.ltrans0.ltrans.o
 .text.out_rev_
                0x00000000       0x56 /var/folders/01/r6qc96lx1x7c0h1529l70j5m0000gn/T//ccqg8YyW.ltrans0.ltrans.o
 .text.print_integer
                0x00000000      0x174 /var/folders/01/r6qc96lx1x7c0h1529l70j5m0000gn/T//ccqg8YyW.ltrans0.ltrans.o
 .text.vsnprintf_impl.constprop.46
                0x00000000      0x38c /var/folders/01/r6qc96lx1x7c0h1529l70j5m0000gn/T//ccqg8YyW.ltrans0.ltrans.o
 .text.biton    0x00000000       0x1e /var/folders/01/r6qc96lx1x7c0h1529l70j5m0000gn/T//ccqg8YyW.ltrans0.ltrans.o
 .text._gettimeofday_r
                0x00000000        0x8 /var/folders/01/r6qc96lx1x7c0h1529l70j5m0000gn/T//ccqg8YyW.ltrans0.ltrans.o
 .text._link_r  0x00000000        0x8 /var/folders/01/r6qc96lx1x7c0h1529l70j5m0000gn/T//ccqg8YyW.ltrans0.ltrans.o
 .text._times_r
                0x00000000        0xa /var/folders/01/r6qc96lx1x7c0h1529l70j5m0000gn/T//ccqg8YyW.ltrans0.ltrans.o
 .text._unlink_r
                0x00000000        0x8 /var/folders/01/r6qc96lx1x7c0h1529l70j5m0000gn/T//ccqg8YyW.ltrans0.ltrans.o
 .text.__cxa_pure_virtual
                0x00000000        0xc /var/folders/01/r6qc96lx1x7c0h1529l70j5m0000gn/T//ccqg8YyW.ltrans0.ltrans.o
 .text._open_r  0x00000000        0xa /var/folders/01/r6qc96lx1x7c0h1529l70j5m0000gn/T//ccqg8YyW.ltrans0.ltrans.o
 .text.i2cMasterReceiveTimeout
                0x00000000       0xb8 /var/folders/01/r6qc96lx1x7c0h1529l70j5m0000gn/T//ccqg8YyW.ltrans0.ltrans.o
 .text.vsnprintf
                0x00000000       0x34 /var/folders/01/r6qc96lx1x7c0h1529l70j5m0000gn/T//ccqg8YyW.ltrans0.ltrans.o
 .text.snprintf
                0x00000000       0x16 /var/folders/01/r6qc96lx1x7c0h1529l70j5m0000gn/T//ccqg8YyW.ltrans0.ltrans.o
 .text.vsprintf
                0x00000000       0x14 /var/folders/01/r6qc96lx1x7c0h1529l70j5m0000gn/T//ccqg8YyW.ltrans0.ltrans.o
 .text.sprintf  0x00000000       0x16 /var/folders/01/r6qc96lx1x7c0h1529l70j5m0000gn/T//ccqg8YyW.ltrans0.ltrans.o
 .text.vprintf  0x00000000       0x28 /var/folders/01/r6qc96lx1x7c0h1529l70j5m0000gn/T//ccqg8YyW.ltrans0.ltrans.o
 .bss.__dso_handle
                0x00000000        0x4 /var/folders/01/r6qc96lx1x7c0h1529l70j5m0000gn/T//ccqg8YyW.ltrans0.ltrans.o
 .rodata.__cxa_pure_virtual.str1.1
                0x00000000        0xd /var/folders/01/r6qc96lx1x7c0h1529l70j5m0000gn/T//ccqg8YyW.ltrans0.ltrans.o
 .rodata.vsnprintf_impl.constprop.46.str1.1
                0x00000000        0xd /var/folders/01/r6qc96lx1x7c0h1529l70j5m0000gn/T//ccqg8YyW.ltrans0.ltrans.o
 .text          0x00000000        0x0 .build/obj_crkbd_rev1_tensotha_helios/serial_protocol.a(serial_protocol.o)
 .data          0x00000000        0x0 .build/obj_crkbd_rev1_tensotha_helios/serial_protocol.a(serial_protocol.o)
 .bss           0x00000000        0x0 .build/obj_crkbd_rev1_tensotha_helios/serial_protocol.a(serial_protocol.o)
 .text          0x00000000        0x0 .build/obj_crkbd_rev1_tensotha_helios/serial_vendor.a(serial_vendor.o)
 .data          0x00000000        0x0 .build/obj_crkbd_rev1_tensotha_helios/serial_vendor.a(serial_vendor.o)
 .bss           0x00000000        0x0 .build/obj_crkbd_rev1_tensotha_helios/serial_vendor.a(serial_vendor.o)
 .text          0x00000000        0x0 .build/obj_crkbd_rev1_tensotha_helios/i2c_master.a(i2c_master.o)
 .data          0x00000000        0x0 .build/obj_crkbd_rev1_tensotha_helios/i2c_master.a(i2c_master.o)
 .bss           0x00000000        0x0 .build/obj_crkbd_rev1_tensotha_helios/i2c_master.a(i2c_master.o)
 .text.i2c_receive
                0x00000000       0x5c .build/obj_crkbd_rev1_tensotha_helios/i2c_master.a(i2c_master.o)
 .text.i2c_write_register16
                0x00000000       0x98 .build/obj_crkbd_rev1_tensotha_helios/i2c_master.a(i2c_master.o)
 .text.i2c_read_register
                0x00000000       0x70 .build/obj_crkbd_rev1_tensotha_helios/i2c_master.a(i2c_master.o)
 .text.i2c_read_register16
                0x00000000       0x70 .build/obj_crkbd_rev1_tensotha_helios/i2c_master.a(i2c_master.o)
 .text.i2c_ping_address
                0x00000000       0x18 .build/obj_crkbd_rev1_tensotha_helios/i2c_master.a(i2c_master.o)
 .data          0x00000000        0x0 .build/obj_crkbd_rev1_tensotha_helios/./lib/chibios/os/common/startup/ARMCMx/compilers/GCC/crt0_v6m.o
 .bss           0x00000000        0x0 .build/obj_crkbd_rev1_tensotha_helios/./lib/chibios/os/common/startup/ARMCMx/compilers/GCC/crt0_v6m.o
 .data          0x00000000        0x0 .build/obj_crkbd_rev1_tensotha_helios/./lib/chibios/os/common/startup/ARMCMx/compilers/GCC/vectors.o
 .bss           0x00000000        0x0 .build/obj_crkbd_rev1_tensotha_helios/./lib/chibios/os/common/startup/ARMCMx/compilers/GCC/vectors.o
 .data          0x00000000        0x0 .build/obj_crkbd_rev1_tensotha_helios/./lib/chibios/os/common/ports/ARMv6-M-RP2/compilers/GCC/chcoreasm.o
 .bss           0x00000000        0x0 .build/obj_crkbd_rev1_tensotha_helios/./lib/chibios/os/common/ports/ARMv6-M-RP2/compilers/GCC/chcoreasm.o
 .text          0x00000000        0x0 .build/obj_crkbd_rev1_tensotha_helios/./lib/pico-sdk/src/rp2_common/pico_divider/divider.o
 .data          0x00000000        0x0 .build/obj_crkbd_rev1_tensotha_helios/./lib/pico-sdk/src/rp2_common/pico_divider/divider.o
 .bss           0x00000000        0x0 .build/obj_crkbd_rev1_tensotha_helios/./lib/pico-sdk/src/rp2_common/pico_divider/divider.o
 .time_critical.divmod_s64s64_rem
                0x00000000        0xc .build/obj_crkbd_rev1_tensotha_helios/./lib/pico-sdk/src/rp2_common/pico_divider/divider.o
 .time_critical.divmod_u64u64_rem
                0x00000000        0xc .build/obj_crkbd_rev1_tensotha_helios/./lib/pico-sdk/src/rp2_common/pico_divider/divider.o
 .text          0x00000000        0x0 .build/obj_crkbd_rev1_tensotha_helios/./lib/pico-sdk/src/rp2_common/pico_int64_ops/pico_int64_ops_aeabi.o
 .data          0x00000000        0x0 .build/obj_crkbd_rev1_tensotha_helios/./lib/pico-sdk/src/rp2_common/pico_int64_ops/pico_int64_ops_aeabi.o
 .bss           0x00000000        0x0 .build/obj_crkbd_rev1_tensotha_helios/./lib/pico-sdk/src/rp2_common/pico_int64_ops/pico_int64_ops_aeabi.o
 .data          0x00000000        0x0 /opt/homebrew/Cellar/arm-none-eabi-gcc@8/8.5.0_2/lib/arm-none-eabi-gcc/8/gcc/arm-none-eabi/8.5.0/thumb/v6-m/nofp/libgcc.a(_dvmd_tls.o)
 .bss           0x00000000        0x0 /opt/homebrew/Cellar/arm-none-eabi-gcc@8/8.5.0_2/lib/arm-none-eabi-gcc/8/gcc/arm-none-eabi/8.5.0/thumb/v6-m/nofp/libgcc.a(_dvmd_tls.o)
 .data          0x00000000        0x0 /opt/homebrew/Cellar/arm-none-eabi-gcc@8/8.5.0_2/lib/arm-none-eabi-gcc/8/gcc/arm-none-eabi/8.5.0/thumb/v6-m/nofp/libgcc.a(_fixunssfsi.o)
 .bss           0x00000000        0x0 /opt/homebrew/Cellar/arm-none-eabi-gcc@8/8.5.0_2/lib/arm-none-eabi-gcc/8/gcc/arm-none-eabi/8.5.0/thumb/v6-m/nofp/libgcc.a(_fixunssfsi.o)
 .data          0x00000000        0x0 /opt/homebrew/Cellar/arm-none-eabi-gcc@8/8.5.0_2/lib/arm-none-eabi-gcc/8/gcc/arm-none-eabi/8.5.0/thumb/v6-m/nofp/libgcc.a(divsf3.o)
 .bss           0x00000000        0x0 /opt/homebrew/Cellar/arm-none-eabi-gcc@8/8.5.0_2/lib/arm-none-eabi-gcc/8/gcc/arm-none-eabi/8.5.0/thumb/v6-m/nofp/libgcc.a(divsf3.o)
 .data          0x00000000        0x0 /opt/homebrew/Cellar/arm-none-eabi-gcc@8/8.5.0_2/lib/arm-none-eabi-gcc/8/gcc/arm-none-eabi/8.5.0/thumb/v6-m/nofp/libgcc.a(mulsf3.o)
 .bss           0x00000000        0x0 /opt/homebrew/Cellar/arm-none-eabi-gcc@8/8.5.0_2/lib/arm-none-eabi-gcc/8/gcc/arm-none-eabi/8.5.0/thumb/v6-m/nofp/libgcc.a(mulsf3.o)
 .data          0x00000000        0x0 /opt/homebrew/Cellar/arm-none-eabi-gcc@8/8.5.0_2/lib/arm-none-eabi-gcc/8/gcc/arm-none-eabi/8.5.0/thumb/v6-m/nofp/libgcc.a(subsf3.o)
 .bss           0x00000000        0x0 /opt/homebrew/Cellar/arm-none-eabi-gcc@8/8.5.0_2/lib/arm-none-eabi-gcc/8/gcc/arm-none-eabi/8.5.0/thumb/v6-m/nofp/libgcc.a(subsf3.o)
 .data          0x00000000        0x0 /opt/homebrew/Cellar/arm-none-eabi-gcc@8/8.5.0_2/lib/arm-none-eabi-gcc/8/gcc/arm-none-eabi/8.5.0/thumb/v6-m/nofp/libgcc.a(fixsfsi.o)
 .bss           0x00000000        0x0 /opt/homebrew/Cellar/arm-none-eabi-gcc@8/8.5.0_2/lib/arm-none-eabi-gcc/8/gcc/arm-none-eabi/8.5.0/thumb/v6-m/nofp/libgcc.a(fixsfsi.o)
 .data          0x00000000        0x0 /opt/homebrew/Cellar/arm-none-eabi-gcc@8/8.5.0_2/lib/arm-none-eabi-gcc/8/gcc/arm-none-eabi/8.5.0/thumb/v6-m/nofp/libgcc.a(floatunsisf.o)
 .bss           0x00000000        0x0 /opt/homebrew/Cellar/arm-none-eabi-gcc@8/8.5.0_2/lib/arm-none-eabi-gcc/8/gcc/arm-none-eabi/8.5.0/thumb/v6-m/nofp/libgcc.a(floatunsisf.o)
 .data          0x00000000        0x0 /opt/homebrew/Cellar/arm-none-eabi-gcc@8/8.5.0_2/lib/arm-none-eabi-gcc/8/gcc/arm-none-eabi/8.5.0/thumb/v6-m/nofp/libgcc.a(_arm_cmpsf2.o)
 .bss           0x00000000        0x0 /opt/homebrew/Cellar/arm-none-eabi-gcc@8/8.5.0_2/lib/arm-none-eabi-gcc/8/gcc/arm-none-eabi/8.5.0/thumb/v6-m/nofp/libgcc.a(_arm_cmpsf2.o)
 .data          0x00000000        0x0 /opt/homebrew/Cellar/arm-none-eabi-gcc@8/8.5.0_2/lib/arm-none-eabi-gcc/8/gcc/arm-none-eabi/8.5.0/thumb/v6-m/nofp/libgcc.a(_clzsi2.o)
 .bss           0x00000000        0x0 /opt/homebrew/Cellar/arm-none-eabi-gcc@8/8.5.0_2/lib/arm-none-eabi-gcc/8/gcc/arm-none-eabi/8.5.0/thumb/v6-m/nofp/libgcc.a(_clzsi2.o)
 .data          0x00000000        0x0 /opt/homebrew/Cellar/arm-none-eabi-gcc@8/8.5.0_2/lib/arm-none-eabi-gcc/8/gcc/arm-none-eabi/8.5.0/thumb/v6-m/nofp/libgcc.a(eqsf2.o)
 .bss           0x00000000        0x0 /opt/homebrew/Cellar/arm-none-eabi-gcc@8/8.5.0_2/lib/arm-none-eabi-gcc/8/gcc/arm-none-eabi/8.5.0/thumb/v6-m/nofp/libgcc.a(eqsf2.o)
 .data          0x00000000        0x0 /opt/homebrew/Cellar/arm-none-eabi-gcc@8/8.5.0_2/lib/arm-none-eabi-gcc/8/gcc/arm-none-eabi/8.5.0/thumb/v6-m/nofp/libgcc.a(gesf2.o)
 .bss           0x00000000        0x0 /opt/homebrew/Cellar/arm-none-eabi-gcc@8/8.5.0_2/lib/arm-none-eabi-gcc/8/gcc/arm-none-eabi/8.5.0/thumb/v6-m/nofp/libgcc.a(gesf2.o)
 .data          0x00000000        0x0 /opt/homebrew/Cellar/arm-none-eabi-gcc@8/8.5.0_2/lib/arm-none-eabi-gcc/8/gcc/arm-none-eabi/8.5.0/thumb/v6-m/nofp/libgcc.a(lesf2.o)
 .bss           0x00000000        0x0 /opt/homebrew/Cellar/arm-none-eabi-gcc@8/8.5.0_2/lib/arm-none-eabi-gcc/8/gcc/arm-none-eabi/8.5.0/thumb/v6-m/nofp/libgcc.a(lesf2.o)
 .data          0x00000000        0x0 /opt/homebrew/Cellar/arm-none-eabi-gcc@8/8.5.0_2/lib/arm-none-eabi-gcc/8/gcc/arm-none-eabi/8.5.0/thumb/v6-m/nofp/libgcc.a(_thumb1_case_sqi.o)
 .bss           0x00000000        0x0 /opt/homebrew/Cellar/arm-none-eabi-gcc@8/8.5.0_2/lib/arm-none-eabi-gcc/8/gcc/arm-none-eabi/8.5.0/thumb/v6-m/nofp/libgcc.a(_thumb1_case_sqi.o)
 .data          0x00000000        0x0 /opt/homebrew/Cellar/arm-none-eabi-gcc@8/8.5.0_2/lib/arm-none-eabi-gcc/8/gcc/arm-none-eabi/8.5.0/thumb/v6-m/nofp/libgcc.a(_thumb1_case_uqi.o)
 .bss           0x00000000        0x0 /opt/homebrew/Cellar/arm-none-eabi-gcc@8/8.5.0_2/lib/arm-none-eabi-gcc/8/gcc/arm-none-eabi/8.5.0/thumb/v6-m/nofp/libgcc.a(_thumb1_case_uqi.o)
 .data          0x00000000        0x0 /opt/homebrew/Cellar/arm-none-eabi-gcc@8/8.5.0_2/lib/arm-none-eabi-gcc/8/gcc/arm-none-eabi/8.5.0/thumb/v6-m/nofp/libgcc.a(_thumb1_case_shi.o)
 .bss           0x00000000        0x0 /opt/homebrew/Cellar/arm-none-eabi-gcc@8/8.5.0_2/lib/arm-none-eabi-gcc/8/gcc/arm-none-eabi/8.5.0/thumb/v6-m/nofp/libgcc.a(_thumb1_case_shi.o)
 .data          0x00000000        0x0 /opt/homebrew/Cellar/arm-none-eabi-gcc@8/8.5.0_2/lib/arm-none-eabi-gcc/8/gcc/arm-none-eabi/8.5.0/thumb/v6-m/nofp/libgcc.a(_thumb1_case_uhi.o)
 .bss           0x00000000        0x0 /opt/homebrew/Cellar/arm-none-eabi-gcc@8/8.5.0_2/lib/arm-none-eabi-gcc/8/gcc/arm-none-eabi/8.5.0/thumb/v6-m/nofp/libgcc.a(_thumb1_case_uhi.o)
 .data          0x00000000        0x0 /opt/homebrew/Cellar/arm-none-eabi-gcc@8/8.5.0_2/lib/arm-none-eabi-gcc/8/gcc/arm-none-eabi/8.5.0/thumb/v6-m/nofp/libgcc.a(_ctzsi2.o)
 .bss           0x00000000        0x0 /opt/homebrew/Cellar/arm-none-eabi-gcc@8/8.5.0_2/lib/arm-none-eabi-gcc/8/gcc/arm-none-eabi/8.5.0/thumb/v6-m/nofp/libgcc.a(_ctzsi2.o)
 .text          0x00000000        0x0 /opt/homebrew/Cellar/arm-none-eabi-gcc@8/8.5.0_2/lib/arm-none-eabi-gcc/8/gcc/arm-none-eabi/8.5.0/../../../../../../arm-none-eabi/lib/thumb/v6-m/nofp/libg_nano.a(lib_a-ctype_.o)
 .data          0x00000000        0x0 /opt/homebrew/Cellar/arm-none-eabi-gcc@8/8.5.0_2/lib/arm-none-eabi-gcc/8/gcc/arm-none-eabi/8.5.0/../../../../../../arm-none-eabi/lib/thumb/v6-m/nofp/libg_nano.a(lib_a-ctype_.o)
 .bss           0x00000000        0x0 /opt/homebrew/Cellar/arm-none-eabi-gcc@8/8.5.0_2/lib/arm-none-eabi-gcc/8/gcc/arm-none-eabi/8.5.0/../../../../../../arm-none-eabi/lib/thumb/v6-m/nofp/libg_nano.a(lib_a-ctype_.o)
 .rodata        0x00000000      0x101 /opt/homebrew/Cellar/arm-none-eabi-gcc@8/8.5.0_2/lib/arm-none-eabi-gcc/8/gcc/arm-none-eabi/8.5.0/../../../../../../arm-none-eabi/lib/thumb/v6-m/nofp/libg_nano.a(lib_a-ctype_.o)
 .ARM.attributes
                0x00000000       0x2c /opt/homebrew/Cellar/arm-none-eabi-gcc@8/8.5.0_2/lib/arm-none-eabi-gcc/8/gcc/arm-none-eabi/8.5.0/../../../../../../arm-none-eabi/lib/thumb/v6-m/nofp/libg_nano.a(lib_a-ctype_.o)
 .text          0x00000000        0xc /opt/homebrew/Cellar/arm-none-eabi-gcc@8/8.5.0_2/lib/arm-none-eabi-gcc/8/gcc/arm-none-eabi/8.5.0/../../../../../../arm-none-eabi/lib/thumb/v6-m/nofp/libg_nano.a(lib_a-errno.o)
 .data          0x00000000        0x0 /opt/homebrew/Cellar/arm-none-eabi-gcc@8/8.5.0_2/lib/arm-none-eabi-gcc/8/gcc/arm-none-eabi/8.5.0/../../../../../../arm-none-eabi/lib/thumb/v6-m/nofp/libg_nano.a(lib_a-errno.o)
 .bss           0x00000000        0x0 /opt/homebrew/Cellar/arm-none-eabi-gcc@8/8.5.0_2/lib/arm-none-eabi-gcc/8/gcc/arm-none-eabi/8.5.0/../../../../../../arm-none-eabi/lib/thumb/v6-m/nofp/libg_nano.a(lib_a-errno.o)
 .debug_frame   0x00000000       0x20 /opt/homebrew/Cellar/arm-none-eabi-gcc@8/8.5.0_2/lib/arm-none-eabi-gcc/8/gcc/arm-none-eabi/8.5.0/../../../../../../arm-none-eabi/lib/thumb/v6-m/nofp/libg_nano.a(lib_a-errno.o)
 .ARM.attributes
                0x00000000       0x2c /opt/homebrew/Cellar/arm-none-eabi-gcc@8/8.5.0_2/lib/arm-none-eabi-gcc/8/gcc/arm-none-eabi/8.5.0/../../../../../../arm-none-eabi/lib/thumb/v6-m/nofp/libg_nano.a(lib_a-errno.o)
 .text          0x00000000        0x0 /opt/homebrew/Cellar/arm-none-eabi-gcc@8/8.5.0_2/lib/arm-none-eabi-gcc/8/gcc/arm-none-eabi/8.5.0/../../../../../../arm-none-eabi/lib/thumb/v6-m/nofp/libg_nano.a(lib_a-impure.o)
 .bss           0x00000000        0x0 /opt/homebrew/Cellar/arm-none-eabi-gcc@8/8.5.0_2/lib/arm-none-eabi-gcc/8/gcc/arm-none-eabi/8.5.0/../../../../../../arm-none-eabi/lib/thumb/v6-m/nofp/libg_nano.a(lib_a-impure.o)
 .data          0x00000000        0x0 /opt/homebrew/Cellar/arm-none-eabi-gcc@8/8.5.0_2/lib/arm-none-eabi-gcc/8/gcc/arm-none-eabi/8.5.0/../../../../../../arm-none-eabi/lib/thumb/v6-m/nofp/libg_nano.a(lib_a-memcpy-stub.o)
 .bss           0x00000000        0x0 /opt/homebrew/Cellar/arm-none-eabi-gcc@8/8.5.0_2/lib/arm-none-eabi-gcc/8/gcc/arm-none-eabi/8.5.0/../../../../../../arm-none-eabi/lib/thumb/v6-m/nofp/libg_nano.a(lib_a-memcpy-stub.o)
 .data          0x00000000        0x0 /opt/homebrew/Cellar/arm-none-eabi-gcc@8/8.5.0_2/lib/arm-none-eabi-gcc/8/gcc/arm-none-eabi/8.5.0/../../../../../../arm-none-eabi/lib/thumb/v6-m/nofp/libg_nano.a(lib_a-rand.o)
 .bss           0x00000000        0x0 /opt/homebrew/Cellar/arm-none-eabi-gcc@8/8.5.0_2/lib/arm-none-eabi-gcc/8/gcc/arm-none-eabi/8.5.0/../../../../../../arm-none-eabi/lib/thumb/v6-m/nofp/libg_nano.a(lib_a-rand.o)
 .data          0x00000000        0x0 /opt/homebrew/Cellar/arm-none-eabi-gcc@8/8.5.0_2/lib/arm-none-eabi-gcc/8/gcc/arm-none-eabi/8.5.0/../../../../../../arm-none-eabi/lib/thumb/v6-m/nofp/libg_nano.a(lib_a-assert.o)
 .bss           0x00000000        0x0 /opt/homebrew/Cellar/arm-none-eabi-gcc@8/8.5.0_2/lib/arm-none-eabi-gcc/8/gcc/arm-none-eabi/8.5.0/../../../../../../arm-none-eabi/lib/thumb/v6-m/nofp/libg_nano.a(lib_a-assert.o)
 .data          0x00000000        0x0 /opt/homebrew/Cellar/arm-none-eabi-gcc@8/8.5.0_2/lib/arm-none-eabi-gcc/8/gcc/arm-none-eabi/8.5.0/../../../../../../arm-none-eabi/lib/thumb/v6-m/nofp/libg_nano.a(lib_a-fprintf.o)
 .bss           0x00000000        0x0 /opt/homebrew/Cellar/arm-none-eabi-gcc@8/8.5.0_2/lib/arm-none-eabi-gcc/8/gcc/arm-none-eabi/8.5.0/../../../../../../arm-none-eabi/lib/thumb/v6-m/nofp/libg_nano.a(lib_a-fprintf.o)
 .data          0x00000000        0x0 /opt/homebrew/Cellar/arm-none-eabi-gcc@8/8.5.0_2/lib/arm-none-eabi-gcc/8/gcc/arm-none-eabi/8.5.0/../../../../../../arm-none-eabi/lib/thumb/v6-m/nofp/libg_nano.a(lib_a-malloc.o)
 .bss           0x00000000        0x0 /opt/homebrew/Cellar/arm-none-eabi-gcc@8/8.5.0_2/lib/arm-none-eabi-gcc/8/gcc/arm-none-eabi/8.5.0/../../../../../../arm-none-eabi/lib/thumb/v6-m/nofp/libg_nano.a(lib_a-malloc.o)
 .data          0x00000000        0x0 /opt/homebrew/Cellar/arm-none-eabi-gcc@8/8.5.0_2/lib/arm-none-eabi-gcc/8/gcc/arm-none-eabi/8.5.0/../../../../../../arm-none-eabi/lib/thumb/v6-m/nofp/libg_nano.a(lib_a-nano-freer.o)
 .bss           0x00000000        0x0 /opt/homebrew/Cellar/arm-none-eabi-gcc@8/8.5.0_2/lib/arm-none-eabi-gcc/8/gcc/arm-none-eabi/8.5.0/../../../../../../arm-none-eabi/lib/thumb/v6-m/nofp/libg_nano.a(lib_a-nano-freer.o)
 .data          0x00000000        0x0 /opt/homebrew/Cellar/arm-none-eabi-gcc@8/8.5.0_2/lib/arm-none-eabi-gcc/8/gcc/arm-none-eabi/8.5.0/../../../../../../arm-none-eabi/lib/thumb/v6-m/nofp/libg_nano.a(lib_a-nano-mallocr.o)
 .data          0x00000000        0x0 /opt/homebrew/Cellar/arm-none-eabi-gcc@8/8.5.0_2/lib/arm-none-eabi-gcc/8/gcc/arm-none-eabi/8.5.0/../../../../../../arm-none-eabi/lib/thumb/v6-m/nofp/libg_nano.a(lib_a-nano-vfprintf.o)
 .bss           0x00000000        0x0 /opt/homebrew/Cellar/arm-none-eabi-gcc@8/8.5.0_2/lib/arm-none-eabi-gcc/8/gcc/arm-none-eabi/8.5.0/../../../../../../arm-none-eabi/lib/thumb/v6-m/nofp/libg_nano.a(lib_a-nano-vfprintf.o)
 .data          0x00000000        0x0 /opt/homebrew/Cellar/arm-none-eabi-gcc@8/8.5.0_2/lib/arm-none-eabi-gcc/8/gcc/arm-none-eabi/8.5.0/../../../../../../arm-none-eabi/lib/thumb/v6-m/nofp/libg_nano.a(lib_a-nano-vfprintf_i.o)
 .bss           0x00000000        0x0 /opt/homebrew/Cellar/arm-none-eabi-gcc@8/8.5.0_2/lib/arm-none-eabi-gcc/8/gcc/arm-none-eabi/8.5.0/../../../../../../arm-none-eabi/lib/thumb/v6-m/nofp/libg_nano.a(lib_a-nano-vfprintf_i.o)
 .data          0x00000000        0x0 /opt/homebrew/Cellar/arm-none-eabi-gcc@8/8.5.0_2/lib/arm-none-eabi-gcc/8/gcc/arm-none-eabi/8.5.0/../../../../../../arm-none-eabi/lib/thumb/v6-m/nofp/libg_nano.a(lib_a-wbuf.o)
 .bss           0x00000000        0x0 /opt/homebrew/Cellar/arm-none-eabi-gcc@8/8.5.0_2/lib/arm-none-eabi-gcc/8/gcc/arm-none-eabi/8.5.0/../../../../../../arm-none-eabi/lib/thumb/v6-m/nofp/libg_nano.a(lib_a-wbuf.o)
 .data          0x00000000        0x0 /opt/homebrew/Cellar/arm-none-eabi-gcc@8/8.5.0_2/lib/arm-none-eabi-gcc/8/gcc/arm-none-eabi/8.5.0/../../../../../../arm-none-eabi/lib/thumb/v6-m/nofp/libg_nano.a(lib_a-wsetup.o)
 .bss           0x00000000        0x0 /opt/homebrew/Cellar/arm-none-eabi-gcc@8/8.5.0_2/lib/arm-none-eabi-gcc/8/gcc/arm-none-eabi/8.5.0/../../../../../../arm-none-eabi/lib/thumb/v6-m/nofp/libg_nano.a(lib_a-wsetup.o)
 .data          0x00000000        0x0 /opt/homebrew/Cellar/arm-none-eabi-gcc@8/8.5.0_2/lib/arm-none-eabi-gcc/8/gcc/arm-none-eabi/8.5.0/../../../../../../arm-none-eabi/lib/thumb/v6-m/nofp/libg_nano.a(lib_a-abort.o)
 .bss           0x00000000        0x0 /opt/homebrew/Cellar/arm-none-eabi-gcc@8/8.5.0_2/lib/arm-none-eabi-gcc/8/gcc/arm-none-eabi/8.5.0/../../../../../../arm-none-eabi/lib/thumb/v6-m/nofp/libg_nano.a(lib_a-abort.o)
 .data          0x00000000        0x0 /opt/homebrew/Cellar/arm-none-eabi-gcc@8/8.5.0_2/lib/arm-none-eabi-gcc/8/gcc/arm-none-eabi/8.5.0/../../../../../../arm-none-eabi/lib/thumb/v6-m/nofp/libg_nano.a(lib_a-fflush.o)
 .bss           0x00000000        0x0 /opt/homebrew/Cellar/arm-none-eabi-gcc@8/8.5.0_2/lib/arm-none-eabi-gcc/8/gcc/arm-none-eabi/8.5.0/../../../../../../arm-none-eabi/lib/thumb/v6-m/nofp/libg_nano.a(lib_a-fflush.o)
 .data          0x00000000        0x0 /opt/homebrew/Cellar/arm-none-eabi-gcc@8/8.5.0_2/lib/arm-none-eabi-gcc/8/gcc/arm-none-eabi/8.5.0/../../../../../../arm-none-eabi/lib/thumb/v6-m/nofp/libg_nano.a(lib_a-findfp.o)
 .bss           0x00000000        0x0 /opt/homebrew/Cellar/arm-none-eabi-gcc@8/8.5.0_2/lib/arm-none-eabi-gcc/8/gcc/arm-none-eabi/8.5.0/../../../../../../arm-none-eabi/lib/thumb/v6-m/nofp/libg_nano.a(lib_a-findfp.o)
 .data          0x00000000        0x0 /opt/homebrew/Cellar/arm-none-eabi-gcc@8/8.5.0_2/lib/arm-none-eabi-gcc/8/gcc/arm-none-eabi/8.5.0/../../../../../../arm-none-eabi/lib/thumb/v6-m/nofp/libg_nano.a(lib_a-fvwrite.o)
 .bss           0x00000000        0x0 /opt/homebrew/Cellar/arm-none-eabi-gcc@8/8.5.0_2/lib/arm-none-eabi-gcc/8/gcc/arm-none-eabi/8.5.0/../../../../../../arm-none-eabi/lib/thumb/v6-m/nofp/libg_nano.a(lib_a-fvwrite.o)
 .data          0x00000000        0x0 /opt/homebrew/Cellar/arm-none-eabi-gcc@8/8.5.0_2/lib/arm-none-eabi-gcc/8/gcc/arm-none-eabi/8.5.0/../../../../../../arm-none-eabi/lib/thumb/v6-m/nofp/libg_nano.a(lib_a-fwalk.o)
 .bss           0x00000000        0x0 /opt/homebrew/Cellar/arm-none-eabi-gcc@8/8.5.0_2/lib/arm-none-eabi-gcc/8/gcc/arm-none-eabi/8.5.0/../../../../../../arm-none-eabi/lib/thumb/v6-m/nofp/libg_nano.a(lib_a-fwalk.o)
 .data          0x00000000        0x0 /opt/homebrew/Cellar/arm-none-eabi-gcc@8/8.5.0_2/lib/arm-none-eabi-gcc/8/gcc/arm-none-eabi/8.5.0/../../../../../../arm-none-eabi/lib/thumb/v6-m/nofp/libg_nano.a(lib_a-lock.o)
 .bss           0x00000000        0x0 /opt/homebrew/Cellar/arm-none-eabi-gcc@8/8.5.0_2/lib/arm-none-eabi-gcc/8/gcc/arm-none-eabi/8.5.0/../../../../../../arm-none-eabi/lib/thumb/v6-m/nofp/libg_nano.a(lib_a-lock.o)
 .data          0x00000000        0x0 /opt/homebrew/Cellar/arm-none-eabi-gcc@8/8.5.0_2/lib/arm-none-eabi-gcc/8/gcc/arm-none-eabi/8.5.0/../../../../../../arm-none-eabi/lib/thumb/v6-m/nofp/libg_nano.a(lib_a-makebuf.o)
 .bss           0x00000000        0x0 /opt/homebrew/Cellar/arm-none-eabi-gcc@8/8.5.0_2/lib/arm-none-eabi-gcc/8/gcc/arm-none-eabi/8.5.0/../../../../../../arm-none-eabi/lib/thumb/v6-m/nofp/libg_nano.a(lib_a-makebuf.o)
 .data          0x00000000        0x0 /opt/homebrew/Cellar/arm-none-eabi-gcc@8/8.5.0_2/lib/arm-none-eabi-gcc/8/gcc/arm-none-eabi/8.5.0/../../../../../../arm-none-eabi/lib/thumb/v6-m/nofp/libg_nano.a(lib_a-memchr-stub.o)
 .bss           0x00000000        0x0 /opt/homebrew/Cellar/arm-none-eabi-gcc@8/8.5.0_2/lib/arm-none-eabi-gcc/8/gcc/arm-none-eabi/8.5.0/../../../../../../arm-none-eabi/lib/thumb/v6-m/nofp/libg_nano.a(lib_a-memchr-stub.o)
 .data          0x00000000        0x0 /opt/homebrew/Cellar/arm-none-eabi-gcc@8/8.5.0_2/lib/arm-none-eabi-gcc/8/gcc/arm-none-eabi/8.5.0/../../../../../../arm-none-eabi/lib/thumb/v6-m/nofp/libg_nano.a(lib_a-memmove.o)
 .bss           0x00000000        0x0 /opt/homebrew/Cellar/arm-none-eabi-gcc@8/8.5.0_2/lib/arm-none-eabi-gcc/8/gcc/arm-none-eabi/8.5.0/../../../../../../arm-none-eabi/lib/thumb/v6-m/nofp/libg_nano.a(lib_a-memmove.o)
 .data          0x00000000        0x0 /opt/homebrew/Cellar/arm-none-eabi-gcc@8/8.5.0_2/lib/arm-none-eabi-gcc/8/gcc/arm-none-eabi/8.5.0/../../../../../../arm-none-eabi/lib/thumb/v6-m/nofp/libg_nano.a(lib_a-memset.o)
 .bss           0x00000000        0x0 /opt/homebrew/Cellar/arm-none-eabi-gcc@8/8.5.0_2/lib/arm-none-eabi-gcc/8/gcc/arm-none-eabi/8.5.0/../../../../../../arm-none-eabi/lib/thumb/v6-m/nofp/libg_nano.a(lib_a-memset.o)
 .data          0x00000000        0x0 /opt/homebrew/Cellar/arm-none-eabi-gcc@8/8.5.0_2/lib/arm-none-eabi-gcc/8/gcc/arm-none-eabi/8.5.0/../../../../../../arm-none-eabi/lib/thumb/v6-m/nofp/libg_nano.a(lib_a-mlock.o)
 .bss           0x00000000        0x0 /opt/homebrew/Cellar/arm-none-eabi-gcc@8/8.5.0_2/lib/arm-none-eabi-gcc/8/gcc/arm-none-eabi/8.5.0/../../../../../../arm-none-eabi/lib/thumb/v6-m/nofp/libg_nano.a(lib_a-mlock.o)
 .data          0x00000000        0x0 /opt/homebrew/Cellar/arm-none-eabi-gcc@8/8.5.0_2/lib/arm-none-eabi-gcc/8/gcc/arm-none-eabi/8.5.0/../../../../../../arm-none-eabi/lib/thumb/v6-m/nofp/libg_nano.a(lib_a-nano-reallocr.o)
 .bss           0x00000000        0x0 /opt/homebrew/Cellar/arm-none-eabi-gcc@8/8.5.0_2/lib/arm-none-eabi-gcc/8/gcc/arm-none-eabi/8.5.0/../../../../../../arm-none-eabi/lib/thumb/v6-m/nofp/libg_nano.a(lib_a-nano-reallocr.o)
 .data          0x00000000        0x0 /opt/homebrew/Cellar/arm-none-eabi-gcc@8/8.5.0_2/lib/arm-none-eabi-gcc/8/gcc/arm-none-eabi/8.5.0/../../../../../../arm-none-eabi/lib/thumb/v6-m/nofp/libg_nano.a(lib_a-signal.o)
 .bss           0x00000000        0x0 /opt/homebrew/Cellar/arm-none-eabi-gcc@8/8.5.0_2/lib/arm-none-eabi-gcc/8/gcc/arm-none-eabi/8.5.0/../../../../../../arm-none-eabi/lib/thumb/v6-m/nofp/libg_nano.a(lib_a-signal.o)
 .data          0x00000000        0x0 /opt/homebrew/Cellar/arm-none-eabi-gcc@8/8.5.0_2/lib/arm-none-eabi-gcc/8/gcc/arm-none-eabi/8.5.0/../../../../../../arm-none-eabi/lib/thumb/v6-m/nofp/libg_nano.a(lib_a-signalr.o)
 .bss           0x00000000        0x0 /opt/homebrew/Cellar/arm-none-eabi-gcc@8/8.5.0_2/lib/arm-none-eabi-gcc/8/gcc/arm-none-eabi/8.5.0/../../../../../../arm-none-eabi/lib/thumb/v6-m/nofp/libg_nano.a(lib_a-signalr.o)
 .data          0x00000000        0x0 /opt/homebrew/Cellar/arm-none-eabi-gcc@8/8.5.0_2/lib/arm-none-eabi-gcc/8/gcc/arm-none-eabi/8.5.0/../../../../../../arm-none-eabi/lib/thumb/v6-m/nofp/libg_nano.a(lib_a-stdio.o)
 .bss           0x00000000        0x0 /opt/homebrew/Cellar/arm-none-eabi-gcc@8/8.5.0_2/lib/arm-none-eabi-gcc/8/gcc/arm-none-eabi/8.5.0/../../../../../../arm-none-eabi/lib/thumb/v6-m/nofp/libg_nano.a(lib_a-stdio.o)
 .data          0x00000000        0x0 /opt/homebrew/Cellar/arm-none-eabi-gcc@8/8.5.0_2/lib/arm-none-eabi-gcc/8/gcc/arm-none-eabi/8.5.0/../../../../../../arm-none-eabi/lib/thumb/v6-m/nofp/libg_nano.a(lib_a-nano-msizer.o)
 .bss           0x00000000        0x0 /opt/homebrew/Cellar/arm-none-eabi-gcc@8/8.5.0_2/lib/arm-none-eabi-gcc/8/gcc/arm-none-eabi/8.5.0/../../../../../../arm-none-eabi/lib/thumb/v6-m/nofp/libg_nano.a(lib_a-nano-msizer.o)
 .text          0x00000000       0xf8 /opt/homebrew/Cellar/arm-none-eabi-gcc@8/8.5.0_2/lib/arm-none-eabi-gcc/8/gcc/arm-none-eabi/8.5.0/../../../../../../arm-none-eabi/lib/thumb/v6-m/nofp/libg_nano.a(lib_a-reent.o)
 .data          0x00000000        0x0 /opt/homebrew/Cellar/arm-none-eabi-gcc@8/8.5.0_2/lib/arm-none-eabi-gcc/8/gcc/arm-none-eabi/8.5.0/../../../../../../arm-none-eabi/lib/thumb/v6-m/nofp/libg_nano.a(lib_a-reent.o)
 .bss           0x00000000        0x0 /opt/homebrew/Cellar/arm-none-eabi-gcc@8/8.5.0_2/lib/arm-none-eabi-gcc/8/gcc/arm-none-eabi/8.5.0/../../../../../../arm-none-eabi/lib/thumb/v6-m/nofp/libg_nano.a(lib_a-reent.o)
 .data          0x00000000        0x0 /opt/homebrew/Cellar/arm-none-eabi-gcc@8/8.5.0_2/lib/arm-none-eabi-gcc/8/gcc/arm-none-eabi/8.5.0/../../../../../../arm-none-eabi/lib/thumb/v6-m/nofp/libg_nano.a(lib_a-memcmp.o)
 .bss           0x00000000        0x0 /opt/homebrew/Cellar/arm-none-eabi-gcc@8/8.5.0_2/lib/arm-none-eabi-gcc/8/gcc/arm-none-eabi/8.5.0/../../../../../../arm-none-eabi/lib/thumb/v6-m/nofp/libg_nano.a(lib_a-memcmp.o)
 .data          0x00000000        0x0 /opt/homebrew/Cellar/arm-none-eabi-gcc@8/8.5.0_2/lib/arm-none-eabi-gcc/8/gcc/arm-none-eabi/8.5.0/../../../../../../arm-none-eabi/lib/thumb/v6-m/nofp/libg_nano.a(lib_a-strlen-stub.o)
 .bss           0x00000000        0x0 /opt/homebrew/Cellar/arm-none-eabi-gcc@8/8.5.0_2/lib/arm-none-eabi-gcc/8/gcc/arm-none-eabi/8.5.0/../../../../../../arm-none-eabi/lib/thumb/v6-m/nofp/libg_nano.a(lib_a-strlen-stub.o)

Memory Configuration

Name             Origin             Length             Attributes
flash0           0x00000000         0x00004000         xr
flash1           0x10000000         0x00200000         xr
flash2           0x00000000         0x00000000         xr
flash3           0x00000000         0x00000000         xr
flash4           0x00000000         0x00000000         xr
flash5           0x00000000         0x00000000         xr
flash6           0x00000000         0x00000000         xr
flash7           0x00000000         0x00000000         xr
ram0             0x20000000         0x00040000         xw
ram1             0x00000000         0x00040000         xw
ram2             0x00000000         0x00000000         xw
ram3             0x00000000         0x00000000         xw
ram4             0x20040000         0x00001000         xw
ram5             0x20041000         0x00001000         xw
ram6             0x00000000         0x00000000         xw
ram7             0x20041f00         0x00000100         xw
*default*        0x00000000         0xffffffff

Linker script and memory map

LOAD .build/obj_crkbd_rev1_tensotha_helios/keyboards/crkbd/crkbd.o
LOAD /var/folders/01/r6qc96lx1x7c0h1529l70j5m0000gn/T//ccZ3h3t9debugobj
LOAD /var/folders/01/r6qc96lx1x7c0h1529l70j5m0000gn/T//ccqg8YyW.ltrans0.ltrans.o
LOAD .build/obj_crkbd_rev1_tensotha_helios/.build/obj_crkbd_rev1_tensotha_helios/src/default_keyboard.o
LOAD .build/obj_crkbd_rev1_tensotha_helios/quantum/keymap_introspection.o
LOAD .build/obj_crkbd_rev1_tensotha_helios/quantum/quantum.o
LOAD .build/obj_crkbd_rev1_tensotha_helios/quantum/bitwise.o
LOAD .build/obj_crkbd_rev1_tensotha_helios/quantum/led.o
LOAD .build/obj_crkbd_rev1_tensotha_helios/quantum/action.o
LOAD .build/obj_crkbd_rev1_tensotha_helios/quantum/action_layer.o
LOAD .build/obj_crkbd_rev1_tensotha_helios/quantum/action_tapping.o
LOAD .build/obj_crkbd_rev1_tensotha_helios/quantum/action_util.o
LOAD .build/obj_crkbd_rev1_tensotha_helios/quantum/eeconfig.o
LOAD .build/obj_crkbd_rev1_tensotha_helios/quantum/keyboard.o
LOAD .build/obj_crkbd_rev1_tensotha_helios/quantum/keymap_common.o
LOAD .build/obj_crkbd_rev1_tensotha_helios/quantum/keycode_config.o
LOAD .build/obj_crkbd_rev1_tensotha_helios/quantum/sync_timer.o
LOAD .build/obj_crkbd_rev1_tensotha_helios/quantum/logging/debug.o
LOAD .build/obj_crkbd_rev1_tensotha_helios/quantum/logging/sendchar.o
LOAD .build/obj_crkbd_rev1_tensotha_helios/quantum/logging/print.o
LOAD .build/obj_crkbd_rev1_tensotha_helios/quantum/matrix_common.o
LOAD .build/obj_crkbd_rev1_tensotha_helios/quantum/matrix.o
LOAD .build/obj_crkbd_rev1_tensotha_helios/quantum/debounce/sym_defer_g.o
LOAD .build/obj_crkbd_rev1_tensotha_helios/quantum/split_common/split_util.o
LOAD .build/obj_crkbd_rev1_tensotha_helios/quantum/split_common/transport.o
LOAD .build/obj_crkbd_rev1_tensotha_helios/quantum/split_common/transactions.o
LOAD .build/obj_crkbd_rev1_tensotha_helios/quantum/main.o
LOAD .build/obj_crkbd_rev1_tensotha_helios/printf.o
LOAD .build/obj_crkbd_rev1_tensotha_helios/eeprom_driver.o
LOAD .build/obj_crkbd_rev1_tensotha_helios/eeprom_wear_leveling.o
LOAD .build/obj_crkbd_rev1_tensotha_helios/wear_leveling.o
LOAD .build/obj_crkbd_rev1_tensotha_helios/wear_leveling_rp2040_flash.o
LOAD .build/obj_crkbd_rev1_tensotha_helios/quantum/color.o
LOAD .build/obj_crkbd_rev1_tensotha_helios/quantum/rgblight/rgblight.o
LOAD .build/obj_crkbd_rev1_tensotha_helios/quantum/rgblight/rgblight_drivers.o
LOAD .build/obj_crkbd_rev1_tensotha_helios/quantum/process_keycode/process_rgb.o
LOAD .build/obj_crkbd_rev1_tensotha_helios/quantum/led_tables.o
LOAD .build/obj_crkbd_rev1_tensotha_helios/qmk_fnv_type_validation.o
LOAD .build/obj_crkbd_rev1_tensotha_helios/hash_32a.o
LOAD .build/obj_crkbd_rev1_tensotha_helios/hash_64a.o
LOAD .build/obj_crkbd_rev1_tensotha_helios/oled_driver.o
LOAD .build/obj_crkbd_rev1_tensotha_helios/ws2812_vendor.o
LOAD .build/obj_crkbd_rev1_tensotha_helios/quantum/bootmagic/bootmagic.o
LOAD .build/obj_crkbd_rev1_tensotha_helios/quantum/crc.o
LOAD .build/obj_crkbd_rev1_tensotha_helios/quantum/process_keycode/process_grave_esc.o
LOAD .build/obj_crkbd_rev1_tensotha_helios/quantum/process_keycode/process_magic.o
LOAD .build/obj_crkbd_rev1_tensotha_helios/quantum/mousekey.o
LOAD .build/obj_crkbd_rev1_tensotha_helios/quantum/send_string/send_string.o
LOAD .build/obj_crkbd_rev1_tensotha_helios/quantum/process_keycode/process_space_cadet.o
LOAD .build/obj_crkbd_rev1_tensotha_helios/protocol/host.o
LOAD .build/obj_crkbd_rev1_tensotha_helios/protocol/report.o
LOAD .build/obj_crkbd_rev1_tensotha_helios/protocol/usb_device_state.o
LOAD .build/obj_crkbd_rev1_tensotha_helios/protocol/usb_util.o
LOAD .build/obj_crkbd_rev1_tensotha_helios/platforms/suspend.o
LOAD .build/obj_crkbd_rev1_tensotha_helios/platforms/synchronization_util.o
LOAD .build/obj_crkbd_rev1_tensotha_helios/platforms/timer.o
LOAD .build/obj_crkbd_rev1_tensotha_helios/platforms/chibios/hardware_id.o
LOAD .build/obj_crkbd_rev1_tensotha_helios/platforms/chibios/platform.o
LOAD .build/obj_crkbd_rev1_tensotha_helios/platforms/chibios/suspend.o
LOAD .build/obj_crkbd_rev1_tensotha_helios/platforms/chibios/timer.o
LOAD .build/obj_crkbd_rev1_tensotha_helios/platforms/chibios/bootloaders/rp2040.o
LOAD .build/obj_crkbd_rev1_tensotha_helios/serial_protocol.a
LOAD .build/obj_crkbd_rev1_tensotha_helios/serial_vendor.a
LOAD .build/obj_crkbd_rev1_tensotha_helios/i2c_master.a
LOAD .build/obj_crkbd_rev1_tensotha_helios/./lib/chibios/os/common/startup/ARMCMx/compilers/GCC/crt0_v6m.o
LOAD .build/obj_crkbd_rev1_tensotha_helios/./lib/chibios/os/common/startup/ARMCMx/compilers/GCC/vectors.o
LOAD .build/obj_crkbd_rev1_tensotha_helios/./lib/chibios/os/common/ports/ARMv6-M-RP2/compilers/GCC/chcoreasm.o
LOAD .build/obj_crkbd_rev1_tensotha_helios/protocol/chibios/usb_main.o
LOAD .build/obj_crkbd_rev1_tensotha_helios/protocol/chibios/chibios.o
LOAD .build/obj_crkbd_rev1_tensotha_helios/usb_descriptor.o
LOAD .build/obj_crkbd_rev1_tensotha_helios/protocol/chibios/usb_driver.o
LOAD .build/obj_crkbd_rev1_tensotha_helios/protocol/chibios/usb_endpoints.o
LOAD .build/obj_crkbd_rev1_tensotha_helios/protocol/chibios/usb_report_handling.o
LOAD .build/obj_crkbd_rev1_tensotha_helios/protocol/chibios/usb_util.o
LOAD .build/obj_crkbd_rev1_tensotha_helios/lib/chibios/os/common/startup/ARMCMx/compilers/GCC/crt1.o
LOAD .build/obj_crkbd_rev1_tensotha_helios/lib/chibios/os/rt/src/chsys.o
LOAD .build/obj_crkbd_rev1_tensotha_helios/lib/chibios/os/rt/src/chrfcu.o
LOAD .build/obj_crkbd_rev1_tensotha_helios/lib/chibios/os/rt/src/chdebug.o
LOAD .build/obj_crkbd_rev1_tensotha_helios/lib/chibios/os/rt/src/chtrace.o
LOAD .build/obj_crkbd_rev1_tensotha_helios/lib/chibios/os/rt/src/chvt.o
LOAD .build/obj_crkbd_rev1_tensotha_helios/lib/chibios/os/rt/src/chschd.o
LOAD .build/obj_crkbd_rev1_tensotha_helios/lib/chibios/os/rt/src/chinstances.o
LOAD .build/obj_crkbd_rev1_tensotha_helios/lib/chibios/os/rt/src/chthreads.o
LOAD .build/obj_crkbd_rev1_tensotha_helios/lib/chibios/os/rt/src/chtm.o
LOAD .build/obj_crkbd_rev1_tensotha_helios/lib/chibios/os/rt/src/chstats.o
LOAD .build/obj_crkbd_rev1_tensotha_helios/lib/chibios/os/rt/src/chregistry.o
LOAD .build/obj_crkbd_rev1_tensotha_helios/lib/chibios/os/rt/src/chsem.o
LOAD .build/obj_crkbd_rev1_tensotha_helios/lib/chibios/os/rt/src/chmtx.o
LOAD .build/obj_crkbd_rev1_tensotha_helios/lib/chibios/os/rt/src/chcond.o
LOAD .build/obj_crkbd_rev1_tensotha_helios/lib/chibios/os/rt/src/chevents.o
LOAD .build/obj_crkbd_rev1_tensotha_helios/lib/chibios/os/rt/src/chmsg.o
LOAD .build/obj_crkbd_rev1_tensotha_helios/lib/chibios/os/rt/src/chdynamic.o
LOAD .build/obj_crkbd_rev1_tensotha_helios/lib/chibios/os/common/ports/ARMv6-M-RP2/chcore.o
LOAD .build/obj_crkbd_rev1_tensotha_helios/lib/chibios/os/hal/osal/rt-nil/osal.o
LOAD .build/obj_crkbd_rev1_tensotha_helios/lib/chibios/os/oslib/src/chmboxes.o
LOAD .build/obj_crkbd_rev1_tensotha_helios/lib/chibios/os/oslib/src/chmemcore.o
LOAD .build/obj_crkbd_rev1_tensotha_helios/lib/chibios/os/oslib/src/chmemheaps.o
LOAD .build/obj_crkbd_rev1_tensotha_helios/lib/chibios/os/oslib/src/chmempools.o
LOAD .build/obj_crkbd_rev1_tensotha_helios/lib/chibios/os/oslib/src/chpipes.o
LOAD .build/obj_crkbd_rev1_tensotha_helios/lib/chibios/os/oslib/src/chobjcaches.o
LOAD .build/obj_crkbd_rev1_tensotha_helios/lib/chibios/os/oslib/src/chdelegates.o
LOAD .build/obj_crkbd_rev1_tensotha_helios/lib/chibios/os/oslib/src/chfactory.o
LOAD .build/obj_crkbd_rev1_tensotha_helios/lib/chibios/os/hal/src/hal.o
LOAD .build/obj_crkbd_rev1_tensotha_helios/lib/chibios/os/hal/src/hal_st.o
LOAD .build/obj_crkbd_rev1_tensotha_helios/lib/chibios/os/hal/src/hal_buffers.o
LOAD .build/obj_crkbd_rev1_tensotha_helios/lib/chibios/os/hal/src/hal_queues.o
LOAD .build/obj_crkbd_rev1_tensotha_helios/lib/chibios/os/hal/src/hal_flash.o
LOAD .build/obj_crkbd_rev1_tensotha_helios/lib/chibios/os/hal/src/hal_mmcsd.o
LOAD .build/obj_crkbd_rev1_tensotha_helios/lib/chibios/os/hal/src/hal_adc.o
LOAD .build/obj_crkbd_rev1_tensotha_helios/lib/chibios/os/hal/src/hal_can.o
LOAD .build/obj_crkbd_rev1_tensotha_helios/lib/chibios/os/hal/src/hal_crypto.o
LOAD .build/obj_crkbd_rev1_tensotha_helios/lib/chibios/os/hal/src/hal_dac.o
LOAD .build/obj_crkbd_rev1_tensotha_helios/lib/chibios/os/hal/src/hal_efl.o
LOAD .build/obj_crkbd_rev1_tensotha_helios/lib/chibios/os/hal/src/hal_gpt.o
LOAD .build/obj_crkbd_rev1_tensotha_helios/lib/chibios/os/hal/src/hal_i2c.o
LOAD .build/obj_crkbd_rev1_tensotha_helios/lib/chibios/os/hal/src/hal_i2s.o
LOAD .build/obj_crkbd_rev1_tensotha_helios/lib/chibios/os/hal/src/hal_icu.o
LOAD .build/obj_crkbd_rev1_tensotha_helios/lib/chibios/os/hal/src/hal_mac.o
LOAD .build/obj_crkbd_rev1_tensotha_helios/lib/chibios/os/hal/src/hal_mmc_spi.o
LOAD .build/obj_crkbd_rev1_tensotha_helios/lib/chibios/os/hal/src/hal_pal.o
LOAD .build/obj_crkbd_rev1_tensotha_helios/lib/chibios/os/hal/src/hal_pwm.o
LOAD .build/obj_crkbd_rev1_tensotha_helios/lib/chibios/os/hal/src/hal_rtc.o
LOAD .build/obj_crkbd_rev1_tensotha_helios/lib/chibios/os/hal/src/hal_sdc.o
LOAD .build/obj_crkbd_rev1_tensotha_helios/lib/chibios/os/hal/src/hal_serial.o
LOAD .build/obj_crkbd_rev1_tensotha_helios/lib/chibios/os/hal/src/hal_serial_usb.o
LOAD .build/obj_crkbd_rev1_tensotha_helios/lib/chibios/os/hal/src/hal_sio.o
LOAD .build/obj_crkbd_rev1_tensotha_helios/lib/chibios/os/hal/src/hal_spi.o
LOAD .build/obj_crkbd_rev1_tensotha_helios/lib/chibios/os/hal/src/hal_trng.o
LOAD .build/obj_crkbd_rev1_tensotha_helios/lib/chibios/os/hal/src/hal_uart.o
LOAD .build/obj_crkbd_rev1_tensotha_helios/lib/chibios/os/hal/src/hal_usb.o
LOAD .build/obj_crkbd_rev1_tensotha_helios/lib/chibios/os/hal/src/hal_wdg.o
LOAD .build/obj_crkbd_rev1_tensotha_helios/lib/chibios/os/hal/src/hal_wspi.o
LOAD .build/obj_crkbd_rev1_tensotha_helios/lib/chibios/os/hal/ports/common/ARMCMx/nvic.o
LOAD .build/obj_crkbd_rev1_tensotha_helios/lib/chibios/os/hal/ports/RP/RP2040/rp_isr.o
LOAD .build/obj_crkbd_rev1_tensotha_helios/lib/chibios/os/hal/ports/RP/RP2040/hal_lld.o
LOAD .build/obj_crkbd_rev1_tensotha_helios/lib/chibios/os/hal/ports/RP/LLD/DMAv1/rp_dma.o
LOAD .build/obj_crkbd_rev1_tensotha_helios/lib/chibios/os/hal/ports/RP/LLD/GPIOv1/hal_pal_lld.o
LOAD .build/obj_crkbd_rev1_tensotha_helios/lib/chibios/os/hal/ports/RP/LLD/SPIv1/hal_spi_lld.o
LOAD .build/obj_crkbd_rev1_tensotha_helios/lib/chibios/os/hal/ports/RP/LLD/TIMERv1/hal_st_lld.o
LOAD .build/obj_crkbd_rev1_tensotha_helios/lib/chibios/os/hal/ports/RP/LLD/UARTv1/hal_sio_lld.o
LOAD .build/obj_crkbd_rev1_tensotha_helios/lib/chibios/os/hal/ports/RP/LLD/RTCv1/hal_rtc_lld.o
LOAD .build/obj_crkbd_rev1_tensotha_helios/lib/chibios/os/hal/ports/RP/LLD/WDGv1/hal_wdg_lld.o
LOAD .build/obj_crkbd_rev1_tensotha_helios/lib/chibios-contrib/os/hal/ports/RP/LLD/I2Cv1/hal_i2c_lld.o
LOAD .build/obj_crkbd_rev1_tensotha_helios/lib/chibios-contrib/os/hal/ports/RP/LLD/PWMv1/hal_pwm_lld.o
LOAD .build/obj_crkbd_rev1_tensotha_helios/lib/chibios-contrib/os/hal/ports/RP/LLD/ADCv1/hal_adc_lld.o
LOAD .build/obj_crkbd_rev1_tensotha_helios/lib/chibios-contrib/os/hal/ports/RP/LLD/USBDv1/hal_usb_lld.o
LOAD .build/obj_crkbd_rev1_tensotha_helios/lib/chibios/os/hal/boards/RP_PICO_RP2040/board.o
LOAD .build/obj_crkbd_rev1_tensotha_helios/lib/chibios/os/hal/lib/streams/chprintf.o
LOAD .build/obj_crkbd_rev1_tensotha_helios/lib/chibios/os/hal/lib/streams/chscanf.o
LOAD .build/obj_crkbd_rev1_tensotha_helios/lib/chibios/os/hal/lib/streams/memstreams.o
LOAD .build/obj_crkbd_rev1_tensotha_helios/lib/chibios/os/hal/lib/streams/nullstreams.o
LOAD .build/obj_crkbd_rev1_tensotha_helios/lib/chibios/os/hal/lib/streams/bufstreams.o
LOAD .build/obj_crkbd_rev1_tensotha_helios/lib/chibios/os/various/syscalls.o
LOAD .build/obj_crkbd_rev1_tensotha_helios/platforms/chibios/syscall-fallbacks.o
LOAD .build/obj_crkbd_rev1_tensotha_helios/platforms/chibios/wait.o
LOAD .build/obj_crkbd_rev1_tensotha_helios/platforms/chibios/synchronization_util.o
LOAD .build/obj_crkbd_rev1_tensotha_helios/platforms/chibios/interrupt_handlers.o
LOAD .build/obj_crkbd_rev1_tensotha_helios/./lib/pico-sdk/src/rp2_common/hardware_clocks/clocks.o
LOAD .build/obj_crkbd_rev1_tensotha_helios/./lib/pico-sdk/src/rp2_common/hardware_pll/pll.o
LOAD .build/obj_crkbd_rev1_tensotha_helios/./lib/pico-sdk/src/rp2_common/hardware_pio/pio.o
LOAD .build/obj_crkbd_rev1_tensotha_helios/./lib/pico-sdk/src/rp2_common/hardware_timer/timer.o
LOAD .build/obj_crkbd_rev1_tensotha_helios/./lib/pico-sdk/src/rp2_common/hardware_flash/flash.o
LOAD .build/obj_crkbd_rev1_tensotha_helios/./lib/pico-sdk/src/rp2_common/hardware_gpio/gpio.o
LOAD .build/obj_crkbd_rev1_tensotha_helios/./lib/pico-sdk/src/rp2_common/hardware_claim/claim.o
LOAD .build/obj_crkbd_rev1_tensotha_helios/./lib/pico-sdk/src/rp2_common/hardware_watchdog/watchdog.o
LOAD .build/obj_crkbd_rev1_tensotha_helios/./lib/pico-sdk/src/rp2_common/hardware_xosc/xosc.o
LOAD .build/obj_crkbd_rev1_tensotha_helios/./lib/pico-sdk/src/rp2_common/pico_bootrom/bootrom.o
LOAD .build/obj_crkbd_rev1_tensotha_helios/platforms/chibios/vendors/RP/stage2_bootloaders.o
LOAD .build/obj_crkbd_rev1_tensotha_helios/platforms/chibios/vendors/RP/pico_sdk_shims.o
LOAD .build/obj_crkbd_rev1_tensotha_helios/./lib/pico-sdk/src/rp2_common/pico_divider/divider.o
LOAD .build/obj_crkbd_rev1_tensotha_helios/./lib/pico-sdk/src/rp2_common/pico_int64_ops/pico_int64_ops_aeabi.o
                0x00000800                        __process_stack_size__ = 0x800
                0x00000400                        __main_stack_size__ = 0x400
LOAD /opt/homebrew/Cellar/arm-none-eabi-gcc@8/8.5.0_2/lib/arm-none-eabi-gcc/8/gcc/arm-none-eabi/8.5.0/../../../../../../arm-none-eabi/lib/thumb/v6-m/nofp/libm.a
START GROUP
LOAD /opt/homebrew/Cellar/arm-none-eabi-gcc@8/8.5.0_2/lib/arm-none-eabi-gcc/8/gcc/arm-none-eabi/8.5.0/thumb/v6-m/nofp/libgcc.a
LOAD /opt/homebrew/Cellar/arm-none-eabi-gcc@8/8.5.0_2/lib/arm-none-eabi-gcc/8/gcc/arm-none-eabi/8.5.0/../../../../../../arm-none-eabi/lib/thumb/v6-m/nofp/libg_nano.a
LOAD /opt/homebrew/Cellar/arm-none-eabi-gcc@8/8.5.0_2/lib/arm-none-eabi-gcc/8/gcc/arm-none-eabi/8.5.0/../../../../../../arm-none-eabi/lib/thumb/v6-m/nofp/libc_nano.a
END GROUP
START GROUP
LOAD /opt/homebrew/Cellar/arm-none-eabi-gcc@8/8.5.0_2/lib/arm-none-eabi-gcc/8/gcc/arm-none-eabi/8.5.0/thumb/v6-m/nofp/libgcc.a
LOAD /opt/homebrew/Cellar/arm-none-eabi-gcc@8/8.5.0_2/lib/arm-none-eabi-gcc/8/gcc/arm-none-eabi/8.5.0/../../../../../../arm-none-eabi/lib/thumb/v6-m/nofp/libc_nano.a
END GROUP

.flash_begin    0x10000000        0x0
                0x10000000                        __flash_binary_start = .

.boot2          0x10000000      0x100
                0x10000000                        __boot2_start__ = .
 *(.boot2)
 .boot2         0x10000000      0x100 /var/folders/01/r6qc96lx1x7c0h1529l70j5m0000gn/T//ccqg8YyW.ltrans0.ltrans.o
                0x10000000                BOOT2_ROM
                0x10000100                        __boot2_end__ = .

.mstack         0x20040000      0x400
                0x20040000                        . = ALIGN (0x8)
                0x20040000                        __main_stack_base__ = .
                0x20040400                        . = (. + __main_stack_size__)
 *fill*         0x20040000      0x400 
                0x20040400                        . = ALIGN (0x8)
                0x20040400                        __main_stack_end__ = .

.pstack         0x20040400      0x800
                0x20040400                        . = ALIGN (0x8)
                0x20040400                        __process_stack_base__ = .
                0x20040400                        __main_thread_stack_base__ = .
                0x20040c00                        . = (. + __process_stack_size__)
 *fill*         0x20040400      0x800 
                0x20040c00                        . = ALIGN (0x8)
                0x20040c00                        __process_stack_end__ = .
                0x20040c00                        __main_thread_stack_end__ = .
                0x00000400                        __c1_main_stack_size__ = __main_stack_size__
                0x00000800                        __c1_process_stack_size__ = __process_stack_size__

.c1_mstack      0x20041000      0x400
                0x20041000                        . = ALIGN (0x8)
                0x20041000                        __c1_main_stack_base__ = .
                0x20041400                        . = (. + __c1_main_stack_size__)
 *fill*         0x20041000      0x400 
                0x20041400                        . = ALIGN (0x8)
                0x20041400                        __c1_main_stack_end__ = .

.c1_pstack      0x20041400      0x800
                0x20041400                        . = ALIGN (0x8)
                0x20041400                        __c1_process_stack_base__ = .
                0x20041400                        __c1_main_thread_stack_base__ = .
                0x20041c00                        . = (. + __c1_process_stack_size__)
 *fill*         0x20041400      0x800 
                0x20041c00                        . = ALIGN (0x8)
                0x20041c00                        __c1_process_stack_end__ = .
                0x20041c00                        __c1_main_thread_stack_end__ = .

.vectors        0x10000100       0xc0
                0x10000100                        __textvectors_base__ = LOADADDR (.vectors)
                0x10000100                        __vectors_base__ = .
 *(.vectors)
 .vectors       0x10000100       0xc0 .build/obj_crkbd_rev1_tensotha_helios/./lib/chibios/os/common/startup/ARMCMx/compilers/GCC/vectors.o
                0x10000100                _vectors
                0x100001c0                        __vectors_end__ = .

.xtors          0x100001c0        0x0
                0x100001c0                        __init_array_base__ = .
 *(SORT_BY_NAME(.init_array.*))
 *(.init_array)
                0x100001c0                        __init_array_end__ = .
                0x100001c0                        __fini_array_base__ = .
 *(.fini_array)
 *(SORT_BY_NAME(.fini_array.*))
                0x100001c0                        __fini_array_end__ = .

.text           0x100001c0     0xa7f0
                0x100001c0                        __text_base__ = .
 *(.text)
 .text          0x100001c0      0x104 .build/obj_crkbd_rev1_tensotha_helios/./lib/chibios/os/common/startup/ARMCMx/compilers/GCC/crt0_v6m.o
                0x100001c0                _crt0_entry
 .text          0x100002c4        0x8 .build/obj_crkbd_rev1_tensotha_helios/./lib/chibios/os/common/startup/ARMCMx/compilers/GCC/vectors.o
                0x100002c4                Reset_Handler
                0x100002c6                Vector9C
                0x100002c6                VectorAC
                0x100002c6                DebugMon_Handler
                0x100002c6                HardFault_Handler
                0x100002c6                Vector8C
                0x100002c6                SysTick_Handler
                0x100002c6                PendSV_Handler
                0x100002c6                Vector94
                0x100002c6                VectorA8
                0x100002c6                VectorB4
                0x100002c6                Vector74
                0x100002c6                UsageFault_Handler
                0x100002c6                VectorBC
                0x100002c6                Vector64
                0x100002c6                Vector24
                0x100002c6                Vector84
                0x100002c6                SecureFault_Handler
                0x100002c6                MemManage_Handler
                0x100002c6                SVC_Handler
                0x100002c6                VectorB0
                0x100002c6                Vector90
                0x100002c6                Vector60
                0x100002c6                Vector68
                0x100002c6                Vector78
                0x100002c6                Vector20
                0x100002c6                Vector58
                0x100002c6                Vector88
                0x100002c6                BusFault_Handler
                0x100002c6                Vector50
                0x100002c6                Vector28
                0x100002c6                VectorB8
                0x100002c6                Vector34
                0x100002c6                VectorA4
                0x100002ca                _unhandled_exception
 .text          0x100002cc       0x48 .build/obj_crkbd_rev1_tensotha_helios/./lib/chibios/os/common/ports/ARMv6-M-RP2/compilers/GCC/chcoreasm.o
                0x100002cc                __port_switch
                0x100002ec                __port_thread_start
                0x100002fe                __port_switch_from_isr
                0x10000302                __port_exit_from_isr
 .text          0x10000314        0x4 /opt/homebrew/Cellar/arm-none-eabi-gcc@8/8.5.0_2/lib/arm-none-eabi-gcc/8/gcc/arm-none-eabi/8.5.0/thumb/v6-m/nofp/libgcc.a(_dvmd_tls.o)
                0x10000314                __aeabi_ldiv0
                0x10000314                __aeabi_idiv0
 .text          0x10000318       0x30 /opt/homebrew/Cellar/arm-none-eabi-gcc@8/8.5.0_2/lib/arm-none-eabi-gcc/8/gcc/arm-none-eabi/8.5.0/thumb/v6-m/nofp/libgcc.a(_fixunssfsi.o)
                0x10000318                __aeabi_f2uiz
                0x10000318                __fixunssfsi
 .text          0x10000348      0x230 /opt/homebrew/Cellar/arm-none-eabi-gcc@8/8.5.0_2/lib/arm-none-eabi-gcc/8/gcc/arm-none-eabi/8.5.0/thumb/v6-m/nofp/libgcc.a(divsf3.o)
                0x10000348                __aeabi_fdiv
 .text          0x10000578      0x22c /opt/homebrew/Cellar/arm-none-eabi-gcc@8/8.5.0_2/lib/arm-none-eabi-gcc/8/gcc/arm-none-eabi/8.5.0/thumb/v6-m/nofp/libgcc.a(mulsf3.o)
                0x10000578                __aeabi_fmul
 .text          0x100007a4      0x344 /opt/homebrew/Cellar/arm-none-eabi-gcc@8/8.5.0_2/lib/arm-none-eabi-gcc/8/gcc/arm-none-eabi/8.5.0/thumb/v6-m/nofp/libgcc.a(subsf3.o)
                0x100007a4                __aeabi_fsub
 .text          0x10000ae8       0x40 /opt/homebrew/Cellar/arm-none-eabi-gcc@8/8.5.0_2/lib/arm-none-eabi-gcc/8/gcc/arm-none-eabi/8.5.0/thumb/v6-m/nofp/libgcc.a(fixsfsi.o)
                0x10000ae8                __aeabi_f2iz
 .text          0x10000b28       0x80 /opt/homebrew/Cellar/arm-none-eabi-gcc@8/8.5.0_2/lib/arm-none-eabi-gcc/8/gcc/arm-none-eabi/8.5.0/thumb/v6-m/nofp/libgcc.a(floatunsisf.o)
                0x10000b28                __aeabi_ui2f
 .text          0x10000ba8       0x74 /opt/homebrew/Cellar/arm-none-eabi-gcc@8/8.5.0_2/lib/arm-none-eabi-gcc/8/gcc/arm-none-eabi/8.5.0/thumb/v6-m/nofp/libgcc.a(_arm_cmpsf2.o)
                0x10000ba8                __aeabi_cfrcmple
                0x10000bb0                __aeabi_cfcmple
                0x10000bb0                __aeabi_cfcmpeq
                0x10000bc0                __aeabi_fcmpeq
                0x10000bcc                __aeabi_fcmplt
                0x10000be0                __aeabi_fcmple
                0x10000bf4                __aeabi_fcmpgt
                0x10000c08                __aeabi_fcmpge
 .text          0x10000c1c       0x3c /opt/homebrew/Cellar/arm-none-eabi-gcc@8/8.5.0_2/lib/arm-none-eabi-gcc/8/gcc/arm-none-eabi/8.5.0/thumb/v6-m/nofp/libgcc.a(_clzsi2.o)
                0x10000c1c                __clzsi2
 .text          0x10000c58       0x50 /opt/homebrew/Cellar/arm-none-eabi-gcc@8/8.5.0_2/lib/arm-none-eabi-gcc/8/gcc/arm-none-eabi/8.5.0/thumb/v6-m/nofp/libgcc.a(eqsf2.o)
                0x10000c58                __nesf2
                0x10000c58                __eqsf2
 .text          0x10000ca8       0x98 /opt/homebrew/Cellar/arm-none-eabi-gcc@8/8.5.0_2/lib/arm-none-eabi-gcc/8/gcc/arm-none-eabi/8.5.0/thumb/v6-m/nofp/libgcc.a(gesf2.o)
                0x10000ca8                __gtsf2
                0x10000ca8                __gesf2
 .text          0x10000d40       0x94 /opt/homebrew/Cellar/arm-none-eabi-gcc@8/8.5.0_2/lib/arm-none-eabi-gcc/8/gcc/arm-none-eabi/8.5.0/thumb/v6-m/nofp/libgcc.a(lesf2.o)
                0x10000d40                __lesf2
                0x10000d40                __ltsf2
 .text          0x10000dd4       0x14 /opt/homebrew/Cellar/arm-none-eabi-gcc@8/8.5.0_2/lib/arm-none-eabi-gcc/8/gcc/arm-none-eabi/8.5.0/thumb/v6-m/nofp/libgcc.a(_thumb1_case_sqi.o)
                0x10000dd4                __gnu_thumb1_case_sqi
 .text          0x10000de8       0x14 /opt/homebrew/Cellar/arm-none-eabi-gcc@8/8.5.0_2/lib/arm-none-eabi-gcc/8/gcc/arm-none-eabi/8.5.0/thumb/v6-m/nofp/libgcc.a(_thumb1_case_uqi.o)
                0x10000de8                __gnu_thumb1_case_uqi
 .text          0x10000dfc       0x14 /opt/homebrew/Cellar/arm-none-eabi-gcc@8/8.5.0_2/lib/arm-none-eabi-gcc/8/gcc/arm-none-eabi/8.5.0/thumb/v6-m/nofp/libgcc.a(_thumb1_case_shi.o)
                0x10000dfc                __gnu_thumb1_case_shi
 .text          0x10000e10       0x14 /opt/homebrew/Cellar/arm-none-eabi-gcc@8/8.5.0_2/lib/arm-none-eabi-gcc/8/gcc/arm-none-eabi/8.5.0/thumb/v6-m/nofp/libgcc.a(_thumb1_case_uhi.o)
                0x10000e10                __gnu_thumb1_case_uhi
 .text          0x10000e24       0x40 /opt/homebrew/Cellar/arm-none-eabi-gcc@8/8.5.0_2/lib/arm-none-eabi-gcc/8/gcc/arm-none-eabi/8.5.0/thumb/v6-m/nofp/libgcc.a(_ctzsi2.o)
                0x10000e24                __ctzsi2
 .text          0x10000e64       0xa8 /opt/homebrew/Cellar/arm-none-eabi-gcc@8/8.5.0_2/lib/arm-none-eabi-gcc/8/gcc/arm-none-eabi/8.5.0/../../../../../../arm-none-eabi/lib/thumb/v6-m/nofp/libg_nano.a(lib_a-memcpy-stub.o)
                0x10000e64                memcpy
 .text          0x10000f0c       0xe8 /opt/homebrew/Cellar/arm-none-eabi-gcc@8/8.5.0_2/lib/arm-none-eabi-gcc/8/gcc/arm-none-eabi/8.5.0/../../../../../../arm-none-eabi/lib/thumb/v6-m/nofp/libg_nano.a(lib_a-rand.o)
                0x10000f0c                srand
                0x10000f6c                rand
 .text          0x10000ff4       0x4c /opt/homebrew/Cellar/arm-none-eabi-gcc@8/8.5.0_2/lib/arm-none-eabi-gcc/8/gcc/arm-none-eabi/8.5.0/../../../../../../arm-none-eabi/lib/thumb/v6-m/nofp/libg_nano.a(lib_a-assert.o)
                0x10000ff4                __assert_func
                0x10001034                __assert
 .text          0x10001040       0x3c /opt/homebrew/Cellar/arm-none-eabi-gcc@8/8.5.0_2/lib/arm-none-eabi-gcc/8/gcc/arm-none-eabi/8.5.0/../../../../../../arm-none-eabi/lib/thumb/v6-m/nofp/libg_nano.a(lib_a-fprintf.o)
                0x10001040                _fprintf_r
                0x10001040                _fiprintf_r
                0x10001058                fprintf
                0x10001058                fiprintf
 .text          0x1000107c       0x28 /opt/homebrew/Cellar/arm-none-eabi-gcc@8/8.5.0_2/lib/arm-none-eabi-gcc/8/gcc/arm-none-eabi/8.5.0/../../../../../../arm-none-eabi/lib/thumb/v6-m/nofp/libg_nano.a(lib_a-malloc.o)
                0x1000107c                malloc
                0x10001090                free
 .text          0x100010a4       0xac /opt/homebrew/Cellar/arm-none-eabi-gcc@8/8.5.0_2/lib/arm-none-eabi-gcc/8/gcc/arm-none-eabi/8.5.0/../../../../../../arm-none-eabi/lib/thumb/v6-m/nofp/libg_nano.a(lib_a-nano-freer.o)
                0x100010a4                _free_r
 .text          0x10001150       0xcc /opt/homebrew/Cellar/arm-none-eabi-gcc@8/8.5.0_2/lib/arm-none-eabi-gcc/8/gcc/arm-none-eabi/8.5.0/../../../../../../arm-none-eabi/lib/thumb/v6-m/nofp/libg_nano.a(lib_a-nano-mallocr.o)
                0x10001150                _malloc_r
 .text          0x1000121c      0x3cc /opt/homebrew/Cellar/arm-none-eabi-gcc@8/8.5.0_2/lib/arm-none-eabi-gcc/8/gcc/arm-none-eabi/8.5.0/../../../../../../arm-none-eabi/lib/thumb/v6-m/nofp/libg_nano.a(lib_a-nano-vfprintf.o)
                0x10001244                __sfputs_r
                0x10001270                __sprint_r
                0x1000128c                _vfiprintf_r
                0x1000128c                _vfprintf_r
                0x100015d0                vfiprintf
                0x100015d0                vfprintf
 .text          0x100015e8      0x3d8 /opt/homebrew/Cellar/arm-none-eabi-gcc@8/8.5.0_2/lib/arm-none-eabi-gcc/8/gcc/arm-none-eabi/8.5.0/../../../../../../arm-none-eabi/lib/thumb/v6-m/nofp/libg_nano.a(lib_a-nano-vfprintf_i.o)
                0x100015e8                _printf_common
                0x10001718                _printf_i
 .text          0x100019c0       0xec /opt/homebrew/Cellar/arm-none-eabi-gcc@8/8.5.0_2/lib/arm-none-eabi-gcc/8/gcc/arm-none-eabi/8.5.0/../../../../../../arm-none-eabi/lib/thumb/v6-m/nofp/libg_nano.a(lib_a-wbuf.o)
                0x100019c0                __swbuf_r
                0x10001a94                __swbuf
 .text          0x10001aac      0x10c /opt/homebrew/Cellar/arm-none-eabi-gcc@8/8.5.0_2/lib/arm-none-eabi-gcc/8/gcc/arm-none-eabi/8.5.0/../../../../../../arm-none-eabi/lib/thumb/v6-m/nofp/libg_nano.a(lib_a-wsetup.o)
                0x10001aac                __swsetup_r
 .text          0x10001bb8       0x10 /opt/homebrew/Cellar/arm-none-eabi-gcc@8/8.5.0_2/lib/arm-none-eabi-gcc/8/gcc/arm-none-eabi/8.5.0/../../../../../../arm-none-eabi/lib/thumb/v6-m/nofp/libg_nano.a(lib_a-abort.o)
                0x10001bb8                abort
 .text          0x10001bc8      0x1e4 /opt/homebrew/Cellar/arm-none-eabi-gcc@8/8.5.0_2/lib/arm-none-eabi-gcc/8/gcc/arm-none-eabi/8.5.0/../../../../../../arm-none-eabi/lib/thumb/v6-m/nofp/libg_nano.a(lib_a-fflush.o)
                0x10001bc8                __sflush_r
                0x10001cfc                _fflush_r
                0x10001d84                fflush
 .text          0x10001dac      0x2dc /opt/homebrew/Cellar/arm-none-eabi-gcc@8/8.5.0_2/lib/arm-none-eabi-gcc/8/gcc/arm-none-eabi/8.5.0/../../../../../../arm-none-eabi/lib/thumb/v6-m/nofp/libg_nano.a(lib_a-findfp.o)
                0x10001dac                _cleanup_r
                0x10001df4                __sfmoreglue
                0x10001e24                _cleanup
                0x10001e3c                __sinit
                0x10001f64                __sfp
                0x10002008                __sfp_lock_acquire
                0x10002018                __sfp_lock_release
                0x10002028                __sinit_lock_acquire
                0x10002038                __sinit_lock_release
                0x10002048                __fp_lock_all
                0x10002068                __fp_unlock_all
 .text          0x10002088      0x320 /opt/homebrew/Cellar/arm-none-eabi-gcc@8/8.5.0_2/lib/arm-none-eabi-gcc/8/gcc/arm-none-eabi/8.5.0/../../../../../../arm-none-eabi/lib/thumb/v6-m/nofp/libg_nano.a(lib_a-fvwrite.o)
                0x10002088                __sfvwrite_r
 .text          0x100023a8       0x90 /opt/homebrew/Cellar/arm-none-eabi-gcc@8/8.5.0_2/lib/arm-none-eabi-gcc/8/gcc/arm-none-eabi/8.5.0/../../../../../../arm-none-eabi/lib/thumb/v6-m/nofp/libg_nano.a(lib_a-fwalk.o)
                0x100023a8                _fwalk
                0x100023ec                _fwalk_reent
 .text          0x10002438       0x28 /opt/homebrew/Cellar/arm-none-eabi-gcc@8/8.5.0_2/lib/arm-none-eabi-gcc/8/gcc/arm-none-eabi/8.5.0/../../../../../../arm-none-eabi/lib/thumb/v6-m/nofp/libg_nano.a(lib_a-lock.o)
                0x10002438                __retarget_lock_init
                0x1000243c                __retarget_lock_init_recursive
                0x10002440                __retarget_lock_close
                0x10002444                __retarget_lock_close_recursive
                0x10002448                __retarget_lock_acquire
                0x1000244c                __retarget_lock_acquire_recursive
                0x10002450                __retarget_lock_try_acquire
                0x10002454                __retarget_lock_try_acquire_recursive
                0x10002458                __retarget_lock_release
                0x1000245c                __retarget_lock_release_recursive
 .text          0x10002460       0xe0 /opt/homebrew/Cellar/arm-none-eabi-gcc@8/8.5.0_2/lib/arm-none-eabi-gcc/8/gcc/arm-none-eabi/8.5.0/../../../../../../arm-none-eabi/lib/thumb/v6-m/nofp/libg_nano.a(lib_a-makebuf.o)
                0x10002460                __swhatbuf_r
                0x100024b0                __smakebuf_r
 .text          0x10002540       0x80 /opt/homebrew/Cellar/arm-none-eabi-gcc@8/8.5.0_2/lib/arm-none-eabi-gcc/8/gcc/arm-none-eabi/8.5.0/../../../../../../arm-none-eabi/lib/thumb/v6-m/nofp/libg_nano.a(lib_a-memchr-stub.o)
                0x10002540                memchr
 .text          0x100025c0       0xbc /opt/homebrew/Cellar/arm-none-eabi-gcc@8/8.5.0_2/lib/arm-none-eabi-gcc/8/gcc/arm-none-eabi/8.5.0/../../../../../../arm-none-eabi/lib/thumb/v6-m/nofp/libg_nano.a(lib_a-memmove.o)
                0x100025c0                memmove
 .text          0x1000267c       0xa8 /opt/homebrew/Cellar/arm-none-eabi-gcc@8/8.5.0_2/lib/arm-none-eabi-gcc/8/gcc/arm-none-eabi/8.5.0/../../../../../../arm-none-eabi/lib/thumb/v6-m/nofp/libg_nano.a(lib_a-memset.o)
                0x1000267c                memset
 .text          0x10002724       0x20 /opt/homebrew/Cellar/arm-none-eabi-gcc@8/8.5.0_2/lib/arm-none-eabi-gcc/8/gcc/arm-none-eabi/8.5.0/../../../../../../arm-none-eabi/lib/thumb/v6-m/nofp/libg_nano.a(lib_a-mlock.o)
                0x10002724                __malloc_lock
                0x10002734                __malloc_unlock
 .text          0x10002744       0x50 /opt/homebrew/Cellar/arm-none-eabi-gcc@8/8.5.0_2/lib/arm-none-eabi-gcc/8/gcc/arm-none-eabi/8.5.0/../../../../../../arm-none-eabi/lib/thumb/v6-m/nofp/libg_nano.a(lib_a-nano-reallocr.o)
                0x10002744                _realloc_r
 .text          0x10002794      0x178 /opt/homebrew/Cellar/arm-none-eabi-gcc@8/8.5.0_2/lib/arm-none-eabi-gcc/8/gcc/arm-none-eabi/8.5.0/../../../../../../arm-none-eabi/lib/thumb/v6-m/nofp/libg_nano.a(lib_a-signal.o)
                0x100027bc                _init_signal_r
                0x100027d4                _signal_r
                0x1000280c                _raise_r
                0x10002864                __sigtramp_r
                0x100028b0                raise
                0x100028c4                signal
                0x100028dc                _init_signal
                0x100028f8                __sigtramp
 .text          0x1000290c       0x30 /opt/homebrew/Cellar/arm-none-eabi-gcc@8/8.5.0_2/lib/arm-none-eabi-gcc/8/gcc/arm-none-eabi/8.5.0/../../../../../../arm-none-eabi/lib/thumb/v6-m/nofp/libg_nano.a(lib_a-signalr.o)
                0x1000290c                _kill_r
                0x10002934                _getpid_r
 .text          0x1000293c       0xa4 /opt/homebrew/Cellar/arm-none-eabi-gcc@8/8.5.0_2/lib/arm-none-eabi-gcc/8/gcc/arm-none-eabi/8.5.0/../../../../../../arm-none-eabi/lib/thumb/v6-m/nofp/libg_nano.a(lib_a-stdio.o)
                0x1000293c                __sread
                0x10002964                __seofread
                0x10002968                __swrite
                0x100029a8                __sseek
                0x100029d4                __sclose
 .text          0x100029e0       0x14 /opt/homebrew/Cellar/arm-none-eabi-gcc@8/8.5.0_2/lib/arm-none-eabi-gcc/8/gcc/arm-none-eabi/8.5.0/../../../../../../arm-none-eabi/lib/thumb/v6-m/nofp/libg_nano.a(lib_a-nano-msizer.o)
                0x100029e0                _malloc_usable_size_r
 .text          0x100029f4       0x50 /opt/homebrew/Cellar/arm-none-eabi-gcc@8/8.5.0_2/lib/arm-none-eabi-gcc/8/gcc/arm-none-eabi/8.5.0/../../../../../../arm-none-eabi/lib/thumb/v6-m/nofp/libg_nano.a(lib_a-memcmp.o)
                0x100029f4                memcmp
 .text          0x10002a44       0x68 /opt/homebrew/Cellar/arm-none-eabi-gcc@8/8.5.0_2/lib/arm-none-eabi-gcc/8/gcc/arm-none-eabi/8.5.0/../../../../../../arm-none-eabi/lib/thumb/v6-m/nofp/libg_nano.a(lib_a-strlen-stub.o)
                0x10002a44                strlen
 *(.text.*)
 .text.read_source_layers_cache_impl.constprop.124
                0x10002aac       0x2c /var/folders/01/r6qc96lx1x7c0h1529l70j5m0000gn/T//ccqg8YyW.ltrans0.ltrans.o
 .text.update_source_layers_cache_impl.constprop.123
                0x10002ad8       0x38 /var/folders/01/r6qc96lx1x7c0h1529l70j5m0000gn/T//ccqg8YyW.ltrans0.ltrans.o
 .text.chSysHalt
                0x10002b10       0x24 /var/folders/01/r6qc96lx1x7c0h1529l70j5m0000gn/T//ccqg8YyW.ltrans0.ltrans.o
 .text.waiting_buffer_typed.isra.2.constprop.102
                0x10002b34       0x40 /var/folders/01/r6qc96lx1x7c0h1529l70j5m0000gn/T//ccqg8YyW.ltrans0.ltrans.o
 .text.crc8.constprop.92
                0x10002b74       0x2c /var/folders/01/r6qc96lx1x7c0h1529l70j5m0000gn/T//ccqg8YyW.ltrans0.ltrans.o
 .text.clock_configure.part.0.constprop.50
                0x10002ba0       0xc4 /var/folders/01/r6qc96lx1x7c0h1529l70j5m0000gn/T//ccqg8YyW.ltrans0.ltrans.o
 .text._usb_wakeup.constprop.6
                0x10002c64       0x24 /var/folders/01/r6qc96lx1x7c0h1529l70j5m0000gn/T//ccqg8YyW.ltrans0.ltrans.o
 .text.clocks_init
                0x10002c88      0x198 /var/folders/01/r6qc96lx1x7c0h1529l70j5m0000gn/T//ccqg8YyW.ltrans0.ltrans.o
 .text.usb_prepare_out_ep
                0x10002e20       0x90 /var/folders/01/r6qc96lx1x7c0h1529l70j5m0000gn/T//ccqg8YyW.ltrans0.ltrans.o
 .text.usbStartReceiveI.constprop.9
                0x10002eb0       0x36 /var/folders/01/r6qc96lx1x7c0h1529l70j5m0000gn/T//ccqg8YyW.ltrans0.ltrans.o
 *fill*         0x10002ee6        0x2 
 .text.usb_isochronous_buffer_size
                0x10002ee8       0x44 /var/folders/01/r6qc96lx1x7c0h1529l70j5m0000gn/T//ccqg8YyW.ltrans0.ltrans.o
 .text.hal_lld_peripheral_unreset.lto_priv.136
                0x10002f2c       0x14 /var/folders/01/r6qc96lx1x7c0h1529l70j5m0000gn/T//ccqg8YyW.ltrans0.ltrans.o
 .text.port_unlock.lto_priv.143
                0x10002f40       0x12 /var/folders/01/r6qc96lx1x7c0h1529l70j5m0000gn/T//ccqg8YyW.ltrans0.ltrans.o
 .text.port_lock.lto_priv.165
                0x10002f52       0x16 /var/folders/01/r6qc96lx1x7c0h1529l70j5m0000gn/T//ccqg8YyW.ltrans0.ltrans.o
 .text.i2c_lld_disableS
                0x10002f68       0x64 /var/folders/01/r6qc96lx1x7c0h1529l70j5m0000gn/T//ccqg8YyW.ltrans0.ltrans.o
 .text.serve_interrupt
                0x10002fcc       0x28 /var/folders/01/r6qc96lx1x7c0h1529l70j5m0000gn/T//ccqg8YyW.ltrans0.ltrans.o
 .text.set_address
                0x10002ff4       0x30 /var/folders/01/r6qc96lx1x7c0h1529l70j5m0000gn/T//ccqg8YyW.ltrans0.ltrans.o
 .text.obqPostFullBufferS
                0x10003024       0x2a /var/folders/01/r6qc96lx1x7c0h1529l70j5m0000gn/T//ccqg8YyW.ltrans0.ltrans.o
 .text.obqGetFullBufferI
                0x1000304e       0x1c /var/folders/01/r6qc96lx1x7c0h1529l70j5m0000gn/T//ccqg8YyW.ltrans0.ltrans.o
 .text.ch_sch_prio_insert
                0x1000306a       0x1e /var/folders/01/r6qc96lx1x7c0h1529l70j5m0000gn/T//ccqg8YyW.ltrans0.ltrans.o
 .text.__idle_thread
                0x10003088        0x4 /var/folders/01/r6qc96lx1x7c0h1529l70j5m0000gn/T//ccqg8YyW.ltrans0.ltrans.o
 .text.__sch_ready_ahead
                0x1000308c       0x1c /var/folders/01/r6qc96lx1x7c0h1529l70j5m0000gn/T//ccqg8YyW.ltrans0.ltrans.o
 .text.__sch_ready_behind
                0x100030a8       0x1c /var/folders/01/r6qc96lx1x7c0h1529l70j5m0000gn/T//ccqg8YyW.ltrans0.ltrans.o
 .text.__sch_wakeup
                0x100030c4       0x42 /var/folders/01/r6qc96lx1x7c0h1529l70j5m0000gn/T//ccqg8YyW.ltrans0.ltrans.o
 *fill*         0x10003106        0x2 
 .text.chSchReadyI
                0x10003108       0x2c /var/folders/01/r6qc96lx1x7c0h1529l70j5m0000gn/T//ccqg8YyW.ltrans0.ltrans.o
 .text.chThdDequeueAllI.constprop.73
                0x10003134       0x1e /var/folders/01/r6qc96lx1x7c0h1529l70j5m0000gn/T//ccqg8YyW.ltrans0.ltrans.o
 .text.obqResetI
                0x10003152       0x18 /var/folders/01/r6qc96lx1x7c0h1529l70j5m0000gn/T//ccqg8YyW.ltrans0.ltrans.o
 *fill*         0x1000316a        0x2 
 .text.vt_insert_first
                0x1000316c       0x78 /var/folders/01/r6qc96lx1x7c0h1529l70j5m0000gn/T//ccqg8YyW.ltrans0.ltrans.o
 .text.vt_set_alarm
                0x100031e4       0x4c /var/folders/01/r6qc96lx1x7c0h1529l70j5m0000gn/T//ccqg8YyW.ltrans0.ltrans.o
 .text.ch_dlist_insert
                0x10003230       0x2a /var/folders/01/r6qc96lx1x7c0h1529l70j5m0000gn/T//ccqg8YyW.ltrans0.ltrans.o
 *fill*         0x1000325a        0x2 
 .text.chVTDoTickI
                0x1000325c       0xcc /var/folders/01/r6qc96lx1x7c0h1529l70j5m0000gn/T//ccqg8YyW.ltrans0.ltrans.o
 .text.usb_shared_idle_timer_elapsed
                0x10003328       0x60 /var/folders/01/r6qc96lx1x7c0h1529l70j5m0000gn/T//ccqg8YyW.ltrans0.ltrans.o
 .text.usb_shared_get_idle_rate
                0x10003388       0x18 /var/folders/01/r6qc96lx1x7c0h1529l70j5m0000gn/T//ccqg8YyW.ltrans0.ltrans.o
 .text.usb_shared_set_idle_rate
                0x100033a0       0x24 /var/folders/01/r6qc96lx1x7c0h1529l70j5m0000gn/T//ccqg8YyW.ltrans0.ltrans.o
 .text.usb_idle_timer_elapsed
                0x100033c4       0x58 /var/folders/01/r6qc96lx1x7c0h1529l70j5m0000gn/T//ccqg8YyW.ltrans0.ltrans.o
 .text.usb_get_idle_rate
                0x1000341c        0xe /var/folders/01/r6qc96lx1x7c0h1529l70j5m0000gn/T//ccqg8YyW.ltrans0.ltrans.o
 *fill*         0x1000342a        0x2 
 .text.usb_set_idle_rate
                0x1000342c       0x1c /var/folders/01/r6qc96lx1x7c0h1529l70j5m0000gn/T//ccqg8YyW.ltrans0.ltrans.o
 .text.usb_endpoint_in_is_inactive
                0x10003448       0x32 /var/folders/01/r6qc96lx1x7c0h1529l70j5m0000gn/T//ccqg8YyW.ltrans0.ltrans.o
 *fill*         0x1000347a        0x2 
 .text.keyboard_leds
                0x1000347c        0xc /var/folders/01/r6qc96lx1x7c0h1529l70j5m0000gn/T//ccqg8YyW.ltrans0.ltrans.o
 .text.usb_requests_hook_cb
                0x10003488      0x1cc /var/folders/01/r6qc96lx1x7c0h1529l70j5m0000gn/T//ccqg8YyW.ltrans0.ltrans.o
 .text.set_led_transfer_cb
                0x10003654       0x2c /var/folders/01/r6qc96lx1x7c0h1529l70j5m0000gn/T//ccqg8YyW.ltrans0.ltrans.o
 .text.usb_event_queue_enqueue
                0x10003680       0x30 /var/folders/01/r6qc96lx1x7c0h1529l70j5m0000gn/T//ccqg8YyW.ltrans0.ltrans.o
 .text.usb_get_descriptor_cb
                0x100036b0       0xa4 /var/folders/01/r6qc96lx1x7c0h1529l70j5m0000gn/T//ccqg8YyW.ltrans0.ltrans.o
 .text.bootloader_jump
                0x10003754       0x1c /var/folders/01/r6qc96lx1x7c0h1529l70j5m0000gn/T//ccqg8YyW.ltrans0.ltrans.o
 .text.timer_read32
                0x10003770       0x7c /var/folders/01/r6qc96lx1x7c0h1529l70j5m0000gn/T//ccqg8YyW.ltrans0.ltrans.o
 .text.del_key_from_report
                0x100037ec       0x58 /var/folders/01/r6qc96lx1x7c0h1529l70j5m0000gn/T//ccqg8YyW.ltrans0.ltrans.o
 .text.add_key_to_report
                0x10003844       0x68 /var/folders/01/r6qc96lx1x7c0h1529l70j5m0000gn/T//ccqg8YyW.ltrans0.ltrans.o
 .text.host_consumer_send
                0x100038ac       0x34 /var/folders/01/r6qc96lx1x7c0h1529l70j5m0000gn/T//ccqg8YyW.ltrans0.ltrans.o
 .text.host_system_send
                0x100038e0       0x34 /var/folders/01/r6qc96lx1x7c0h1529l70j5m0000gn/T//ccqg8YyW.ltrans0.ltrans.o
 .text.host_keyboard_leds
                0x10003914       0x20 /var/folders/01/r6qc96lx1x7c0h1529l70j5m0000gn/T//ccqg8YyW.ltrans0.ltrans.o
 .text.mousekey_send
                0x10003934       0x44 /var/folders/01/r6qc96lx1x7c0h1529l70j5m0000gn/T//ccqg8YyW.ltrans0.ltrans.o
 .text.mousekey_off
                0x10003978       0xf0 /var/folders/01/r6qc96lx1x7c0h1529l70j5m0000gn/T//ccqg8YyW.ltrans0.ltrans.o
 .text.wheel_unit
                0x10003a68       0x4c /var/folders/01/r6qc96lx1x7c0h1529l70j5m0000gn/T//ccqg8YyW.ltrans0.ltrans.o
 .text.move_unit
                0x10003ab4       0x40 /var/folders/01/r6qc96lx1x7c0h1529l70j5m0000gn/T//ccqg8YyW.ltrans0.ltrans.o
 .text.mousekey_on
                0x10003af4       0xb4 /var/folders/01/r6qc96lx1x7c0h1529l70j5m0000gn/T//ccqg8YyW.ltrans0.ltrans.o
 .text.times_inv_sqrt2
                0x10003ba8       0x1a /var/folders/01/r6qc96lx1x7c0h1529l70j5m0000gn/T//ccqg8YyW.ltrans0.ltrans.o
 *fill*         0x10003bc2        0x2 
 .text.ws2812_dma_callback
                0x10003bc4       0x8c /var/folders/01/r6qc96lx1x7c0h1529l70j5m0000gn/T//ccqg8YyW.ltrans0.ltrans.o
 .text.handleKeycodeRGB
                0x10003c50        0xe /var/folders/01/r6qc96lx1x7c0h1529l70j5m0000gn/T//ccqg8YyW.ltrans0.ltrans.o
 .text.rgblight_effect_dummy
                0x10003c5e        0x2 /var/folders/01/r6qc96lx1x7c0h1529l70j5m0000gn/T//ccqg8YyW.ltrans0.ltrans.o
 .text.rgblight_timer_init
                0x10003c60       0x14 /var/folders/01/r6qc96lx1x7c0h1529l70j5m0000gn/T//ccqg8YyW.ltrans0.ltrans.o
 .text.rgblight_set
                0x10003c74       0x4c /var/folders/01/r6qc96lx1x7c0h1529l70j5m0000gn/T//ccqg8YyW.ltrans0.ltrans.o
 .text.rgblight_setrgb.part.5
                0x10003cc0       0x30 /var/folders/01/r6qc96lx1x7c0h1529l70j5m0000gn/T//ccqg8YyW.ltrans0.ltrans.o
 .text.rgblight_check_config
                0x10003cf0       0x30 /var/folders/01/r6qc96lx1x7c0h1529l70j5m0000gn/T//ccqg8YyW.ltrans0.ltrans.o
 .text.sethsv_raw
                0x10003d20       0xa0 /var/folders/01/r6qc96lx1x7c0h1529l70j5m0000gn/T//ccqg8YyW.ltrans0.ltrans.o
 .text.rgblight_effect_rgbtest
                0x10003dc0       0x68 /var/folders/01/r6qc96lx1x7c0h1529l70j5m0000gn/T//ccqg8YyW.ltrans0.ltrans.o
 .text.sethsv   0x10003e28       0x12 /var/folders/01/r6qc96lx1x7c0h1529l70j5m0000gn/T//ccqg8YyW.ltrans0.ltrans.o
 *fill*         0x10003e3a        0x2 
 .text.rgblight_sethsv_noeeprom_old.part.6
                0x10003e3c       0x24 /var/folders/01/r6qc96lx1x7c0h1529l70j5m0000gn/T//ccqg8YyW.ltrans0.ltrans.o
 .text.rgblight_effect_breathing
                0x10003e60       0x2c /var/folders/01/r6qc96lx1x7c0h1529l70j5m0000gn/T//ccqg8YyW.ltrans0.ltrans.o
 .text.rgblight_effect_rainbow_mood
                0x10003e8c       0x24 /var/folders/01/r6qc96lx1x7c0h1529l70j5m0000gn/T//ccqg8YyW.ltrans0.ltrans.o
 .text.rgblight_effect_alternating
                0x10003eb0       0x64 /var/folders/01/r6qc96lx1x7c0h1529l70j5m0000gn/T//ccqg8YyW.ltrans0.ltrans.o
 .text.rgblight_effect_christmas
                0x10003f14       0xa4 /var/folders/01/r6qc96lx1x7c0h1529l70j5m0000gn/T//ccqg8YyW.ltrans0.ltrans.o
 .text.rgblight_effect_knight
                0x10003fb8       0xe0 /var/folders/01/r6qc96lx1x7c0h1529l70j5m0000gn/T//ccqg8YyW.ltrans0.ltrans.o
 .text.rgblight_effect_snake
                0x10004098       0xf4 /var/folders/01/r6qc96lx1x7c0h1529l70j5m0000gn/T//ccqg8YyW.ltrans0.ltrans.o
 .text.rgblight_effect_rainbow_swirl
                0x1000418c       0x64 /var/folders/01/r6qc96lx1x7c0h1529l70j5m0000gn/T//ccqg8YyW.ltrans0.ltrans.o
 .text.backing_store_read_bulk
                0x100041f0       0x20 /var/folders/01/r6qc96lx1x7c0h1529l70j5m0000gn/T//ccqg8YyW.ltrans0.ltrans.o
 .text.backing_store_erase
                0x10004210       0x20 /var/folders/01/r6qc96lx1x7c0h1529l70j5m0000gn/T//ccqg8YyW.ltrans0.ltrans.o
 .text.wear_leveling_lock
                0x10004230       0x1c /var/folders/01/r6qc96lx1x7c0h1529l70j5m0000gn/T//ccqg8YyW.ltrans0.ltrans.o
 .text.wear_leveling_unlock
                0x1000424c       0x1c /var/folders/01/r6qc96lx1x7c0h1529l70j5m0000gn/T//ccqg8YyW.ltrans0.ltrans.o
 .text.wear_leveling_write_consolidated
                0x10004268       0xf4 /var/folders/01/r6qc96lx1x7c0h1529l70j5m0000gn/T//ccqg8YyW.ltrans0.ltrans.o
 .text.wear_leveling_consolidate_if_needed
                0x1000435c       0x34 /var/folders/01/r6qc96lx1x7c0h1529l70j5m0000gn/T//ccqg8YyW.ltrans0.ltrans.o
 .text.wear_leveling_append_raw
                0x10004390       0x40 /var/folders/01/r6qc96lx1x7c0h1529l70j5m0000gn/T//ccqg8YyW.ltrans0.ltrans.o
 .text.sendchar
                0x100043d0        0x4 /var/folders/01/r6qc96lx1x7c0h1529l70j5m0000gn/T//ccqg8YyW.ltrans0.ltrans.o
 .text.gpio_atomic_set_pin_input_high
                0x100043d4       0x34 /var/folders/01/r6qc96lx1x7c0h1529l70j5m0000gn/T//ccqg8YyW.ltrans0.ltrans.o
 .text.null_sendchar_func
                0x10004408        0x4 /var/folders/01/r6qc96lx1x7c0h1529l70j5m0000gn/T//ccqg8YyW.ltrans0.ltrans.o
 .text.sync_timer_read32
                0x1000440c       0x24 /var/folders/01/r6qc96lx1x7c0h1529l70j5m0000gn/T//ccqg8YyW.ltrans0.ltrans.o
 .text.sync_timer_read
                0x10004430       0x1c /var/folders/01/r6qc96lx1x7c0h1529l70j5m0000gn/T//ccqg8YyW.ltrans0.ltrans.o
 .text.mod_config
                0x1000444c       0x98 /var/folders/01/r6qc96lx1x7c0h1529l70j5m0000gn/T//ccqg8YyW.ltrans0.ltrans.o
 .text.keycode_config
                0x100044e4      0x108 /var/folders/01/r6qc96lx1x7c0h1529l70j5m0000gn/T//ccqg8YyW.ltrans0.ltrans.o
 .text.keymap_key_to_keycode
                0x100045ec       0x38 /var/folders/01/r6qc96lx1x7c0h1529l70j5m0000gn/T//ccqg8YyW.ltrans0.ltrans.o
 .text.action_for_keycode
                0x10004624      0x1d8 /var/folders/01/r6qc96lx1x7c0h1529l70j5m0000gn/T//ccqg8YyW.ltrans0.ltrans.o
 .text.del_mods
                0x100047fc       0x10 /var/folders/01/r6qc96lx1x7c0h1529l70j5m0000gn/T//ccqg8YyW.ltrans0.ltrans.o
 .text.get_mods_for_report
                0x1000480c       0x70 /var/folders/01/r6qc96lx1x7c0h1529l70j5m0000gn/T//ccqg8YyW.ltrans0.ltrans.o
 .text.debug_waiting_buffer
                0x1000487c       0x20 /var/folders/01/r6qc96lx1x7c0h1529l70j5m0000gn/T//ccqg8YyW.ltrans0.ltrans.o
 .text.layer_switch_get_layer
                0x1000489c       0x50 /var/folders/01/r6qc96lx1x7c0h1529l70j5m0000gn/T//ccqg8YyW.ltrans0.ltrans.o
 .text.layer_switch_get_action
                0x100048ec       0x20 /var/folders/01/r6qc96lx1x7c0h1529l70j5m0000gn/T//ccqg8YyW.ltrans0.ltrans.o
 .text.layer_off
                0x1000490c       0x14 /var/folders/01/r6qc96lx1x7c0h1529l70j5m0000gn/T//ccqg8YyW.ltrans0.ltrans.o
 .text.clear_oneshot_layer_state
                0x10004920       0x30 /var/folders/01/r6qc96lx1x7c0h1529l70j5m0000gn/T//ccqg8YyW.ltrans0.ltrans.o
 .text.layer_on
                0x10004950       0x14 /var/folders/01/r6qc96lx1x7c0h1529l70j5m0000gn/T//ccqg8YyW.ltrans0.ltrans.o
 .text.is_tap_record
                0x10004964       0x58 /var/folders/01/r6qc96lx1x7c0h1529l70j5m0000gn/T//ccqg8YyW.ltrans0.ltrans.o
 .text.get_event_keycode
                0x100049bc       0x50 /var/folders/01/r6qc96lx1x7c0h1529l70j5m0000gn/T//ccqg8YyW.ltrans0.ltrans.o
 .text.usb_shared_reset_report
                0x10004a0c       0x2a /var/folders/01/r6qc96lx1x7c0h1529l70j5m0000gn/T//ccqg8YyW.ltrans0.ltrans.o
 .text.usb_reset_report
                0x10004a36       0x20 /var/folders/01/r6qc96lx1x7c0h1529l70j5m0000gn/T//ccqg8YyW.ltrans0.ltrans.o
 *fill*         0x10004a56        0x2 
 .text.usb_event_cb
                0x10004a58      0x238 /var/folders/01/r6qc96lx1x7c0h1529l70j5m0000gn/T//ccqg8YyW.ltrans0.ltrans.o
 .text.clear_keys_from_report
                0x10004c90       0x38 /var/folders/01/r6qc96lx1x7c0h1529l70j5m0000gn/T//ccqg8YyW.ltrans0.ltrans.o
 .text.wear_leveling_clear_cache
                0x10004cc8       0x20 /var/folders/01/r6qc96lx1x7c0h1529l70j5m0000gn/T//ccqg8YyW.ltrans0.ltrans.o
 .text.wear_leveling_erase
                0x10004ce8       0x2e /var/folders/01/r6qc96lx1x7c0h1529l70j5m0000gn/T//ccqg8YyW.ltrans0.ltrans.o
 .text.usb_prepare_in_ep_buffer
                0x10004d16       0x70 /var/folders/01/r6qc96lx1x7c0h1529l70j5m0000gn/T//ccqg8YyW.ltrans0.ltrans.o
 *fill*         0x10004d86        0x2 
 .text.usb_prepare_in_ep
                0x10004d88       0x8c /var/folders/01/r6qc96lx1x7c0h1529l70j5m0000gn/T//ccqg8YyW.ltrans0.ltrans.o
 .text.usbStartTransmitI
                0x10004e14       0x28 /var/folders/01/r6qc96lx1x7c0h1529l70j5m0000gn/T//ccqg8YyW.ltrans0.ltrans.o
 .text._usb_ep0out
                0x10004e3c       0xa4 /var/folders/01/r6qc96lx1x7c0h1529l70j5m0000gn/T//ccqg8YyW.ltrans0.ltrans.o
 .text._usb_ep0in
                0x10004ee0       0xd0 /var/folders/01/r6qc96lx1x7c0h1529l70j5m0000gn/T//ccqg8YyW.ltrans0.ltrans.o
 .text.usb_endpoint_in_tx_complete_cb
                0x10004fb0       0xc6 /var/folders/01/r6qc96lx1x7c0h1529l70j5m0000gn/T//ccqg8YyW.ltrans0.ltrans.o
 .text.obnotify
                0x10005076       0x34 /var/folders/01/r6qc96lx1x7c0h1529l70j5m0000gn/T//ccqg8YyW.ltrans0.ltrans.o
 .text.usb_shared_get_report
                0x100050aa       0x20 /var/folders/01/r6qc96lx1x7c0h1529l70j5m0000gn/T//ccqg8YyW.ltrans0.ltrans.o
 *fill*         0x100050ca        0x2 
 .text.usb_shared_set_report
                0x100050cc       0x24 /var/folders/01/r6qc96lx1x7c0h1529l70j5m0000gn/T//ccqg8YyW.ltrans0.ltrans.o
 .text.usb_get_report
                0x100050f0       0x1a /var/folders/01/r6qc96lx1x7c0h1529l70j5m0000gn/T//ccqg8YyW.ltrans0.ltrans.o
 *fill*         0x1000510a        0x2 
 .text.usb_set_report
                0x1000510c       0x1c /var/folders/01/r6qc96lx1x7c0h1529l70j5m0000gn/T//ccqg8YyW.ltrans0.ltrans.o
 .text.wear_leveling_read
                0x10005128       0x24 /var/folders/01/r6qc96lx1x7c0h1529l70j5m0000gn/T//ccqg8YyW.ltrans0.ltrans.o
 .text.eeprom_read_byte
                0x1000514c       0x16 /var/folders/01/r6qc96lx1x7c0h1529l70j5m0000gn/T//ccqg8YyW.ltrans0.ltrans.o
 .text.eeconfig_read_rgblight
                0x10005162       0x1e /var/folders/01/r6qc96lx1x7c0h1529l70j5m0000gn/T//ccqg8YyW.ltrans0.ltrans.o
 .text.usb_lld_reset.constprop.67
                0x10005180       0x74 /var/folders/01/r6qc96lx1x7c0h1529l70j5m0000gn/T//ccqg8YyW.ltrans0.ltrans.o
 .text.oled_write_char.constprop.133
                0x100051f4       0xb8 /var/folders/01/r6qc96lx1x7c0h1529l70j5m0000gn/T//ccqg8YyW.ltrans0.ltrans.o
 .text.oled_advance_page
                0x100052ac       0x68 /var/folders/01/r6qc96lx1x7c0h1529l70j5m0000gn/T//ccqg8YyW.ltrans0.ltrans.o
 .text.wear_leveling_write
                0x10005314      0x1a0 /var/folders/01/r6qc96lx1x7c0h1529l70j5m0000gn/T//ccqg8YyW.ltrans0.ltrans.o
 .text.eeprom_update_dword
                0x100054b4       0x26 /var/folders/01/r6qc96lx1x7c0h1529l70j5m0000gn/T//ccqg8YyW.ltrans0.ltrans.o
 .text.eeprom_update_word
                0x100054da       0x2a /var/folders/01/r6qc96lx1x7c0h1529l70j5m0000gn/T//ccqg8YyW.ltrans0.ltrans.o
 .text.oneshot_set
                0x10005504       0x30 /var/folders/01/r6qc96lx1x7c0h1529l70j5m0000gn/T//ccqg8YyW.ltrans0.ltrans.o
 .text.eeprom_update_byte
                0x10005534       0x1e /var/folders/01/r6qc96lx1x7c0h1529l70j5m0000gn/T//ccqg8YyW.ltrans0.ltrans.o
 .text.eeconfig_update_rgblight
                0x10005552       0x1c /var/folders/01/r6qc96lx1x7c0h1529l70j5m0000gn/T//ccqg8YyW.ltrans0.ltrans.o
 *fill*         0x1000556e        0x2 
 .text.rgblight_sethsv_eeprom_helper
                0x10005570      0x108 /var/folders/01/r6qc96lx1x7c0h1529l70j5m0000gn/T//ccqg8YyW.ltrans0.ltrans.o
 .text.rgblight_decrease_val
                0x10005678       0x24 /var/folders/01/r6qc96lx1x7c0h1529l70j5m0000gn/T//ccqg8YyW.ltrans0.ltrans.o
 .text.rgblight_increase_val
                0x1000569c       0x24 /var/folders/01/r6qc96lx1x7c0h1529l70j5m0000gn/T//ccqg8YyW.ltrans0.ltrans.o
 .text.rgblight_decrease_sat
                0x100056c0       0x24 /var/folders/01/r6qc96lx1x7c0h1529l70j5m0000gn/T//ccqg8YyW.ltrans0.ltrans.o
 .text.rgblight_increase_sat
                0x100056e4       0x24 /var/folders/01/r6qc96lx1x7c0h1529l70j5m0000gn/T//ccqg8YyW.ltrans0.ltrans.o
 .text.rgblight_decrease_hue
                0x10005708       0x1c /var/folders/01/r6qc96lx1x7c0h1529l70j5m0000gn/T//ccqg8YyW.ltrans0.ltrans.o
 .text.rgblight_increase_hue
                0x10005724       0x1c /var/folders/01/r6qc96lx1x7c0h1529l70j5m0000gn/T//ccqg8YyW.ltrans0.ltrans.o
 .text.rgblight_increase_speed
                0x10005740       0x1c /var/folders/01/r6qc96lx1x7c0h1529l70j5m0000gn/T//ccqg8YyW.ltrans0.ltrans.o
 .text.rgblight_decrease_speed
                0x1000575c       0x1c /var/folders/01/r6qc96lx1x7c0h1529l70j5m0000gn/T//ccqg8YyW.ltrans0.ltrans.o
 .text.send_keyboard_report
                0x10005778       0x94 /var/folders/01/r6qc96lx1x7c0h1529l70j5m0000gn/T//ccqg8YyW.ltrans0.ltrans.o
 .text.clear_keyboard
                0x1000580c       0x54 /var/folders/01/r6qc96lx1x7c0h1529l70j5m0000gn/T//ccqg8YyW.ltrans0.ltrans.o
 .text.unregister_mods
                0x10005860       0x10 /var/folders/01/r6qc96lx1x7c0h1529l70j5m0000gn/T//ccqg8YyW.ltrans0.ltrans.o
 .text.register_mods
                0x10005870       0x18 /var/folders/01/r6qc96lx1x7c0h1529l70j5m0000gn/T//ccqg8YyW.ltrans0.ltrans.o
 .text.unregister_code
                0x10005888       0x6a /var/folders/01/r6qc96lx1x7c0h1529l70j5m0000gn/T//ccqg8YyW.ltrans0.ltrans.o
 *fill*         0x100058f2        0x2 
 .text.register_code
                0x100058f4       0xd4 /var/folders/01/r6qc96lx1x7c0h1529l70j5m0000gn/T//ccqg8YyW.ltrans0.ltrans.o
 .text.oled_write.constprop.132
                0x100059c8       0x1a /var/folders/01/r6qc96lx1x7c0h1529l70j5m0000gn/T//ccqg8YyW.ltrans0.ltrans.o
 .text.oled_write_ln.constprop.131
                0x100059e2        0xe /var/folders/01/r6qc96lx1x7c0h1529l70j5m0000gn/T//ccqg8YyW.ltrans0.ltrans.o
 .text.chSchGoSleepS
                0x100059f0       0x2c /var/folders/01/r6qc96lx1x7c0h1529l70j5m0000gn/T//ccqg8YyW.ltrans0.ltrans.o
 .text.chSchGoSleepTimeoutS
                0x10005a1c      0x104 /var/folders/01/r6qc96lx1x7c0h1529l70j5m0000gn/T//ccqg8YyW.ltrans0.ltrans.o
 .text.oled_send_cmd
                0x10005b20       0x16 /var/folders/01/r6qc96lx1x7c0h1529l70j5m0000gn/T//ccqg8YyW.ltrans0.ltrans.o
 *fill*         0x10005b36        0x2 
 .text.oled_off
                0x10005b38       0x3c /var/folders/01/r6qc96lx1x7c0h1529l70j5m0000gn/T//ccqg8YyW.ltrans0.ltrans.o
 .text.oled_on  0x10005b74       0x4c /var/folders/01/r6qc96lx1x7c0h1529l70j5m0000gn/T//ccqg8YyW.ltrans0.ltrans.o
 .text.rgblight_effect_twinkle
                0x10005bc0      0x140 /var/folders/01/r6qc96lx1x7c0h1529l70j5m0000gn/T//ccqg8YyW.ltrans0.ltrans.o
 .text.rgblight_timer_enable
                0x10005d00       0x3c /var/folders/01/r6qc96lx1x7c0h1529l70j5m0000gn/T//ccqg8YyW.ltrans0.ltrans.o
 .text.rgblight_mode_eeprom_helper
                0x10005d3c       0x80 /var/folders/01/r6qc96lx1x7c0h1529l70j5m0000gn/T//ccqg8YyW.ltrans0.ltrans.o
 .text.rgblight_step_reverse
                0x10005dbc       0x20 /var/folders/01/r6qc96lx1x7c0h1529l70j5m0000gn/T//ccqg8YyW.ltrans0.ltrans.o
 .text.rgblight_step
                0x10005ddc       0x1c /var/folders/01/r6qc96lx1x7c0h1529l70j5m0000gn/T//ccqg8YyW.ltrans0.ltrans.o
 .text.handleKeycodeRGBMode
                0x10005df8       0x28 /var/folders/01/r6qc96lx1x7c0h1529l70j5m0000gn/T//ccqg8YyW.ltrans0.ltrans.o
 .text.transport_execute_transaction
                0x10005e20       0x6c /var/folders/01/r6qc96lx1x7c0h1529l70j5m0000gn/T//ccqg8YyW.ltrans0.ltrans.o
 .text.rgblight_handlers_master
                0x10005e8c       0x64 /var/folders/01/r6qc96lx1x7c0h1529l70j5m0000gn/T//ccqg8YyW.ltrans0.ltrans.o
 .text.sync_timer_handlers_master
                0x10005ef0       0x40 /var/folders/01/r6qc96lx1x7c0h1529l70j5m0000gn/T//ccqg8YyW.ltrans0.ltrans.o
 .text.master_matrix_handlers_master
                0x10005f30       0x48 /var/folders/01/r6qc96lx1x7c0h1529l70j5m0000gn/T//ccqg8YyW.ltrans0.ltrans.o
 .text.slave_matrix_handlers_master
                0x10005f78       0xa8 /var/folders/01/r6qc96lx1x7c0h1529l70j5m0000gn/T//ccqg8YyW.ltrans0.ltrans.o
 .text.gpio_set_drive_strength
                0x10006020       0x20 /var/folders/01/r6qc96lx1x7c0h1529l70j5m0000gn/T//ccqg8YyW.ltrans0.ltrans.o
                0x10006020                gpio_set_drive_strength
 .text.pio_sm_init
                0x10006040       0x84 /var/folders/01/r6qc96lx1x7c0h1529l70j5m0000gn/T//ccqg8YyW.ltrans0.ltrans.o
                0x10006040                pio_sm_init
 .text.pio_sm_set_consecutive_pindirs
                0x100060c4       0x90 /var/folders/01/r6qc96lx1x7c0h1529l70j5m0000gn/T//ccqg8YyW.ltrans0.ltrans.o
                0x100060c4                pio_sm_set_consecutive_pindirs
 .text.pio_sm_set_pins_with_mask
                0x10006154       0x7a /var/folders/01/r6qc96lx1x7c0h1529l70j5m0000gn/T//ccqg8YyW.ltrans0.ltrans.o
                0x10006154                pio_sm_set_pins_with_mask
 *fill*         0x100061ce        0x2 
 .text.pio_add_program
                0x100061d0       0xd8 /var/folders/01/r6qc96lx1x7c0h1529l70j5m0000gn/T//ccqg8YyW.ltrans0.ltrans.o
                0x100061d0                pio_add_program
 .text.pio_claim_unused_sm
                0x100062a8       0x84 /var/folders/01/r6qc96lx1x7c0h1529l70j5m0000gn/T//ccqg8YyW.ltrans0.ltrans.o
                0x100062a8                pio_claim_unused_sm
 .text.clock_get_hz
                0x1000632c        0xc /var/folders/01/r6qc96lx1x7c0h1529l70j5m0000gn/T//ccqg8YyW.ltrans0.ltrans.o
                0x1000632c                clock_get_hz
 .text.split_shared_memory_lock
                0x10006338       0x80 /var/folders/01/r6qc96lx1x7c0h1529l70j5m0000gn/T//ccqg8YyW.ltrans0.ltrans.o
                0x10006338                split_shared_memory_lock
 .text._fini    0x100063b8        0x2 /var/folders/01/r6qc96lx1x7c0h1529l70j5m0000gn/T//ccqg8YyW.ltrans0.ltrans.o
                0x100063b8                _fini
 .text.led_init_ports
                0x100063ba        0x2 /var/folders/01/r6qc96lx1x7c0h1529l70j5m0000gn/T//ccqg8YyW.ltrans0.ltrans.o
                0x100063ba                __cpu_init
 .text._getpid  0x100063bc        0x4 /var/folders/01/r6qc96lx1x7c0h1529l70j5m0000gn/T//ccqg8YyW.ltrans0.ltrans.o
                0x100063bc                _getpid
 .text._kill    0x100063c0        0xc /var/folders/01/r6qc96lx1x7c0h1529l70j5m0000gn/T//ccqg8YyW.ltrans0.ltrans.o
                0x100063c0                _kill
 .text._exit    0x100063cc        0xc /var/folders/01/r6qc96lx1x7c0h1529l70j5m0000gn/T//ccqg8YyW.ltrans0.ltrans.o
                0x100063cc                _exit
 .text._isatty_r
                0x100063d8        0x4 /var/folders/01/r6qc96lx1x7c0h1529l70j5m0000gn/T//ccqg8YyW.ltrans0.ltrans.o
                0x100063d8                _isatty_r
 .text._fstat_r
                0x100063dc       0x18 /var/folders/01/r6qc96lx1x7c0h1529l70j5m0000gn/T//ccqg8YyW.ltrans0.ltrans.o
                0x100063dc                _fstat_r
 .text._sbrk_r  0x100063f4       0x3c /var/folders/01/r6qc96lx1x7c0h1529l70j5m0000gn/T//ccqg8YyW.ltrans0.ltrans.o
                0x100063f4                _sbrk_r
 .text._close_r
                0x10006430        0x4 /var/folders/01/r6qc96lx1x7c0h1529l70j5m0000gn/T//ccqg8YyW.ltrans0.ltrans.o
                0x10006430                _close_r
 .text._write_r
                0x10006434        0x4 /var/folders/01/r6qc96lx1x7c0h1529l70j5m0000gn/T//ccqg8YyW.ltrans0.ltrans.o
                0x10006434                _write_r
 .text._lseek_r
                0x10006438        0x4 /var/folders/01/r6qc96lx1x7c0h1529l70j5m0000gn/T//ccqg8YyW.ltrans0.ltrans.o
                0x10006438                _lseek_r
 .text._read_r  0x1000643c        0xa /var/folders/01/r6qc96lx1x7c0h1529l70j5m0000gn/T//ccqg8YyW.ltrans0.ltrans.o
                0x1000643c                _read_r
 *fill*         0x10006446        0x2 
 .text.nvicEnableVector
                0x10006448       0x40 /var/folders/01/r6qc96lx1x7c0h1529l70j5m0000gn/T//ccqg8YyW.ltrans0.ltrans.o
                0x10006448                nvicEnableVector
 .text.ws2812_init
                0x10006488      0x1ac /var/folders/01/r6qc96lx1x7c0h1529l70j5m0000gn/T//ccqg8YyW.ltrans0.ltrans.o
 .text.i2cStop  0x10006634       0xc4 /var/folders/01/r6qc96lx1x7c0h1529l70j5m0000gn/T//ccqg8YyW.ltrans0.ltrans.o
                0x10006634                i2cStop
 .text.i2cStart
                0x100066f8       0xf0 /var/folders/01/r6qc96lx1x7c0h1529l70j5m0000gn/T//ccqg8YyW.ltrans0.ltrans.o
                0x100066f8                i2cStart
 .text.__port_spinlock_release
                0x100067e8       0x10 /var/folders/01/r6qc96lx1x7c0h1529l70j5m0000gn/T//ccqg8YyW.ltrans0.ltrans.o
                0x100067e8                __port_spinlock_release
 .text.__port_irq_epilogue
                0x100067f8       0x4c /var/folders/01/r6qc96lx1x7c0h1529l70j5m0000gn/T//ccqg8YyW.ltrans0.ltrans.o
                0x100067f8                __port_irq_epilogue
 .text.Vector4C
                0x10006844       0x28 /var/folders/01/r6qc96lx1x7c0h1529l70j5m0000gn/T//ccqg8YyW.ltrans0.ltrans.o
                0x10006844                Vector4C
 .text.Vector48
                0x1000686c       0x28 /var/folders/01/r6qc96lx1x7c0h1529l70j5m0000gn/T//ccqg8YyW.ltrans0.ltrans.o
                0x1000686c                Vector48
 .text.Vector44
                0x10006894       0x24 /var/folders/01/r6qc96lx1x7c0h1529l70j5m0000gn/T//ccqg8YyW.ltrans0.ltrans.o
                0x10006894                Vector44
 .text.Vector40
                0x100068b8       0x24 /var/folders/01/r6qc96lx1x7c0h1529l70j5m0000gn/T//ccqg8YyW.ltrans0.ltrans.o
                0x100068b8                Vector40
 .text.Vector70
                0x100068dc       0x34 /var/folders/01/r6qc96lx1x7c0h1529l70j5m0000gn/T//ccqg8YyW.ltrans0.ltrans.o
                0x100068dc                Vector70
 .text.Vector6C
                0x10006910       0x34 /var/folders/01/r6qc96lx1x7c0h1529l70j5m0000gn/T//ccqg8YyW.ltrans0.ltrans.o
                0x10006910                Vector6C
 .text.Vector80
                0x10006944       0x3c /var/folders/01/r6qc96lx1x7c0h1529l70j5m0000gn/T//ccqg8YyW.ltrans0.ltrans.o
                0x10006944                Vector80
 .text.Vector7C
                0x10006980       0x20 /var/folders/01/r6qc96lx1x7c0h1529l70j5m0000gn/T//ccqg8YyW.ltrans0.ltrans.o
                0x10006980                Vector7C
 .text.NMI_Handler
                0x100069a0       0x12 /var/folders/01/r6qc96lx1x7c0h1529l70j5m0000gn/T//ccqg8YyW.ltrans0.ltrans.o
                0x100069a0                NMI_Handler
 .text.chThdResumeI
                0x100069b2       0x16 /var/folders/01/r6qc96lx1x7c0h1529l70j5m0000gn/T//ccqg8YyW.ltrans0.ltrans.o
                0x100069b2                chThdResumeI
 .text.Vector54
                0x100069c8      0x2ac /var/folders/01/r6qc96lx1x7c0h1529l70j5m0000gn/T//ccqg8YyW.ltrans0.ltrans.o
                0x100069c8                Vector54
 .text.Vector98
                0x10006c74      0x190 /var/folders/01/r6qc96lx1x7c0h1529l70j5m0000gn/T//ccqg8YyW.ltrans0.ltrans.o
                0x10006c74                Vector98
 .text.VectorA0
                0x10006e04      0x15c /var/folders/01/r6qc96lx1x7c0h1529l70j5m0000gn/T//ccqg8YyW.ltrans0.ltrans.o
                0x10006e04                VectorA0
 .text._usb_ep0setup
                0x10006f60      0x3d0 /var/folders/01/r6qc96lx1x7c0h1529l70j5m0000gn/T//ccqg8YyW.ltrans0.ltrans.o
 .text.chThdSuspendTimeoutS
                0x10007330       0x2c /var/folders/01/r6qc96lx1x7c0h1529l70j5m0000gn/T//ccqg8YyW.ltrans0.ltrans.o
                0x10007330                chThdSuspendTimeoutS
 .text.i2cMasterTransmitTimeout
                0x1000735c       0xbc /var/folders/01/r6qc96lx1x7c0h1529l70j5m0000gn/T//ccqg8YyW.ltrans0.ltrans.o
                0x1000735c                i2cMasterTransmitTimeout
 .text.chThdSleep
                0x10007418       0x16 /var/folders/01/r6qc96lx1x7c0h1529l70j5m0000gn/T//ccqg8YyW.ltrans0.ltrans.o
                0x10007418                chThdSleep
 *fill*         0x1000742e        0x2 
 .text.perform_space_cadet.constprop.109
                0x10007430       0xb0 /var/folders/01/r6qc96lx1x7c0h1529l70j5m0000gn/T//ccqg8YyW.ltrans0.ltrans.o
 .text.soft_reset_keyboard
                0x100074e0       0x2c /var/folders/01/r6qc96lx1x7c0h1529l70j5m0000gn/T//ccqg8YyW.ltrans0.ltrans.o
 .text.process_record
                0x1000750c      0x9d4 /var/folders/01/r6qc96lx1x7c0h1529l70j5m0000gn/T//ccqg8YyW.ltrans0.ltrans.o
 .text.waiting_buffer_scan_tap
                0x10007ee0       0x80 /var/folders/01/r6qc96lx1x7c0h1529l70j5m0000gn/T//ccqg8YyW.ltrans0.ltrans.o
 .text.process_tapping
                0x10007f60      0x25c /var/folders/01/r6qc96lx1x7c0h1529l70j5m0000gn/T//ccqg8YyW.ltrans0.ltrans.o
 .text.action_exec
                0x100081bc       0xd8 /var/folders/01/r6qc96lx1x7c0h1529l70j5m0000gn/T//ccqg8YyW.ltrans0.ltrans.o
 .text.generate_tick_event
                0x10008294       0x30 /var/folders/01/r6qc96lx1x7c0h1529l70j5m0000gn/T//ccqg8YyW.ltrans0.ltrans.o
 .text.chThdExit
                0x100082c4       0x28 /var/folders/01/r6qc96lx1x7c0h1529l70j5m0000gn/T//ccqg8YyW.ltrans0.ltrans.o
                0x100082c4                chThdExit
 .text.chThdCreateStatic
                0x100082ec       0x8c /var/folders/01/r6qc96lx1x7c0h1529l70j5m0000gn/T//ccqg8YyW.ltrans0.ltrans.o
                0x100082ec                chThdCreateStatic
 .text.__sch_reschedule_ahead
                0x10008378       0x34 /var/folders/01/r6qc96lx1x7c0h1529l70j5m0000gn/T//ccqg8YyW.ltrans0.ltrans.o
                0x10008378                chSchDoPreemption
 .text.chSchRescheduleS
                0x100083ac       0x28 /var/folders/01/r6qc96lx1x7c0h1529l70j5m0000gn/T//ccqg8YyW.ltrans0.ltrans.o
 .text.usbStop.constprop.84
                0x100083d4       0x98 /var/folders/01/r6qc96lx1x7c0h1529l70j5m0000gn/T//ccqg8YyW.ltrans0.ltrans.o
 .text.split_shared_memory_unlock
                0x1000846c       0x68 /var/folders/01/r6qc96lx1x7c0h1529l70j5m0000gn/T//ccqg8YyW.ltrans0.ltrans.o
                0x1000846c                split_shared_memory_unlock
 .text.send_report
                0x100084d4      0x198 /var/folders/01/r6qc96lx1x7c0h1529l70j5m0000gn/T//ccqg8YyW.ltrans0.ltrans.o
 .text.send_extra
                0x1000866c        0xe /var/folders/01/r6qc96lx1x7c0h1529l70j5m0000gn/T//ccqg8YyW.ltrans0.ltrans.o
 .text.send_mouse
                0x1000867a        0xe /var/folders/01/r6qc96lx1x7c0h1529l70j5m0000gn/T//ccqg8YyW.ltrans0.ltrans.o
 .text.send_nkro
                0x10008688        0xe /var/folders/01/r6qc96lx1x7c0h1529l70j5m0000gn/T//ccqg8YyW.ltrans0.ltrans.o
 .text.send_keyboard
                0x10008696        0xe /var/folders/01/r6qc96lx1x7c0h1529l70j5m0000gn/T//ccqg8YyW.ltrans0.ltrans.o
 .text.chSysPolledDelayX
                0x100086a4       0x14 /var/folders/01/r6qc96lx1x7c0h1529l70j5m0000gn/T//ccqg8YyW.ltrans0.ltrans.o
                0x100086a4                chSysPolledDelayX
 .text.ws2812_setleds
                0x100086b8      0x160 /var/folders/01/r6qc96lx1x7c0h1529l70j5m0000gn/T//ccqg8YyW.ltrans0.ltrans.o
 .text.transaction_handler_master.isra.4
                0x10008818       0x4c /var/folders/01/r6qc96lx1x7c0h1529l70j5m0000gn/T//ccqg8YyW.ltrans0.ltrans.o
 .text.matrix_scan
                0x10008864      0x4c8 /var/folders/01/r6qc96lx1x7c0h1529l70j5m0000gn/T//ccqg8YyW.ltrans0.ltrans.o
 .text.__init_ram_areas
                0x10008d2c       0x30 /var/folders/01/r6qc96lx1x7c0h1529l70j5m0000gn/T//ccqg8YyW.ltrans0.ltrans.o
                0x10008d2c                __init_ram_areas
 .text.__default_exit
                0x10008d5c        0x2 /var/folders/01/r6qc96lx1x7c0h1529l70j5m0000gn/T//ccqg8YyW.ltrans0.ltrans.o
                0x10008d5c                __default_exit
 .text.__early_init
                0x10008d5e        0x2 /var/folders/01/r6qc96lx1x7c0h1529l70j5m0000gn/T//ccqg8YyW.ltrans0.ltrans.o
                0x10008d5e                __early_init
 .text.__late_init
                0x10008d60       0x44 /var/folders/01/r6qc96lx1x7c0h1529l70j5m0000gn/T//ccqg8YyW.ltrans0.ltrans.o
                0x10008d60                __late_init
 .text.startup.main
                0x10008da4     0x13a0 /var/folders/01/r6qc96lx1x7c0h1529l70j5m0000gn/T//ccqg8YyW.ltrans0.ltrans.o
                0x10008da4                main
 .text.SlaveThread
                0x1000a144       0xb4 .build/obj_crkbd_rev1_tensotha_helios/serial_protocol.a(serial_protocol.o)
 .text.soft_serial_target_init
                0x1000a1f8       0x24 .build/obj_crkbd_rev1_tensotha_helios/serial_protocol.a(serial_protocol.o)
                0x1000a1f8                soft_serial_target_init
 .text.soft_serial_initiator_init
                0x1000a21c        0x8 .build/obj_crkbd_rev1_tensotha_helios/serial_protocol.a(serial_protocol.o)
                0x1000a21c                soft_serial_initiator_init
 .text.soft_serial_transaction
                0x1000a224       0xa0 .build/obj_crkbd_rev1_tensotha_helios/serial_protocol.a(serial_protocol.o)
                0x1000a224                soft_serial_transaction
 .text.port_lock
                0x1000a2c4       0x16 .build/obj_crkbd_rev1_tensotha_helios/serial_vendor.a(serial_vendor.o)
 .text.port_unlock
                0x1000a2da       0x12 .build/obj_crkbd_rev1_tensotha_helios/serial_vendor.a(serial_vendor.o)
 .text.sm_config_set_clkdiv
                0x1000a2ec       0x3a .build/obj_crkbd_rev1_tensotha_helios/serial_vendor.a(serial_vendor.o)
 *fill*         0x1000a326        0x2 
 .text.pio_sm_set_enabled.constprop.21
                0x1000a328       0x18 .build/obj_crkbd_rev1_tensotha_helios/serial_vendor.a(serial_vendor.o)
 .text.receive_impl
                0x1000a340       0xc4 .build/obj_crkbd_rev1_tensotha_helios/serial_vendor.a(serial_vendor.o)
 .text.Vector5C
                0x1000a404       0x9c .build/obj_crkbd_rev1_tensotha_helios/serial_vendor.a(serial_vendor.o)
                0x1000a404                Vector5C
 .text.serial_transport_driver_clear
                0x1000a4a0       0x44 .build/obj_crkbd_rev1_tensotha_helios/serial_vendor.a(serial_vendor.o)
                0x1000a4a0                serial_transport_driver_clear
 .text.hot.serial_transport_send
                0x1000a4e4       0xcc .build/obj_crkbd_rev1_tensotha_helios/serial_vendor.a(serial_vendor.o)
                0x1000a4e4                serial_transport_send
 .text.hot.serial_transport_receive
                0x1000a5b0       0x10 .build/obj_crkbd_rev1_tensotha_helios/serial_vendor.a(serial_vendor.o)
                0x1000a5b0                serial_transport_receive
 .text.hot.serial_transport_receive_blocking
                0x1000a5c0        0xc .build/obj_crkbd_rev1_tensotha_helios/serial_vendor.a(serial_vendor.o)
                0x1000a5c0                serial_transport_receive_blocking
 .text.serial_transport_driver_slave_init
                0x1000a5cc      0x1cc .build/obj_crkbd_rev1_tensotha_helios/serial_vendor.a(serial_vendor.o)
                0x1000a5cc                serial_transport_driver_slave_init
 .text.serial_transport_driver_master_init
                0x1000a798        0x8 .build/obj_crkbd_rev1_tensotha_helios/serial_vendor.a(serial_vendor.o)
                0x1000a798                serial_transport_driver_master_init
 .text.i2c_epilogue
                0x1000a7a0       0x20 .build/obj_crkbd_rev1_tensotha_helios/i2c_master.a(i2c_master.o)
 .text.i2c_init
                0x1000a7c0       0x54 .build/obj_crkbd_rev1_tensotha_helios/i2c_master.a(i2c_master.o)
                0x1000a7c0                i2c_init
 .text.i2c_transmit
                0x1000a814       0x64 .build/obj_crkbd_rev1_tensotha_helios/i2c_master.a(i2c_master.o)
                0x1000a814                i2c_transmit
 .text.i2c_write_register
                0x1000a878       0x94 .build/obj_crkbd_rev1_tensotha_helios/i2c_master.a(i2c_master.o)
                0x1000a878                i2c_write_register
 *fill*         0x1000a90c        0x4 
 .text.i2c_write_register.__stub
                0x1000a910       0xa0 linker stubs
 *(.glue_7t)
 .glue_7t       0x1000a9b0        0x0 linker stubs
 *(.glue_7)
 .glue_7        0x1000a9b0        0x0 linker stubs
 *(.gcc*)
                0x1000a9b0                        __text_end__ = .

.vfp11_veneer   0x1000a9b0        0x0
 .vfp11_veneer  0x1000a9b0        0x0 linker stubs

.v4_bx          0x1000a9b0        0x0
 .v4_bx         0x1000a9b0        0x0 linker stubs

.iplt           0x1000a9b0        0x0
 .iplt          0x1000a9b0        0x0 .build/obj_crkbd_rev1_tensotha_helios/serial_protocol.a(serial_protocol.o)

.rodata         0x1000a9b0     0x100c
                0x1000a9b0                        __rodata_base__ = .
 *(.rodata)
 .rodata        0x1000a9b0       0xac /opt/homebrew/Cellar/arm-none-eabi-gcc@8/8.5.0_2/lib/arm-none-eabi-gcc/8/gcc/arm-none-eabi/8.5.0/thumb/v6-m/nofp/libgcc.a(divsf3.o)
 .rodata        0x1000aa5c       0x40 /opt/homebrew/Cellar/arm-none-eabi-gcc@8/8.5.0_2/lib/arm-none-eabi-gcc/8/gcc/arm-none-eabi/8.5.0/thumb/v6-m/nofp/libgcc.a(mulsf3.o)
 .rodata        0x1000aa9c        0x4 /opt/homebrew/Cellar/arm-none-eabi-gcc@8/8.5.0_2/lib/arm-none-eabi-gcc/8/gcc/arm-none-eabi/8.5.0/../../../../../../arm-none-eabi/lib/thumb/v6-m/nofp/libg_nano.a(lib_a-impure.o)
                0x1000aa9c                _global_impure_ptr
 .rodata        0x1000aaa0       0x60 /opt/homebrew/Cellar/arm-none-eabi-gcc@8/8.5.0_2/lib/arm-none-eabi-gcc/8/gcc/arm-none-eabi/8.5.0/../../../../../../arm-none-eabi/lib/thumb/v6-m/nofp/libg_nano.a(lib_a-findfp.o)
                0x1000aaa0                __sf_fake_stderr
                0x1000aac0                __sf_fake_stdout
                0x1000aae0                __sf_fake_stdin
 *(.rodata.*)
 .rodata.rgblight_effect_twinkle.cst1
                0x1000ab00        0x1 /var/folders/01/r6qc96lx1x7c0h1529l70j5m0000gn/T//ccqg8YyW.ltrans0.ltrans.o
 .rodata.CIE1931_CURVE
                0x1000ab01      0x100 /var/folders/01/r6qc96lx1x7c0h1529l70j5m0000gn/T//ccqg8YyW.ltrans0.ltrans.o
 *fill*         0x1000ac01        0x3 
 .rodata.CSWTCH.0
                0x1000ac04        0xc /var/folders/01/r6qc96lx1x7c0h1529l70j5m0000gn/T//ccqg8YyW.ltrans0.ltrans.o
 .rodata.CSWTCH.1
                0x1000ac10        0x3 /var/folders/01/r6qc96lx1x7c0h1529l70j5m0000gn/T//ccqg8YyW.ltrans0.ltrans.o
 .rodata.CSWTCH.8
                0x1000ac13        0x3 /var/folders/01/r6qc96lx1x7c0h1529l70j5m0000gn/T//ccqg8YyW.ltrans0.ltrans.o
 .rodata.CSWTCH.9
                0x1000ac16       0x36 /var/folders/01/r6qc96lx1x7c0h1529l70j5m0000gn/T//ccqg8YyW.ltrans0.ltrans.o
 .rodata.ConfigurationDescriptor
                0x1000ac4c       0x3b /var/folders/01/r6qc96lx1x7c0h1529l70j5m0000gn/T//ccqg8YyW.ltrans0.ltrans.o
 .rodata.DeviceDescriptor
                0x1000ac87       0x12 /var/folders/01/r6qc96lx1x7c0h1529l70j5m0000gn/T//ccqg8YyW.ltrans0.ltrans.o
 .rodata.KeyboardReport
                0x1000ac99       0x44 /var/folders/01/r6qc96lx1x7c0h1529l70j5m0000gn/T//ccqg8YyW.ltrans0.ltrans.o
 .rodata.LanguageString
                0x1000acdd        0x4 /var/folders/01/r6qc96lx1x7c0h1529l70j5m0000gn/T//ccqg8YyW.ltrans0.ltrans.o
 .rodata.ManufacturerString
                0x1000ace1       0x12 /var/folders/01/r6qc96lx1x7c0h1529l70j5m0000gn/T//ccqg8YyW.ltrans0.ltrans.o
 .rodata.ProductString
                0x1000acf3        0xe /var/folders/01/r6qc96lx1x7c0h1529l70j5m0000gn/T//ccqg8YyW.ltrans0.ltrans.o
 .rodata.RGBLED_BREATHING_INTERVALS
                0x1000ad01        0x4 /var/folders/01/r6qc96lx1x7c0h1529l70j5m0000gn/T//ccqg8YyW.ltrans0.ltrans.o
 .rodata.RGBLED_GRADIENT_RANGES
                0x1000ad05        0x5 /var/folders/01/r6qc96lx1x7c0h1529l70j5m0000gn/T//ccqg8YyW.ltrans0.ltrans.o
 .rodata.RGBLED_KNIGHT_INTERVALS
                0x1000ad0a        0x3 /var/folders/01/r6qc96lx1x7c0h1529l70j5m0000gn/T//ccqg8YyW.ltrans0.ltrans.o
 .rodata.RGBLED_RAINBOW_MOOD_INTERVALS
                0x1000ad0d        0x3 /var/folders/01/r6qc96lx1x7c0h1529l70j5m0000gn/T//ccqg8YyW.ltrans0.ltrans.o
 .rodata.RGBLED_RAINBOW_SWIRL_INTERVALS
                0x1000ad10        0x3 /var/folders/01/r6qc96lx1x7c0h1529l70j5m0000gn/T//ccqg8YyW.ltrans0.ltrans.o
 .rodata.RGBLED_TWINKLE_INTERVALS
                0x1000ad13        0x3 /var/folders/01/r6qc96lx1x7c0h1529l70j5m0000gn/T//ccqg8YyW.ltrans0.ltrans.o
 .rodata.SharedReport
                0x1000ad16       0xb6 /var/folders/01/r6qc96lx1x7c0h1529l70j5m0000gn/T//ccqg8YyW.ltrans0.ltrans.o
 .rodata.Vector80.str1.1
                0x1000adcc       0x80 /var/folders/01/r6qc96lx1x7c0h1529l70j5m0000gn/T//ccqg8YyW.ltrans0.ltrans.o
                                  0xd (size before relaxing)
 .rodata.__rp_dma_channels
                0x1000ae4c       0xc0 /var/folders/01/r6qc96lx1x7c0h1529l70j5m0000gn/T//ccqg8YyW.ltrans0.ltrans.o
 .rodata._exit.str1.1
                0x1000af0c        0x5 /var/folders/01/r6qc96lx1x7c0h1529l70j5m0000gn/T//ccqg8YyW.ltrans0.ltrans.o
 .rodata._kill.str1.1
                0x1000af0c        0x5 /var/folders/01/r6qc96lx1x7c0h1529l70j5m0000gn/T//ccqg8YyW.ltrans0.ltrans.o
 .rodata.active_status
                0x1000af0c        0x2 /var/folders/01/r6qc96lx1x7c0h1529l70j5m0000gn/T//ccqg8YyW.ltrans0.ltrans.o
 *fill*         0x1000af0e        0x2 
 .rodata.alarm_irqs
                0x1000af10       0x20 /var/folders/01/r6qc96lx1x7c0h1529l70j5m0000gn/T//ccqg8YyW.ltrans0.ltrans.o
 .rodata.ch_core0_cfg
                0x1000af30        0xc /var/folders/01/r6qc96lx1x7c0h1529l70j5m0000gn/T//ccqg8YyW.ltrans0.ltrans.o
 .rodata.code_to_name
                0x1000af3c       0x3c /var/folders/01/r6qc96lx1x7c0h1529l70j5m0000gn/T//ccqg8YyW.ltrans0.ltrans.o
 .rodata.col_pins
                0x1000af78       0x18 /var/folders/01/r6qc96lx1x7c0h1529l70j5m0000gn/T//ccqg8YyW.ltrans0.ltrans.o
 .rodata.crkbd_logo.13093
                0x1000af90       0x40 /var/folders/01/r6qc96lx1x7c0h1529l70j5m0000gn/T//ccqg8YyW.ltrans0.ltrans.o
 .rodata.display_flipped.9055
                0x1000afd0        0x5 /var/folders/01/r6qc96lx1x7c0h1529l70j5m0000gn/T//ccqg8YyW.ltrans0.ltrans.o
 .rodata.display_normal.9054
                0x1000afd5        0x5 /var/folders/01/r6qc96lx1x7c0h1529l70j5m0000gn/T//ccqg8YyW.ltrans0.ltrans.o
 .rodata.display_off.9204
                0x1000afda        0x2 /var/folders/01/r6qc96lx1x7c0h1529l70j5m0000gn/T//ccqg8YyW.ltrans0.ltrans.o
 .rodata.display_on.9200
                0x1000afdc        0x2 /var/folders/01/r6qc96lx1x7c0h1529l70j5m0000gn/T//ccqg8YyW.ltrans0.ltrans.o
 .rodata.display_setup1.9053
                0x1000afde        0xb /var/folders/01/r6qc96lx1x7c0h1529l70j5m0000gn/T//ccqg8YyW.ltrans0.ltrans.o
 .rodata.display_setup2.9056
                0x1000afe9        0xd /var/folders/01/r6qc96lx1x7c0h1529l70j5m0000gn/T//ccqg8YyW.ltrans0.ltrans.o
 *fill*         0x1000aff6        0x2 
 .rodata.ep0config
                0x1000aff8       0x1c /var/folders/01/r6qc96lx1x7c0h1529l70j5m0000gn/T//ccqg8YyW.ltrans0.ltrans.o
 .rodata.font   0x1000b014      0x540 /var/folders/01/r6qc96lx1x7c0h1529l70j5m0000gn/T//ccqg8YyW.ltrans0.ltrans.o
 .rodata.halted_status
                0x1000b554        0x2 /var/folders/01/r6qc96lx1x7c0h1529l70j5m0000gn/T//ccqg8YyW.ltrans0.ltrans.o
 .rodata.keymaps
                0x1000b556      0x180 /var/folders/01/r6qc96lx1x7c0h1529l70j5m0000gn/T//ccqg8YyW.ltrans0.ltrans.o
 .rodata.main.str1.1
                0x1000b6d6       0x31 /var/folders/01/r6qc96lx1x7c0h1529l70j5m0000gn/T//ccqg8YyW.ltrans0.ltrans.o
 .rodata.mode_base_table
                0x1000b6d6       0x2b /var/folders/01/r6qc96lx1x7c0h1529l70j5m0000gn/T//ccqg8YyW.ltrans0.ltrans.o
 .rodata.pio_add_program.str1.1
                0x1000b701       0x11 /var/folders/01/r6qc96lx1x7c0h1529l70j5m0000gn/T//ccqg8YyW.ltrans0.ltrans.o
 .rodata.pio_claim_unused_sm.str1.1
                0x1000b701       0x24 /var/folders/01/r6qc96lx1x7c0h1529l70j5m0000gn/T//ccqg8YyW.ltrans0.ltrans.o
 *fill*         0x1000b701        0x3 
 .rodata.ram_areas
                0x1000b704       0x80 /var/folders/01/r6qc96lx1x7c0h1529l70j5m0000gn/T//ccqg8YyW.ltrans0.ltrans.o
 .rodata.rgblight_effect_breathe_table
                0x1000b784      0x100 /var/folders/01/r6qc96lx1x7c0h1529l70j5m0000gn/T//ccqg8YyW.ltrans0.ltrans.o
 .rodata.row_pins
                0x1000b884       0x10 /var/folders/01/r6qc96lx1x7c0h1529l70j5m0000gn/T//ccqg8YyW.ltrans0.ltrans.o
 .rodata.source_map.9107
                0x1000b894        0x4 /var/folders/01/r6qc96lx1x7c0h1529l70j5m0000gn/T//ccqg8YyW.ltrans0.ltrans.o
 .rodata.split_shmem
                0x1000b898        0x4 /var/folders/01/r6qc96lx1x7c0h1529l70j5m0000gn/T//ccqg8YyW.ltrans0.ltrans.o
                0x1000b898                split_shmem
 .rodata.str1.1
                0x1000b89c        0x3 /var/folders/01/r6qc96lx1x7c0h1529l70j5m0000gn/T//ccqg8YyW.ltrans0.ltrans.o
 .rodata.target_map.9108
                0x1000b89c        0x4 /var/folders/01/r6qc96lx1x7c0h1529l70j5m0000gn/T//ccqg8YyW.ltrans0.ltrans.o
 .rodata.usb_endpoint_interface_lut
                0x1000b8a0        0x2 /var/folders/01/r6qc96lx1x7c0h1529l70j5m0000gn/T//ccqg8YyW.ltrans0.ltrans.o
 *fill*         0x1000b8a2        0x2 
 .rodata.usbcfg
                0x1000b8a4       0x10 /var/folders/01/r6qc96lx1x7c0h1529l70j5m0000gn/T//ccqg8YyW.ltrans0.ltrans.o
 .rodata.ws2812_program
                0x1000b8b4        0x6 /var/folders/01/r6qc96lx1x7c0h1529l70j5m0000gn/T//ccqg8YyW.ltrans0.ltrans.o
 .rodata.ws2812_program_instructions
                0x1000b8ba        0xc /var/folders/01/r6qc96lx1x7c0h1529l70j5m0000gn/T//ccqg8YyW.ltrans0.ltrans.o
 .rodata.zero_status
                0x1000b8c6        0x2 /var/folders/01/r6qc96lx1x7c0h1529l70j5m0000gn/T//ccqg8YyW.ltrans0.ltrans.o
 .rodata.uart_rx_program
                0x1000b8c8        0x6 .build/obj_crkbd_rev1_tensotha_helios/serial_vendor.a(serial_vendor.o)
 .rodata.uart_rx_program_instructions
                0x1000b8ce       0x12 .build/obj_crkbd_rev1_tensotha_helios/serial_vendor.a(serial_vendor.o)
 .rodata.uart_tx_program
                0x1000b8e0        0x6 .build/obj_crkbd_rev1_tensotha_helios/serial_vendor.a(serial_vendor.o)
 .rodata.uart_tx_program_instructions
                0x1000b8e6        0x8 .build/obj_crkbd_rev1_tensotha_helios/serial_vendor.a(serial_vendor.o)
 *fill*         0x1000b8ee        0x2 
 .rodata.i2cconfig
                0x1000b8f0        0x4 .build/obj_crkbd_rev1_tensotha_helios/i2c_master.a(i2c_master.o)
 .rodata.str1.4
                0x1000b8f4       0xc5 /opt/homebrew/Cellar/arm-none-eabi-gcc@8/8.5.0_2/lib/arm-none-eabi-gcc/8/gcc/arm-none-eabi/8.5.0/../../../../../../arm-none-eabi/lib/thumb/v6-m/nofp/libg_nano.a(lib_a-rand.o)
                                 0x4a (size before relaxing)
 .rodata.str1.4
                0x1000b9b9       0x43 /opt/homebrew/Cellar/arm-none-eabi-gcc@8/8.5.0_2/lib/arm-none-eabi-gcc/8/gcc/arm-none-eabi/8.5.0/../../../../../../arm-none-eabi/lib/thumb/v6-m/nofp/libg_nano.a(lib_a-assert.o)
 .rodata.str1.4
                0x1000b9b9       0x13 /opt/homebrew/Cellar/arm-none-eabi-gcc@8/8.5.0_2/lib/arm-none-eabi-gcc/8/gcc/arm-none-eabi/8.5.0/../../../../../../arm-none-eabi/lib/thumb/v6-m/nofp/libg_nano.a(lib_a-nano-vfprintf.o)
 .rodata.str1.4
                0x1000b9b9       0x25 /opt/homebrew/Cellar/arm-none-eabi-gcc@8/8.5.0_2/lib/arm-none-eabi-gcc/8/gcc/arm-none-eabi/8.5.0/../../../../../../arm-none-eabi/lib/thumb/v6-m/nofp/libg_nano.a(lib_a-nano-vfprintf_i.o)
                0x1000b9fc                        . = ALIGN (0x4)
 *fill*         0x1000b9b9        0x3 
                0x1000b9bc                        __rodata_end__ = .

.rel.dyn        0x1000b9bc        0x0
 .rel.iplt      0x1000b9bc        0x0 .build/obj_crkbd_rev1_tensotha_helios/serial_protocol.a(serial_protocol.o)

.ARM.extab
 *(.ARM.extab* .gnu.linkonce.armextab.*)

.ARM.exidx      0x1000b9bc        0x0
                0x1000b9bc                        __exidx_base__ = .
                0x1000b9bc                        __exidx_start = .
 *(.ARM.exidx* .gnu.linkonce.armexidx.*)
                0x1000b9bc                        __exidx_end__ = .
                0x1000b9bc                        __exidx_end = .

.eh_frame_hdr
 *(.eh_frame_hdr)

.eh_frame
 *(.eh_frame)

.data           0x20000000      0xc58 load address 0x1000b9bc
                [!provide]                        PROVIDE (_textdata = LOADADDR (.data))
                [!provide]                        PROVIDE (_data = .)
                0x1000b9bc                        __textdata_base__ = LOADADDR (.data)
                0x20000000                        __data_base__ = .
 *(vtable)
 *(.time_critical*)
 .time_critical.flash_enable_xip_via_boot2
                0x20000000       0x20 /var/folders/01/r6qc96lx1x7c0h1529l70j5m0000gn/T//ccqg8YyW.ltrans0.ltrans.o
 .time_critical.flash_init_boot2_copyout
                0x20000020       0x30 /var/folders/01/r6qc96lx1x7c0h1529l70j5m0000gn/T//ccqg8YyW.ltrans0.ltrans.o
 .time_critical.flash_range_erase
                0x20000050       0x60 /var/folders/01/r6qc96lx1x7c0h1529l70j5m0000gn/T//ccqg8YyW.ltrans0.ltrans.o
 .time_critical.flash_was_aborted
                0x200000b0       0x10 /var/folders/01/r6qc96lx1x7c0h1529l70j5m0000gn/T//ccqg8YyW.ltrans0.ltrans.o
 .time_critical.flash_cs_force
                0x200000c0       0x24 /var/folders/01/r6qc96lx1x7c0h1529l70j5m0000gn/T//ccqg8YyW.ltrans0.ltrans.o
 .time_critical.flash_put_cmd_addr
                0x200000e4       0x24 /var/folders/01/r6qc96lx1x7c0h1529l70j5m0000gn/T//ccqg8YyW.ltrans0.ltrans.o
 .time_critical.flash_put_get
                0x20000108       0x6a /var/folders/01/r6qc96lx1x7c0h1529l70j5m0000gn/T//ccqg8YyW.ltrans0.ltrans.o
 .time_critical._flash_do_cmd
                0x20000172       0x22 /var/folders/01/r6qc96lx1x7c0h1529l70j5m0000gn/T//ccqg8YyW.ltrans0.ltrans.o
 .time_critical.flash_enable_write
                0x20000194        0xe /var/folders/01/r6qc96lx1x7c0h1529l70j5m0000gn/T//ccqg8YyW.ltrans0.ltrans.o
 .time_critical.flash_wait_ready
                0x200001a2       0x22 /var/folders/01/r6qc96lx1x7c0h1529l70j5m0000gn/T//ccqg8YyW.ltrans0.ltrans.o
 .time_critical.pico_program_bulk
                0x200001c4       0x94 /var/folders/01/r6qc96lx1x7c0h1529l70j5m0000gn/T//ccqg8YyW.ltrans0.ltrans.o
 .time_critical.enter_rx_state
                0x20000258       0x68 .build/obj_crkbd_rev1_tensotha_helios/serial_vendor.a(serial_vendor.o)
 .time_critical.leave_rx_state
                0x200002c0       0x60 .build/obj_crkbd_rev1_tensotha_helios/serial_vendor.a(serial_vendor.o)
 .time_critical.__wrap___aeabi_idiv
                0x20000320       0x40 .build/obj_crkbd_rev1_tensotha_helios/./lib/pico-sdk/src/rp2_common/pico_divider/divider.o
                0x20000320                __wrap___aeabi_idivmod
                0x20000320                divmod_s32s32
                0x20000320                div_s32s32
                0x20000320                __wrap___aeabi_idiv
                0x20000320                divmod_s32s32_unsafe
 .time_critical.__wrap___aeabi_uidiv
                0x20000360       0x3c .build/obj_crkbd_rev1_tensotha_helios/./lib/pico-sdk/src/rp2_common/pico_divider/divider.o
                0x20000360                divmod_u32u32_unsafe
                0x20000360                __wrap___aeabi_uidiv
                0x20000360                __wrap___aeabi_uidivmod
                0x20000360                div_u32u32
                0x20000360                divmod_u32u32
 .time_critical.__wrap___aeabi_ldiv
                0x2000039c      0x3ec .build/obj_crkbd_rev1_tensotha_helios/./lib/pico-sdk/src/rp2_common/pico_divider/divider.o
                0x2000039c                __wrap___aeabi_ldivmod
                0x2000039c                div_s64s64
                0x2000039c                divmod_s64s64
                0x200003b0                divmod_u64u64
                0x200003b0                __wrap___aeabi_uldivmod
                0x200003b0                div_u64u64
                0x200003c4                divmod_s64s64_unsafe
                0x2000044c                divmod_u64u64_unsafe
 .time_critical.__aeabi_lmul
                0x20000788       0x32 .build/obj_crkbd_rev1_tensotha_helios/./lib/pico-sdk/src/rp2_common/pico_int64_ops/pico_int64_ops_aeabi.o
                0x20000788                __wrap___aeabi_lmul
 *fill*         0x200007ba        0x6 
 .time_critical.__aeabi_lmul.__stub
                0x200007c0       0x90 linker stubs
                0x20000850                        . = ALIGN (0x4)
 *fill*         0x20000850        0x0 
 *(.data)
 .data          0x20000850       0x64 /opt/homebrew/Cellar/arm-none-eabi-gcc@8/8.5.0_2/lib/arm-none-eabi-gcc/8/gcc/arm-none-eabi/8.5.0/../../../../../../arm-none-eabi/lib/thumb/v6-m/nofp/libg_nano.a(lib_a-impure.o)
                0x20000850                _impure_ptr
 *(.data.*)
 .data.SPLIT_SHARED_MEMORY_MUTEX
                0x200008b4       0x10 /var/folders/01/r6qc96lx1x7c0h1529l70j5m0000gn/T//ccqg8YyW.ltrans0.ltrans.o
 .data.STATE_MACHINE
                0x200008c4        0x4 /var/folders/01/r6qc96lx1x7c0h1529l70j5m0000gn/T//ccqg8YyW.ltrans0.ltrans.o
 .data.TRANSFER_COUNTER
                0x200008c8        0xc /var/folders/01/r6qc96lx1x7c0h1529l70j5m0000gn/T//ccqg8YyW.ltrans0.ltrans.o
 .data.__compound_literal.0.lto_priv.189
                0x200008d4       0x4c /var/folders/01/r6qc96lx1x7c0h1529l70j5m0000gn/T//ccqg8YyW.ltrans0.ltrans.o
 .data.__compound_literal.1.lto_priv.191
                0x20000920       0x4c /var/folders/01/r6qc96lx1x7c0h1529l70j5m0000gn/T//ccqg8YyW.ltrans0.ltrans.o
 .data.__compound_literal.2
                0x2000096c       0x4c /var/folders/01/r6qc96lx1x7c0h1529l70j5m0000gn/T//ccqg8YyW.ltrans0.ltrans.o
 .data.__compound_literal.3
                0x200009b8       0x4c /var/folders/01/r6qc96lx1x7c0h1529l70j5m0000gn/T//ccqg8YyW.ltrans0.ltrans.o
 .data.__compound_literal.4
                0x20000a04       0x24 /var/folders/01/r6qc96lx1x7c0h1529l70j5m0000gn/T//ccqg8YyW.ltrans0.ltrans.o
 .data.__compound_literal.5
                0x20000a28       0x1c /var/folders/01/r6qc96lx1x7c0h1529l70j5m0000gn/T//ccqg8YyW.ltrans0.ltrans.o
 .data.__compound_literal.7
                0x20000a44       0x4c /var/folders/01/r6qc96lx1x7c0h1529l70j5m0000gn/T//ccqg8YyW.ltrans0.ltrans.o
 .data.__compound_literal.8
                0x20000a90        0x4 /var/folders/01/r6qc96lx1x7c0h1529l70j5m0000gn/T//ccqg8YyW.ltrans0.ltrans.o
 .data.__compound_literal.9
                0x20000a94       0x1c /var/folders/01/r6qc96lx1x7c0h1529l70j5m0000gn/T//ccqg8YyW.ltrans0.ltrans.o
 .data.chibios_driver
                0x20000ab0       0x14 /var/folders/01/r6qc96lx1x7c0h1529l70j5m0000gn/T//ccqg8YyW.ltrans0.ltrans.o
 .data.display_start.9106
                0x20000ac4        0x7 /var/folders/01/r6qc96lx1x7c0h1529l70j5m0000gn/T//ccqg8YyW.ltrans0.ltrans.o
 *fill*         0x20000acb        0x1 
 .data.func     0x20000acc        0x4 /var/folders/01/r6qc96lx1x7c0h1529l70j5m0000gn/T//ccqg8YyW.ltrans0.ltrans.o
 .data.high_bound.7796
                0x20000ad0        0x1 /var/folders/01/r6qc96lx1x7c0h1529l70j5m0000gn/T//ccqg8YyW.ltrans0.ltrans.o
 .data.increment.7797
                0x20000ad1        0x1 /var/folders/01/r6qc96lx1x7c0h1529l70j5m0000gn/T//ccqg8YyW.ltrans0.ltrans.o
 .data.increment.7809
                0x20000ad2        0x1 /var/folders/01/r6qc96lx1x7c0h1529l70j5m0000gn/T//ccqg8YyW.ltrans0.ltrans.o
 .data.isLeftHand
                0x20000ad3        0x1 /var/folders/01/r6qc96lx1x7c0h1529l70j5m0000gn/T//ccqg8YyW.ltrans0.ltrans.o
 .data.key_name
                0x20000ad4        0x1 /var/folders/01/r6qc96lx1x7c0h1529l70j5m0000gn/T//ccqg8YyW.ltrans0.ltrans.o
 *fill*         0x20000ad5        0x1 
 .data.keyboard_protocol
                0x20000ad6        0x1 /var/folders/01/r6qc96lx1x7c0h1529l70j5m0000gn/T//ccqg8YyW.ltrans0.ltrans.o
 *fill*         0x20000ad7        0x1 
 .data.last_num.13198
                0x20000ad8        0x2 /var/folders/01/r6qc96lx1x7c0h1529l70j5m0000gn/T//ccqg8YyW.ltrans0.ltrans.o
 .data.rgblight_ranges
                0x20000ada        0x5 /var/folders/01/r6qc96lx1x7c0h1529l70j5m0000gn/T//ccqg8YyW.ltrans0.ltrans.o
 *fill*         0x20000adf        0x1 
 .data.split_transaction_table
                0x20000ae0       0x3c /var/folders/01/r6qc96lx1x7c0h1529l70j5m0000gn/T//ccqg8YyW.ltrans0.ltrans.o
                0x20000ae0                split_transaction_table
 .data.static_effect_table
                0x20000b1c        0xb /var/folders/01/r6qc96lx1x7c0h1529l70j5m0000gn/T//ccqg8YyW.ltrans0.ltrans.o
 *fill*         0x20000b27        0x1 
 .data.usb_endpoints_in
                0x20000b28      0x128 /var/folders/01/r6qc96lx1x7c0h1529l70j5m0000gn/T//ccqg8YyW.ltrans0.ltrans.o
 .data.rx_state_machine
                0x20000c50        0x4 .build/obj_crkbd_rev1_tensotha_helios/serial_vendor.a(serial_vendor.o)
 .data.tx_state_machine
                0x20000c54        0x4 .build/obj_crkbd_rev1_tensotha_helios/serial_vendor.a(serial_vendor.o)
 *(.ramtext)
                0x20000c58                        . = ALIGN (0x4)
                [!provide]                        PROVIDE (_edata = .)
                0x20000c58                        __data_end__ = .

.igot.plt       0x20000c58        0x0 load address 0x1000c614
 .igot.plt      0x20000c58        0x0 .build/obj_crkbd_rev1_tensotha_helios/serial_protocol.a(serial_protocol.o)

.bss            0x20000c58     0x21d4 load address 0x1000c614
                0x20000c58                        __bss_base__ = .
 *(.bss)
 .bss           0x20000c58        0x8 /opt/homebrew/Cellar/arm-none-eabi-gcc@8/8.5.0_2/lib/arm-none-eabi-gcc/8/gcc/arm-none-eabi/8.5.0/../../../../../../arm-none-eabi/lib/thumb/v6-m/nofp/libg_nano.a(lib_a-nano-mallocr.o)
                0x20000c58                __malloc_free_list
                0x20000c5c                __malloc_sbrk_start
 *(.bss.*)
 .bss.ADCD1     0x20000c60       0x38 /var/folders/01/r6qc96lx1x7c0h1529l70j5m0000gn/T//ccqg8YyW.ltrans0.ltrans.o
 .bss.BOOT2_ROM_RAM
                0x20000c98      0x100 /var/folders/01/r6qc96lx1x7c0h1529l70j5m0000gn/T//ccqg8YyW.ltrans0.ltrans.o
 .bss.LAST_TRANSFER
                0x20000d98        0x8 /var/folders/01/r6qc96lx1x7c0h1529l70j5m0000gn/T//ccqg8YyW.ltrans0.ltrans.o
 .bss.RP_DMA_MODE_WS2812
                0x20000da0        0x4 /var/folders/01/r6qc96lx1x7c0h1529l70j5m0000gn/T//ccqg8YyW.ltrans0.ltrans.o
 .bss.SPID0     0x20000da4       0x30 /var/folders/01/r6qc96lx1x7c0h1529l70j5m0000gn/T//ccqg8YyW.ltrans0.ltrans.o
 .bss.USBD1     0x20000dd4       0xe4 /var/folders/01/r6qc96lx1x7c0h1529l70j5m0000gn/T//ccqg8YyW.ltrans0.ltrans.o
 .bss.WS2812_BUFFER
                0x20000eb8       0xd8 /var/folders/01/r6qc96lx1x7c0h1529l70j5m0000gn/T//ccqg8YyW.ltrans0.ltrans.o
 .bss.__compound_literal.0.lto_priv.188
                0x20000f90        0x8 /var/folders/01/r6qc96lx1x7c0h1529l70j5m0000gn/T//ccqg8YyW.ltrans0.ltrans.o
 .bss.__compound_literal.1.lto_priv.190
                0x20000f98       0x20 /var/folders/01/r6qc96lx1x7c0h1529l70j5m0000gn/T//ccqg8YyW.ltrans0.ltrans.o
 .bss.__compound_literal.10
                0x20000fb8       0x30 /var/folders/01/r6qc96lx1x7c0h1529l70j5m0000gn/T//ccqg8YyW.ltrans0.ltrans.o
 .bss.__compound_literal.6
                0x20000fe8       0x90 /var/folders/01/r6qc96lx1x7c0h1529l70j5m0000gn/T//ccqg8YyW.ltrans0.ltrans.o
 .bss._used_instruction_space
                0x20001078        0x8 /var/folders/01/r6qc96lx1x7c0h1529l70j5m0000gn/T//ccqg8YyW.ltrans0.ltrans.o
 .bss.animation_status
                0x20001080        0x6 /var/folders/01/r6qc96lx1x7c0h1529l70j5m0000gn/T//ccqg8YyW.ltrans0.ltrans.o
 *fill*         0x20001086        0x2 
 .bss.boot2_copyout
                0x20001088      0x100 /var/folders/01/r6qc96lx1x7c0h1529l70j5m0000gn/T//ccqg8YyW.ltrans0.ltrans.o
 .bss.boot2_copyout_valid
                0x20001188        0x1 /var/folders/01/r6qc96lx1x7c0h1529l70j5m0000gn/T//ccqg8YyW.ltrans0.ltrans.o
 .bss.buf.13197
                0x20001189        0x6 /var/folders/01/r6qc96lx1x7c0h1529l70j5m0000gn/T//ccqg8YyW.ltrans0.ltrans.o
 *fill*         0x2000118f        0x1 
 .bss.bulk_write_buffer.5510
                0x20001190       0x80 /var/folders/01/r6qc96lx1x7c0h1529l70j5m0000gn/T//ccqg8YyW.ltrans0.ltrans.o
 .bss.ch_memcore
                0x20001210        0x8 /var/folders/01/r6qc96lx1x7c0h1529l70j5m0000gn/T//ccqg8YyW.ltrans0.ltrans.o
 .bss.ch_system
                0x20001218       0x10 /var/folders/01/r6qc96lx1x7c0h1529l70j5m0000gn/T//ccqg8YyW.ltrans0.ltrans.o
 .bss.claimed   0x20001228        0x1 /var/folders/01/r6qc96lx1x7c0h1529l70j5m0000gn/T//ccqg8YyW.ltrans0.ltrans.o
 *fill*         0x20001229        0x3 
 .bss.configured_freq
                0x2000122c       0x28 /var/folders/01/r6qc96lx1x7c0h1529l70j5m0000gn/T//ccqg8YyW.ltrans0.ltrans.o
 .bss.connection_check_timer.12388
                0x20001254        0x2 /var/folders/01/r6qc96lx1x7c0h1529l70j5m0000gn/T//ccqg8YyW.ltrans0.ltrans.o
 .bss.connection_errors
                0x20001256        0x1 /var/folders/01/r6qc96lx1x7c0h1529l70j5m0000gn/T//ccqg8YyW.ltrans0.ltrans.o
 .bss.debouncing
                0x20001257        0x1 /var/folders/01/r6qc96lx1x7c0h1529l70j5m0000gn/T//ccqg8YyW.ltrans0.ltrans.o
 .bss.debouncing_time
                0x20001258        0x4 /var/folders/01/r6qc96lx1x7c0h1529l70j5m0000gn/T//ccqg8YyW.ltrans0.ltrans.o
 .bss.debug_config
                0x2000125c        0x1 /var/folders/01/r6qc96lx1x7c0h1529l70j5m0000gn/T//ccqg8YyW.ltrans0.ltrans.o
 *fill*         0x2000125d        0x1 
 .bss.default_layer_state
                0x2000125e        0x2 /var/folders/01/r6qc96lx1x7c0h1529l70j5m0000gn/T//ccqg8YyW.ltrans0.ltrans.o
 .bss.descriptor.11987
                0x20001260        0x8 /var/folders/01/r6qc96lx1x7c0h1529l70j5m0000gn/T//ccqg8YyW.ltrans0.ltrans.o
 .bss.dma       0x20001268       0x68 /var/folders/01/r6qc96lx1x7c0h1529l70j5m0000gn/T//ccqg8YyW.ltrans0.ltrans.o
 .bss.dma_channel
                0x200012d0        0x4 /var/folders/01/r6qc96lx1x7c0h1529l70j5m0000gn/T//ccqg8YyW.ltrans0.ltrans.o
 .bss.driver.lto_priv.186
                0x200012d4        0x4 /var/folders/01/r6qc96lx1x7c0h1529l70j5m0000gn/T//ccqg8YyW.ltrans0.ltrans.o
 .bss.driver.lto_priv.187
                0x200012d8        0x4 /var/folders/01/r6qc96lx1x7c0h1529l70j5m0000gn/T//ccqg8YyW.ltrans0.ltrans.o
 .bss.ep0_state
                0x200012dc       0x3c /var/folders/01/r6qc96lx1x7c0h1529l70j5m0000gn/T//ccqg8YyW.ltrans0.ltrans.o
 .bss.event_queue
                0x20001318       0x10 /var/folders/01/r6qc96lx1x7c0h1529l70j5m0000gn/T//ccqg8YyW.ltrans0.ltrans.o
 .bss.event_queue_head
                0x20001328        0x1 /var/folders/01/r6qc96lx1x7c0h1529l70j5m0000gn/T//ccqg8YyW.ltrans0.ltrans.o
 .bss.event_queue_tail
                0x20001329        0x1 /var/folders/01/r6qc96lx1x7c0h1529l70j5m0000gn/T//ccqg8YyW.ltrans0.ltrans.o
 .bss.grave_esc_was_shifted
                0x2000132a        0x1 /var/folders/01/r6qc96lx1x7c0h1529l70j5m0000gn/T//ccqg8YyW.ltrans0.ltrans.o
 *fill*         0x2000132b        0x1 
 .bss.idle_rate.11308
                0x2000132c        0x1 /var/folders/01/r6qc96lx1x7c0h1529l70j5m0000gn/T//ccqg8YyW.ltrans0.ltrans.o
 *fill*         0x2000132d        0x3 
 .bss.interrupts
                0x20001330        0x4 /var/folders/01/r6qc96lx1x7c0h1529l70j5m0000gn/T//ccqg8YyW.ltrans0.ltrans.o
 .bss.is_rgblight_initialized
                0x20001334        0x1 /var/folders/01/r6qc96lx1x7c0h1529l70j5m0000gn/T//ccqg8YyW.ltrans0.ltrans.o
 .bss.keyboard_led_state
                0x20001335        0x1 /var/folders/01/r6qc96lx1x7c0h1529l70j5m0000gn/T//ccqg8YyW.ltrans0.ltrans.o
 .bss.keymap_config
                0x20001336        0x2 /var/folders/01/r6qc96lx1x7c0h1529l70j5m0000gn/T//ccqg8YyW.ltrans0.ltrans.o
 .bss.last_col  0x20001338        0x1 /var/folders/01/r6qc96lx1x7c0h1529l70j5m0000gn/T//ccqg8YyW.ltrans0.ltrans.o
 .bss.last_connected.12426
                0x20001339        0x1 /var/folders/01/r6qc96lx1x7c0h1529l70j5m0000gn/T//ccqg8YyW.ltrans0.ltrans.o
 .bss.last_consumer_usage
                0x2000133a        0x2 /var/folders/01/r6qc96lx1x7c0h1529l70j5m0000gn/T//ccqg8YyW.ltrans0.ltrans.o
 .bss.last_keycode
                0x2000133c        0x2 /var/folders/01/r6qc96lx1x7c0h1529l70j5m0000gn/T//ccqg8YyW.ltrans0.ltrans.o
 .bss.last_led_status.11301
                0x2000133e        0x1 /var/folders/01/r6qc96lx1x7c0h1529l70j5m0000gn/T//ccqg8YyW.ltrans0.ltrans.o
 .bss.last_matrix.12905
                0x2000133f        0x4 /var/folders/01/r6qc96lx1x7c0h1529l70j5m0000gn/T//ccqg8YyW.ltrans0.ltrans.o
 .bss.last_pad.13199
                0x20001343        0x1 /var/folders/01/r6qc96lx1x7c0h1529l70j5m0000gn/T//ccqg8YyW.ltrans0.ltrans.o
 .bss.last_report.8297
                0x20001344        0x8 /var/folders/01/r6qc96lx1x7c0h1529l70j5m0000gn/T//ccqg8YyW.ltrans0.ltrans.o
 .bss.last_report.8301
                0x2000134c       0x20 /var/folders/01/r6qc96lx1x7c0h1529l70j5m0000gn/T//ccqg8YyW.ltrans0.ltrans.o
 .bss.last_row  0x2000136c        0x1 /var/folders/01/r6qc96lx1x7c0h1529l70j5m0000gn/T//ccqg8YyW.ltrans0.ltrans.o
 .bss.last_suspend_state
                0x2000136d        0x1 /var/folders/01/r6qc96lx1x7c0h1529l70j5m0000gn/T//ccqg8YyW.ltrans0.ltrans.o
 *fill*         0x2000136e        0x2 
 .bss.last_sync_timer.12932
                0x20001370        0x4 /var/folders/01/r6qc96lx1x7c0h1529l70j5m0000gn/T//ccqg8YyW.ltrans0.ltrans.o
 .bss.last_system_usage
                0x20001374        0x2 /var/folders/01/r6qc96lx1x7c0h1529l70j5m0000gn/T//ccqg8YyW.ltrans0.ltrans.o
 .bss.last_tick.12753
                0x20001376        0x2 /var/folders/01/r6qc96lx1x7c0h1529l70j5m0000gn/T//ccqg8YyW.ltrans0.ltrans.o
 .bss.last_ticks
                0x20001378        0x4 /var/folders/01/r6qc96lx1x7c0h1529l70j5m0000gn/T//ccqg8YyW.ltrans0.ltrans.o
 .bss.last_timer_c
                0x2000137c        0x2 /var/folders/01/r6qc96lx1x7c0h1529l70j5m0000gn/T//ccqg8YyW.ltrans0.ltrans.o
 .bss.last_timer_w
                0x2000137e        0x2 /var/folders/01/r6qc96lx1x7c0h1529l70j5m0000gn/T//ccqg8YyW.ltrans0.ltrans.o
 .bss.last_update.12904
                0x20001380        0x4 /var/folders/01/r6qc96lx1x7c0h1529l70j5m0000gn/T//ccqg8YyW.ltrans0.ltrans.o
 .bss.last_update.12916
                0x20001384        0x4 /var/folders/01/r6qc96lx1x7c0h1529l70j5m0000gn/T//ccqg8YyW.ltrans0.ltrans.o
 .bss.last_update.12925
                0x20001388        0x4 /var/folders/01/r6qc96lx1x7c0h1529l70j5m0000gn/T//ccqg8YyW.ltrans0.ltrans.o
 .bss.last_update.12937
                0x2000138c        0x4 /var/folders/01/r6qc96lx1x7c0h1529l70j5m0000gn/T//ccqg8YyW.ltrans0.ltrans.o
 .bss.layer_state
                0x20001390        0x2 /var/folders/01/r6qc96lx1x7c0h1529l70j5m0000gn/T//ccqg8YyW.ltrans0.ltrans.o
 .bss.led       0x20001392       0xa2 /var/folders/01/r6qc96lx1x7c0h1529l70j5m0000gn/T//ccqg8YyW.ltrans0.ltrans.o
 .bss.led_twinkle_state
                0x20001434      0x10e /var/folders/01/r6qc96lx1x7c0h1529l70j5m0000gn/T//ccqg8YyW.ltrans0.ltrans.o
 .bss.low_bound.7795
                0x20001542        0x1 /var/folders/01/r6qc96lx1x7c0h1529l70j5m0000gn/T//ccqg8YyW.ltrans0.ltrans.o
 .bss.matrix    0x20001543        0x8 /var/folders/01/r6qc96lx1x7c0h1529l70j5m0000gn/T//ccqg8YyW.ltrans0.ltrans.o
 .bss.matrix_previous.12760
                0x2000154b        0x8 /var/folders/01/r6qc96lx1x7c0h1529l70j5m0000gn/T//ccqg8YyW.ltrans0.ltrans.o
 .bss.maxval.7824
                0x20001553        0x1 /var/folders/01/r6qc96lx1x7c0h1529l70j5m0000gn/T//ccqg8YyW.ltrans0.ltrans.o
 .bss.mouse_report
                0x20001554        0x6 /var/folders/01/r6qc96lx1x7c0h1529l70j5m0000gn/T//ccqg8YyW.ltrans0.ltrans.o
 .bss.mousekey_accel
                0x2000155a        0x1 /var/folders/01/r6qc96lx1x7c0h1529l70j5m0000gn/T//ccqg8YyW.ltrans0.ltrans.o
 .bss.mousekey_repeat
                0x2000155b        0x1 /var/folders/01/r6qc96lx1x7c0h1529l70j5m0000gn/T//ccqg8YyW.ltrans0.ltrans.o
 .bss.mousekey_wheel_repeat
                0x2000155c        0x1 /var/folders/01/r6qc96lx1x7c0h1529l70j5m0000gn/T//ccqg8YyW.ltrans0.ltrans.o
 *fill*         0x2000155d        0x3 
 .bss.ms_offset
                0x20001560        0x4 /var/folders/01/r6qc96lx1x7c0h1529l70j5m0000gn/T//ccqg8YyW.ltrans0.ltrans.o
 .bss.oled_active
                0x20001564        0x1 /var/folders/01/r6qc96lx1x7c0h1529l70j5m0000gn/T//ccqg8YyW.ltrans0.ltrans.o
 .bss.oled_buffer
                0x20001565      0x200 /var/folders/01/r6qc96lx1x7c0h1529l70j5m0000gn/T//ccqg8YyW.ltrans0.ltrans.o
 *fill*         0x20001765        0x3 
 .bss.oled_cursor
                0x20001768        0x4 /var/folders/01/r6qc96lx1x7c0h1529l70j5m0000gn/T//ccqg8YyW.ltrans0.ltrans.o
 .bss.oled_dirty
                0x2000176c        0x2 /var/folders/01/r6qc96lx1x7c0h1529l70j5m0000gn/T//ccqg8YyW.ltrans0.ltrans.o
 .bss.oled_initialized
                0x2000176e        0x1 /var/folders/01/r6qc96lx1x7c0h1529l70j5m0000gn/T//ccqg8YyW.ltrans0.ltrans.o
 .bss.oled_rotation
                0x2000176f        0x1 /var/folders/01/r6qc96lx1x7c0h1529l70j5m0000gn/T//ccqg8YyW.ltrans0.ltrans.o
 .bss.oled_rotation_width
                0x20001770        0x1 /var/folders/01/r6qc96lx1x7c0h1529l70j5m0000gn/T//ccqg8YyW.ltrans0.ltrans.o
 .bss.oled_scrolling
                0x20001771        0x1 /var/folders/01/r6qc96lx1x7c0h1529l70j5m0000gn/T//ccqg8YyW.ltrans0.ltrans.o
 .bss.oled_temp_buffer.9139
                0x20001772        0x6 /var/folders/01/r6qc96lx1x7c0h1529l70j5m0000gn/T//ccqg8YyW.ltrans0.ltrans.o
 .bss.oled_timeout
                0x20001778        0x4 /var/folders/01/r6qc96lx1x7c0h1529l70j5m0000gn/T//ccqg8YyW.ltrans0.ltrans.o
 .bss.oled_update_timeout
                0x2000177c        0x2 /var/folders/01/r6qc96lx1x7c0h1529l70j5m0000gn/T//ccqg8YyW.ltrans0.ltrans.o
 .bss.oneshot_layer_data
                0x2000177e        0x1 /var/folders/01/r6qc96lx1x7c0h1529l70j5m0000gn/T//ccqg8YyW.ltrans0.ltrans.o
 .bss.oneshot_locked_mods
                0x2000177f        0x1 /var/folders/01/r6qc96lx1x7c0h1529l70j5m0000gn/T//ccqg8YyW.ltrans0.ltrans.o
 .bss.oneshot_mods
                0x20001780        0x1 /var/folders/01/r6qc96lx1x7c0h1529l70j5m0000gn/T//ccqg8YyW.ltrans0.ltrans.o
 .bss.pos.7779  0x20001781        0x1 /var/folders/01/r6qc96lx1x7c0h1529l70j5m0000gn/T//ccqg8YyW.ltrans0.ltrans.o
 .bss.raw_matrix
                0x20001782        0x8 /var/folders/01/r6qc96lx1x7c0h1529l70j5m0000gn/T//ccqg8YyW.ltrans0.ltrans.o
 .bss.real_mods
                0x2000178a        0x1 /var/folders/01/r6qc96lx1x7c0h1529l70j5m0000gn/T//ccqg8YyW.ltrans0.ltrans.o
 *fill*         0x2000178b        0x1 
 .bss.report.11253
                0x2000178c       0x4c /var/folders/01/r6qc96lx1x7c0h1529l70j5m0000gn/T//ccqg8YyW.ltrans0.ltrans.o
 .bss.report.11290
                0x200017d8       0x4c /var/folders/01/r6qc96lx1x7c0h1529l70j5m0000gn/T//ccqg8YyW.ltrans0.ltrans.o
 .bss.report_last_timer.7749
                0x20001824        0x2 /var/folders/01/r6qc96lx1x7c0h1529l70j5m0000gn/T//ccqg8YyW.ltrans0.ltrans.o
 *fill*         0x20001826        0x2 
 .bss.rgblight_config
                0x20001828        0x8 /var/folders/01/r6qc96lx1x7c0h1529l70j5m0000gn/T//ccqg8YyW.ltrans0.ltrans.o
 .bss.rgblight_status
                0x20001830        0x3 /var/folders/01/r6qc96lx1x7c0h1529l70j5m0000gn/T//ccqg8YyW.ltrans0.ltrans.o
 .bss.run_idle_task
                0x20001833        0x1 /var/folders/01/r6qc96lx1x7c0h1529l70j5m0000gn/T//ccqg8YyW.ltrans0.ltrans.o
 .bss.sc_last   0x20001834        0x1 /var/folders/01/r6qc96lx1x7c0h1529l70j5m0000gn/T//ccqg8YyW.ltrans0.ltrans.o
 *fill*         0x20001835        0x1 
 .bss.sc_timer  0x20001836        0x2 /var/folders/01/r6qc96lx1x7c0h1529l70j5m0000gn/T//ccqg8YyW.ltrans0.ltrans.o
 .bss.set_report_buf
                0x20001838        0x2 /var/folders/01/r6qc96lx1x7c0h1529l70j5m0000gn/T//ccqg8YyW.ltrans0.ltrans.o
 *fill*         0x2000183a        0x6 
 .bss.shared_memory
                0x20001840       0x20 /var/folders/01/r6qc96lx1x7c0h1529l70j5m0000gn/T//ccqg8YyW.ltrans0.ltrans.o
 .bss.source_layers_cache
                0x20001860       0x18 /var/folders/01/r6qc96lx1x7c0h1529l70j5m0000gn/T//ccqg8YyW.ltrans0.ltrans.o
 .bss.split_config
                0x20001878        0x2 /var/folders/01/r6qc96lx1x7c0h1529l70j5m0000gn/T//ccqg8YyW.ltrans0.ltrans.o
 *fill*         0x2000187a        0x2 
 .bss.st_callbacks
                0x2000187c       0x10 /var/folders/01/r6qc96lx1x7c0h1529l70j5m0000gn/T//ccqg8YyW.ltrans0.ltrans.o
 .bss.sync_timer_ms
                0x2000188c        0x4 /var/folders/01/r6qc96lx1x7c0h1529l70j5m0000gn/T//ccqg8YyW.ltrans0.ltrans.o
 .bss.tapping_key
                0x20001890        0x8 /var/folders/01/r6qc96lx1x7c0h1529l70j5m0000gn/T//ccqg8YyW.ltrans0.ltrans.o
 .bss.temp_buffer.9109
                0x20001898       0x20 /var/folders/01/r6qc96lx1x7c0h1529l70j5m0000gn/T//ccqg8YyW.ltrans0.ltrans.o
 .bss.thatHand  0x200018b8        0x1 /var/folders/01/r6qc96lx1x7c0h1529l70j5m0000gn/T//ccqg8YyW.ltrans0.ltrans.o
 .bss.thisHand  0x200018b9        0x1 /var/folders/01/r6qc96lx1x7c0h1529l70j5m0000gn/T//ccqg8YyW.ltrans0.ltrans.o
 .bss.tick_flag.7750
                0x200018ba        0x1 /var/folders/01/r6qc96lx1x7c0h1529l70j5m0000gn/T//ccqg8YyW.ltrans0.ltrans.o
 *fill*         0x200018bb        0x1 
 .bss.ticks_offset
                0x200018bc        0x4 /var/folders/01/r6qc96lx1x7c0h1529l70j5m0000gn/T//ccqg8YyW.ltrans0.ltrans.o
 .bss.waiting_buffer
                0x200018c0       0x40 /var/folders/01/r6qc96lx1x7c0h1529l70j5m0000gn/T//ccqg8YyW.ltrans0.ltrans.o
 .bss.waiting_buffer_head
                0x20001900        0x1 /var/folders/01/r6qc96lx1x7c0h1529l70j5m0000gn/T//ccqg8YyW.ltrans0.ltrans.o
 .bss.waiting_buffer_tail
                0x20001901        0x1 /var/folders/01/r6qc96lx1x7c0h1529l70j5m0000gn/T//ccqg8YyW.ltrans0.ltrans.o
 .bss.weak_mods
                0x20001902        0x1 /var/folders/01/r6qc96lx1x7c0h1529l70j5m0000gn/T//ccqg8YyW.ltrans0.ltrans.o
 *fill*         0x20001903        0x1 
 .bss.wear_leveling
                0x20001904     0x1008 /var/folders/01/r6qc96lx1x7c0h1529l70j5m0000gn/T//ccqg8YyW.ltrans0.ltrans.o
 *fill*         0x2000290c        0x4 
 .bss.waSlaveThread
                0x20002910      0x4b0 .build/obj_crkbd_rev1_tensotha_helios/serial_protocol.a(serial_protocol.o)
 .bss.rx_thread
                0x20002dc0        0x4 .build/obj_crkbd_rev1_tensotha_helios/serial_vendor.a(serial_vendor.o)
                0x20002dc0                rx_thread
 .bss.tx_thread
                0x20002dc4        0x4 .build/obj_crkbd_rev1_tensotha_helios/serial_vendor.a(serial_vendor.o)
                0x20002dc4                tx_thread
 .bss.is_initialised.8781
                0x20002dc8        0x1 .build/obj_crkbd_rev1_tensotha_helios/i2c_master.a(i2c_master.o)
 *(COMMON)
 *fill*         0x20002dc9        0x3 
 COMMON         0x20002dcc       0x38 /var/folders/01/r6qc96lx1x7c0h1529l70j5m0000gn/T//ccqg8YyW.ltrans0.ltrans.o
                0x20002dcc                I2CD1
 COMMON         0x20002e04       0x21 /opt/homebrew/Cellar/arm-none-eabi-gcc@8/8.5.0_2/lib/arm-none-eabi-gcc/8/gcc/arm-none-eabi/8.5.0/../../../../../../arm-none-eabi/lib/thumb/v6-m/nofp/libg_nano.a(lib_a-lock.o)
                0x20002e04                __lock___atexit_recursive_mutex
                0x20002e08                __lock___arc4random_mutex
                0x20002e0c                __lock___env_recursive_mutex
                0x20002e10                __lock___sinit_recursive_mutex
                0x20002e14                __lock___malloc_recursive_mutex
                0x20002e18                __lock___at_quick_exit_mutex
                0x20002e1c                __lock___dd_hash_mutex
                0x20002e20                __lock___tz_mutex
                0x20002e24                __lock___sfp_recursive_mutex
 *fill*         0x20002e25        0x3 
 COMMON         0x20002e28        0x4 /opt/homebrew/Cellar/arm-none-eabi-gcc@8/8.5.0_2/lib/arm-none-eabi-gcc/8/gcc/arm-none-eabi/8.5.0/../../../../../../arm-none-eabi/lib/thumb/v6-m/nofp/libg_nano.a(lib_a-reent.o)
                0x20002e28                errno
                0x20002e2c                        . = ALIGN (0x4)
                0x20002e2c                        __bss_end__ = .
                [!provide]                        PROVIDE (end = .)
                0x20000000                        __ram0_base__ = ORIGIN (ram0)
                0x00040000                        __ram0_size__ = LENGTH (ram0)
                0x20040000                        __ram0_end__ = (__ram0_base__ + __ram0_size__)
                0x00000000                        __ram1_base__ = ORIGIN (ram1)
                0x00040000                        __ram1_size__ = LENGTH (ram1)
                0x00040000                        __ram1_end__ = (__ram1_base__ + __ram1_size__)
                0x00000000                        __ram2_base__ = ORIGIN (ram2)
                0x00000000                        __ram2_size__ = LENGTH (ram2)
                0x00000000                        __ram2_end__ = (__ram2_base__ + __ram2_size__)
                0x00000000                        __ram3_base__ = ORIGIN (ram3)
                0x00000000                        __ram3_size__ = LENGTH (ram3)
                0x00000000                        __ram3_end__ = (__ram3_base__ + __ram3_size__)
                0x20040000                        __ram4_base__ = ORIGIN (ram4)
                0x00001000                        __ram4_size__ = LENGTH (ram4)
                0x20041000                        __ram4_end__ = (__ram4_base__ + __ram4_size__)
                0x20041000                        __ram5_base__ = ORIGIN (ram5)
                0x00001000                        __ram5_size__ = LENGTH (ram5)
                0x20042000                        __ram5_end__ = (__ram5_base__ + __ram5_size__)
                0x00000000                        __ram6_base__ = ORIGIN (ram6)
                0x00000000                        __ram6_size__ = LENGTH (ram6)
                0x00000000                        __ram6_end__ = (__ram6_base__ + __ram6_size__)
                0x20041f00                        __ram7_base__ = ORIGIN (ram7)
                0x00000100                        __ram7_size__ = LENGTH (ram7)
                0x20042000                        __ram7_end__ = (__ram7_base__ + __ram7_size__)
                0x00000000                        __flash0_base__ = ORIGIN (flash0)
                0x00004000                        __flash0_size__ = LENGTH (flash0)
                0x00004000                        __flash0_end__ = (__flash0_base__ + __flash0_size__)
                0x10000000                        __flash1_base__ = ORIGIN (flash1)
                0x00200000                        __flash1_size__ = LENGTH (flash1)
                0x10200000                        __flash1_end__ = (__flash1_base__ + __flash1_size__)
                0x00000000                        __flash2_base__ = ORIGIN (flash2)
                0x00000000                        __flash2_size__ = LENGTH (flash2)
                0x00000000                        __flash2_end__ = (__flash2_base__ + __flash2_size__)
                0x00000000                        __flash3_base__ = ORIGIN (flash3)
                0x00000000                        __flash3_size__ = LENGTH (flash3)
                0x00000000                        __flash3_end__ = (__flash3_base__ + __flash3_size__)
                0x00000000                        __flash4_base__ = ORIGIN (flash4)
                0x00000000                        __flash4_size__ = LENGTH (flash4)
                0x00000000                        __flash4_end__ = (__flash4_base__ + __flash4_size__)
                0x00000000                        __flash5_base__ = ORIGIN (flash5)
                0x00000000                        __flash5_size__ = LENGTH (flash5)
                0x00000000                        __flash5_end__ = (__flash5_base__ + __flash5_size__)
                0x00000000                        __flash6_base__ = ORIGIN (flash6)
                0x00000000                        __flash6_size__ = LENGTH (flash6)
                0x00000000                        __flash6_end__ = (__flash6_base__ + __flash6_size__)
                0x00000000                        __flash7_base__ = ORIGIN (flash7)
                0x00000000                        __flash7_size__ = LENGTH (flash7)
                0x00000000                        __flash7_end__ = (__flash7_base__ + __flash7_size__)

.ram0_init      0x20002e2c        0x0 load address 0x1000c614
                0x1000c614                        __ram0_init_text__ = LOADADDR (.ram0_init)
                0x20002e2c                        __ram0_init__ = .
 *(.ram0_init)
 *(.ram0_init.*)
                0x20002e2c                        . = ALIGN (0x4)

.ram0           0x20002e2c        0x4 load address 0x1000c614
                0x20002e2c                        __ram0_clear__ = .
 *(.ram0_clear)
 *(.ram0_clear.*)
                0x20002e2c                        . = ALIGN (0x4)
                0x20002e2c                        __ram0_noinit__ = .
 *(.ram0)
 *(.ram0.*)
 .ram0.bootloader_magic
                0x20002e2c        0x4 /var/folders/01/r6qc96lx1x7c0h1529l70j5m0000gn/T//ccqg8YyW.ltrans0.ltrans.o
                0x20002e30                        . = ALIGN (0x4)
                0x20002e30                        __ram0_free__ = .

.ram1_init      0x00000000        0x0 load address 0x1000c614
                0x1000c614                        __ram1_init_text__ = LOADADDR (.ram1_init)
                0x00000000                        __ram1_init__ = .
 *(.ram1_init)
 *(.ram1_init.*)
                0x00000000                        . = ALIGN (0x4)

.ram1           0x00000000        0x0 load address 0x1000c614
                0x00000000                        __ram1_clear__ = .
 *(.ram1_clear)
 *(.ram1_clear.*)
                0x00000000                        . = ALIGN (0x4)
                0x00000000                        __ram1_noinit__ = .
 *(.ram1)
 *(.ram1.*)
                0x00000000                        . = ALIGN (0x4)
                0x00000000                        __ram1_free__ = .

.ram2_init      0x00000000        0x0 load address 0x1000c614
                0x1000c614                        __ram2_init_text__ = LOADADDR (.ram2_init)
                0x00000000                        __ram2_init__ = .
 *(.ram2_init)
 *(.ram2_init.*)
                0x00000000                        . = ALIGN (0x4)

.ram2           0x00000000        0x0 load address 0x1000c614
                0x00000000                        __ram2_clear__ = .
 *(.ram2_clear)
 *(.ram2_clear.*)
                0x00000000                        . = ALIGN (0x4)
                0x00000000                        __ram2_noinit__ = .
 *(.ram2)
 *(.ram2.*)
                0x00000000                        . = ALIGN (0x4)
                0x00000000                        __ram2_free__ = .

.ram3_init      0x00000000        0x0 load address 0x1000c614
                0x1000c614                        __ram3_init_text__ = LOADADDR (.ram3_init)
                0x00000000                        __ram3_init__ = .
 *(.ram3_init)
 *(.ram3_init.*)
                0x00000000                        . = ALIGN (0x4)

.ram3           0x00000000        0x0 load address 0x1000c614
                0x00000000                        __ram3_clear__ = .
 *(.ram3_clear)
 *(.ram3_clear.*)
                0x00000000                        . = ALIGN (0x4)
                0x00000000                        __ram3_noinit__ = .
 *(.ram3)
 *(.ram3.*)
                0x00000000                        . = ALIGN (0x4)
                0x00000000                        __ram3_free__ = .

.ram4_init      0x20040c00        0x0 load address 0x1000c614
                0x1000c614                        __ram4_init_text__ = LOADADDR (.ram4_init)
                0x20040c00                        __ram4_init__ = .
 *(.ram4_init)
 *(.ram4_init.*)
                0x20040c00                        . = ALIGN (0x4)

.ram4           0x20040c00      0x120 load address 0x1000c614
                0x20040c00                        __ram4_clear__ = .
 *(.ram4_clear)
 *(.ram4_clear.*)
 .ram4_clear.core0
                0x20040c00      0x120 /var/folders/01/r6qc96lx1x7c0h1529l70j5m0000gn/T//ccqg8YyW.ltrans0.ltrans.o
                0x20040d20                        . = ALIGN (0x4)
                0x20040d20                        __ram4_noinit__ = .
 *(.ram4)
 *(.ram4.*)
                0x20040d20                        . = ALIGN (0x4)
                0x20040d20                        __ram4_free__ = .

.ram5_init      0x20041c00        0x0 load address 0x1000c614
                0x1000c614                        __ram5_init_text__ = LOADADDR (.ram5_init)
                0x20041c00                        __ram5_init__ = .
 *(.ram5_init)
 *(.ram5_init.*)
                0x20041c00                        . = ALIGN (0x4)

.ram5           0x20041c00        0x0 load address 0x1000c614
                0x20041c00                        __ram5_clear__ = .
 *(.ram5_clear)
 *(.ram5_clear.*)
                0x20041c00                        . = ALIGN (0x4)
                0x20041c00                        __ram5_noinit__ = .
 *(.ram5)
 *(.ram5.*)
                0x20041c00                        . = ALIGN (0x4)
                0x20041c00                        __ram5_free__ = .

.ram6_init      0x00000000        0x0 load address 0x1000c614
                0x1000c614                        __ram6_init_text__ = LOADADDR (.ram6_init)
                0x00000000                        __ram6_init__ = .
 *(.ram6_init)
 *(.ram6_init.*)
                0x00000000                        . = ALIGN (0x4)

.ram6           0x00000000        0x0 load address 0x1000c614
                0x00000000                        __ram6_clear__ = .
 *(.ram6_clear)
 *(.ram6_clear.*)
                0x00000000                        . = ALIGN (0x4)
                0x00000000                        __ram6_noinit__ = .
 *(.ram6)
 *(.ram6.*)
                0x00000000                        . = ALIGN (0x4)
                0x00000000                        __ram6_free__ = .

.ram7_init      0x20041f00        0x0 load address 0x1000c614
                0x1000c614                        __ram7_init_text__ = LOADADDR (.ram7_init)
                0x20041f00                        __ram7_init__ = .
 *(.ram7_init)
 *(.ram7_init.*)
                0x20041f00                        . = ALIGN (0x4)

.ram7           0x20041f00        0x0 load address 0x1000c614
                0x20041f00                        __ram7_clear__ = .
 *(.ram7_clear)
 *(.ram7_clear.*)
                0x20041f00                        . = ALIGN (0x4)
                0x20041f00                        __ram7_noinit__ = .
 *(.ram7)
 *(.ram7.*)
                0x20041f00                        . = ALIGN (0x4)
                0x20041f00                        __ram7_free__ = .

.flash0         0x00000000        0x0
                0x00000000                        __flash0_init__ = .
 *(.flash0_init)
 *(.flash0_init.*)
                0x00000000                        __flash0_free__ = .

.flash1         0x1000c614        0x0
                0x1000c614                        __flash1_init__ = .
 *(.flash1_init)
 *(.flash1_init.*)
                0x1000c614                        __flash1_free__ = .

.flash2         0x00000000        0x0
                0x00000000                        __flash2_init__ = .
 *(.flash2_init)
 *(.flash2_init.*)
                0x00000000                        __flash2_free__ = .

.flash3         0x00000000        0x0
                0x00000000                        __flash3_init__ = .
 *(.flash3_init)
 *(.flash3_init.*)
                0x00000000                        __flash3_free__ = .

.flash4         0x00000000        0x0
                0x00000000                        __flash4_init__ = .
 *(.flash4_init)
 *(.flash4_init.*)
                0x00000000                        __flash4_free__ = .

.flash5         0x00000000        0x0
                0x00000000                        __flash5_init__ = .
 *(.flash5_init)
 *(.flash5_init.*)
                0x00000000                        __flash5_free__ = .

.flash6         0x00000000        0x0
                0x00000000                        __flash6_init__ = .
 *(.flash6_init)
 *(.flash6_init.*)
                0x00000000                        __flash6_free__ = .

.flash7         0x00000000        0x0
                0x00000000                        __flash7_init__ = .
 *(.flash7_init)
 *(.flash7_init.*)
                0x00000000                        __flash7_free__ = .

.heap           0x20002e30    0x3d1d0
                0x20002e30                        . = ALIGN (0x8)
                0x20002e30                        __heap_base__ = .
                0x20040000                        . = (ORIGIN (HEAP_RAM) + LENGTH (HEAP_RAM))
 *fill*         0x20002e30    0x3d1d0 
                0x20040000                        __heap_end__ = .

.flash_end      0x1000c614        0x0
                0x1000c614                        __flash_binary_end = .
OUTPUT(.build/crkbd_rev1_tensotha_helios.elf elf32-littlearm)
LOAD linker stubs

.debug_info     0x00000000   0x178028
 .debug_info    0x00000000   0x152677 /var/folders/01/r6qc96lx1x7c0h1529l70j5m0000gn/T//ccZ3h3t9debugobj
                0x00000000                crkbd.c.67fa16a6
                0x00003f62                default_keyboard.c.86606eb7
                0x000079f8                keymap_introspection.c.61181bdb
                0x0000da67                quantum.c.2da3dcfe
                0x00013f71                bitwise.c.2fed31e8
                0x00014161                led.c.1a720314
                0x0001775a                action.c.fbd732b4
                0x0001e07a                action_layer.c.8043c892
                0x00021bba                action_tapping.c.20f3e219
                0x00024de5                action_util.c.29213a58
                0x00025e13                eeconfig.c.17891fdf
                0x0002697c                keyboard.c.ca0a82c4
                0x0002a5f8                keymap_common.c.b4c73603
                0x0002dd32                keycode_config.c.287005b8
                0x00030afb                sync_timer.c.a0ef827a
                0x00030c62                debug.c.4231bca4
                0x00031623                sendchar.c.9f2c1ca9
                0x000316d5                print.c.a98b0034
                0x000317ed                matrix_common.c.6c76212e
                0x00035453                matrix.c.b939a1af
                0x0003959d                sym_defer_g.c.c0233488
                0x0003ca4c                split_util.c.df407997
                0x0004048b                transport.c.7abf12f2
                0x00043f5c                transactions.c.6f63051c
                0x00047e22                main.c.b9f68899
                0x00047ed1                printf.c.6ef2a39d
                0x0004873a                eeprom_driver.c.16724f40
                0x000492d5                eeprom_wear_leveling.c.151a2d8f
                0x00049cab                wear_leveling.c.562d4d23
                0x0004adac                wear_leveling_rp2040_flash.c.ff9a0ec1
                0x0004beb6                color.c.8752c8d5
                0x0004c960                rgblight.c.ce590bbf
                0x0004e877                rgblight_drivers.c.9f007a77
                0x0004e9b9                process_rgb.c.dbd21ecc
                0x00051ca3                led_tables.c.fa463410
                0x000525f1                qmk_fnv_type_validation.c.20c9ec5c
                0x00053111                hash_32a.c.e5ce85d5
                0x00053cb7                hash_64a.c.3c6ae467
                0x0005485d                oled_driver.c.13627ea2
                0x000585e8                ws2812_vendor.c.3fcdcb16
                0x0005caae                bootmagic.c.f519ff9d
                0x0005fe86                crc.c.6a6dea3d
                0x0005ffa6                process_grave_esc.c.0697cb4d
                0x00062eec                process_magic.c.e812e073
                0x00065df1                mousekey.c.1e574e29
                0x00068d7d                send_string.c.ca25457e
                0x0006e7ef                process_space_cadet.c.0a4c1db8
                0x000716fe                host.c.50c85ce0
                0x00072767                report.c.8588d48e
                0x00075842                usb_device_state.c.e181099d
                0x000759d1                usb_util.c.1acf2b4f
                0x000789c1                suspend.c.73dc018d
                0x0007b4f3                synchronization_util.c.6eafab58
                0x0007b589                timer.c.8637328c
                0x0007b652                hardware_id.c.c74404d1
                0x0007be25                platform.c.5aebd77e
                0x0007e912                suspend.c.6ad8ed27
                0x00081ddf                timer.c.9d068145
                0x000829df                rp2040.c.8c275b90
                0x00085683                usb_main.c.e000b393
                0x0008a15a                chibios.c.31fbd071
                0x0008d986                usb_descriptor.c.bbfbc80f
                0x00091395                usb_driver.c.4f534d50
                0x00095317                usb_endpoints.c.1b728697
                0x00098c1c                usb_report_handling.c.8822774e
                0x0009cd0e                usb_util.c.b27314f5
                0x000a07fa                crt1.c.dd45f1b7
                0x000a0ad5                chsys.c.58343748
                0x000a1cc1                chrfcu.c.95e6864c
                0x000a2473                chdebug.c.f67ee0bd
                0x000a2be9                chtrace.c.51d32a7b
                0x000a335f                chvt.c.58b09daa
                0x000a4ce8                chschd.c.ee5b44a0
                0x000a5cfc                chinstances.c.8c2028fb
                0x000a6928                chthreads.c.241f785a
                0x000a7b40                chtm.c.fd692984
                0x000a82b6                chstats.c.6d6524ef
                0x000a8a2c                chregistry.c.ce0aabb2
                0x000a9a30                chsem.c.ff72c1fb
                0x000aa8c0                chmtx.c.916de098
                0x000ab6b8                chcond.c.c3fafa58
                0x000abe2e                chevents.c.c02e2b6b
                0x000aced0                chmsg.c.c44cbcce
                0x000ad646                chdynamic.c.795d1db6
                0x000addbc                chcore.c.9f4fa5be
                0x000aed29                osal.c.a6b6f1b4
                0x000af49f                chmboxes.c.1ab2e336
                0x000afc15                chmemcore.c.a511a762
                0x000b08ad                chmemheaps.c.c87283b4
                0x000b1023                chmempools.c.385e8c70
                0x000b1799                chpipes.c.a726220b
                0x000b279d                chobjcaches.c.ed2c91a4
                0x000b2f13                chdelegates.c.b27479b3
                0x000b3689                chfactory.c.5c425d56
                0x000b468d                hal.c.625ca6bc
                0x000b7183                hal_st.c.829931c0
                0x000ba3cb                hal_buffers.c.29828aea
                0x000be24e                hal_queues.c.5467607c
                0x000c1fa7                hal_flash.c.52f4dddf
                0x000c4f79                hal_mmcsd.c.e317a049
                0x000c7a5e                hal_adc.c.acb82b1f
                0x000cac09                hal_can.c.8e68540e
                0x000cd6ee                hal_crypto.c.42d02558
                0x000d01d3                hal_dac.c.8db84e73
                0x000d2cb8                hal_efl.c.24ab20bf
                0x000d579d                hal_gpt.c.53ece448
                0x000d8282                hal_i2c.c.fed4aaaf
                0x000db39a                hal_i2s.c.0ba96cfd
                0x000dde7f                hal_icu.c.40610ec3
                0x000e0964                hal_mac.c.a61854d7
                0x000e3449                hal_mmc_spi.c.a38b2f35
                0x000e67bc                hal_pal.c.db925787
                0x000e96c8                hal_pwm.c.30081182
                0x000ec1ad                hal_rtc.c.ce6c78b7
                0x000eec92                hal_sdc.c.f5f0ec59
                0x000f2005                hal_serial.c.0caaa773
                0x000f4aea                hal_serial_usb.c.7f215dd5
                0x000f75cf                hal_sio.c.f0ee10a7
                0x000fa0b4                hal_spi.c.290e7b7a
                0x000fd341                hal_trng.c.991ac94f
                0x000ffe26                hal_uart.c.f5414218
                0x0010290b                hal_usb.c.60a64493
                0x00106c6a                hal_wdg.c.cf23e185
                0x0010974f                hal_wspi.c.b5d3671a
                0x0010c234                nvic.c.cdd05a37
                0x0010ef82                rp_isr.c.e6b0b58c
                0x00111a77                hal_lld.c.9629d7c9
                0x0011466b                rp_dma.c.59032a0d
                0x001178fd                hal_pal_lld.c.787e79c7
                0x0011a441                hal_spi_lld.c.420398a5
                0x0011d75b                hal_st_lld.c.c5fdbbe2
                0x00120b0f                hal_sio_lld.c.eb157434
                0x001235f4                hal_rtc_lld.c.48dda4b7
                0x001260d9                hal_wdg_lld.c.9d91aded
                0x00128bbe                hal_i2c_lld.c.73635c84
                0x0012c084                hal_pwm_lld.c.fcf3ced8
                0x0012eb69                hal_adc_lld.c.100b0957
                0x00131c34                hal_usb_lld.c.9f85f64e
                0x00136151                board.c.b5474e0d
                0x00138c46                chprintf.c.f9975d6a
                0x0013bb93                chscanf.c.e9cce590
                0x0013ea6a                memstreams.c.34de8c95
                0x001420b8                nullstreams.c.44790e31
                0x00144dda                bufstreams.c.5fd3eada
                0x001484b0                syscalls.c.6b25ad70
                0x00149941                syscall_fallbacks.c.0e93c8f4
                0x0014a7d7                wait.c.3a82f2f2
                0x0014d2bc                synchronization_util.c.16d49f5c
                0x0014da4e                interrupt_handlers.c.cad07ea9
                0x0014e1c4                clocks.c.e498acad
                0x0014e8f1                pll.c.58ed1329
                0x0014eb7b                pio.c.822413a1
                0x0014f9f9                timer.c.fcebc10b
                0x00150134                flash.c.fb2e32e9
                0x00150827                gpio.c.91615e61
                0x001513aa                claim.c.c8aa4981
                0x001516b4                watchdog.c.b966c965
                0x0015220a                xosc.c.a06aedd0
                0x0015237e                bootrom.c.a7ed0b36
                0x0015252f                stage2_bootloaders.c.d3c1738b
                0x001525d8                pico_sdk_shims.c.06b7c007
 .debug_info    0x00152677    0x175d3 /var/folders/01/r6qc96lx1x7c0h1529l70j5m0000gn/T//ccqg8YyW.ltrans0.ltrans.o
 .debug_info    0x00169c4a     0x3d42 .build/obj_crkbd_rev1_tensotha_helios/serial_protocol.a(serial_protocol.o)
 .debug_info    0x0016d98c     0x64b0 .build/obj_crkbd_rev1_tensotha_helios/serial_vendor.a(serial_vendor.o)
 .debug_info    0x00173e3c     0x41ec .build/obj_crkbd_rev1_tensotha_helios/i2c_master.a(i2c_master.o)

.debug_abbrev   0x00000000    0x183fe
 .debug_abbrev  0x00000000    0x16fee /var/folders/01/r6qc96lx1x7c0h1529l70j5m0000gn/T//ccZ3h3t9debugobj
 .debug_abbrev  0x00016fee      0x3fe /var/folders/01/r6qc96lx1x7c0h1529l70j5m0000gn/T//ccqg8YyW.ltrans0.ltrans.o
 .debug_abbrev  0x000173ec      0x4a0 .build/obj_crkbd_rev1_tensotha_helios/serial_protocol.a(serial_protocol.o)
 .debug_abbrev  0x0001788c      0x72a .build/obj_crkbd_rev1_tensotha_helios/serial_vendor.a(serial_vendor.o)
 .debug_abbrev  0x00017fb6      0x448 .build/obj_crkbd_rev1_tensotha_helios/i2c_master.a(i2c_master.o)

.debug_line     0x00000000    0x39819
 .debug_line    0x00000000    0x26be3 /var/folders/01/r6qc96lx1x7c0h1529l70j5m0000gn/T//ccZ3h3t9debugobj
 .debug_line    0x00026be3     0xff71 /var/folders/01/r6qc96lx1x7c0h1529l70j5m0000gn/T//ccqg8YyW.ltrans0.ltrans.o
 .debug_line    0x00036b54      0x8ac .build/obj_crkbd_rev1_tensotha_helios/serial_protocol.a(serial_protocol.o)
 .debug_line    0x00037400     0x1a83 .build/obj_crkbd_rev1_tensotha_helios/serial_vendor.a(serial_vendor.o)
 .debug_line    0x00038e83      0x996 .build/obj_crkbd_rev1_tensotha_helios/i2c_master.a(i2c_master.o)

.debug_str      0x00000000    0x125c5
 .debug_str     0x00000000    0xc900d /var/folders/01/r6qc96lx1x7c0h1529l70j5m0000gn/T//ccZ3h3t9debugobj
 .debug_str     0x00000000      0x1c1 /var/folders/01/r6qc96lx1x7c0h1529l70j5m0000gn/T//ccqg8YyW.ltrans0.ltrans.o
 .debug_str     0x00000000    0x125c5 .build/obj_crkbd_rev1_tensotha_helios/serial_protocol.a(serial_protocol.o)
                               0x1d2d (size before relaxing)
 .debug_str     0x000125c5     0x285e .build/obj_crkbd_rev1_tensotha_helios/serial_vendor.a(serial_vendor.o)
 .debug_str     0x000125c5     0x19a5 .build/obj_crkbd_rev1_tensotha_helios/i2c_master.a(i2c_master.o)

.debug_loc      0x00000000    0x14b52
 .debug_loc     0x00000000    0x12e2b /var/folders/01/r6qc96lx1x7c0h1529l70j5m0000gn/T//ccqg8YyW.ltrans0.ltrans.o
 .debug_loc     0x00012e2b      0x11b .build/obj_crkbd_rev1_tensotha_helios/serial_protocol.a(serial_protocol.o)
 .debug_loc     0x00012f46     0x1335 .build/obj_crkbd_rev1_tensotha_helios/serial_vendor.a(serial_vendor.o)
 .debug_loc     0x0001427b      0x8d7 .build/obj_crkbd_rev1_tensotha_helios/i2c_master.a(i2c_master.o)

.debug_aranges  0x00000000      0x950
 .debug_aranges
                0x00000000      0x838 /var/folders/01/r6qc96lx1x7c0h1529l70j5m0000gn/T//ccqg8YyW.ltrans0.ltrans.o
 .debug_aranges
                0x00000838       0x38 .build/obj_crkbd_rev1_tensotha_helios/serial_protocol.a(serial_protocol.o)
 .debug_aranges
                0x00000870       0x80 .build/obj_crkbd_rev1_tensotha_helios/serial_vendor.a(serial_vendor.o)
 .debug_aranges
                0x000008f0       0x60 .build/obj_crkbd_rev1_tensotha_helios/i2c_master.a(i2c_master.o)

.debug_ranges   0x00000000     0x7d90
 .debug_ranges  0x00000000     0x70d8 /var/folders/01/r6qc96lx1x7c0h1529l70j5m0000gn/T//ccqg8YyW.ltrans0.ltrans.o
 .debug_ranges  0x000070d8       0x80 .build/obj_crkbd_rev1_tensotha_helios/serial_protocol.a(serial_protocol.o)
 .debug_ranges  0x00007158      0xb38 .build/obj_crkbd_rev1_tensotha_helios/serial_vendor.a(serial_vendor.o)
 .debug_ranges  0x00007c90      0x100 .build/obj_crkbd_rev1_tensotha_helios/i2c_master.a(i2c_master.o)

.comment        0x00000000       0x26
 .comment       0x00000000       0x27 /var/folders/01/r6qc96lx1x7c0h1529l70j5m0000gn/T//ccqg8YyW.ltrans0.ltrans.o
 .comment       0x00000000       0x26 .build/obj_crkbd_rev1_tensotha_helios/serial_protocol.a(serial_protocol.o)
                                 0x27 (size before relaxing)
 .comment       0x00000026       0x27 .build/obj_crkbd_rev1_tensotha_helios/serial_vendor.a(serial_vendor.o)
 .comment       0x00000026       0x27 .build/obj_crkbd_rev1_tensotha_helios/i2c_master.a(i2c_master.o)

.ARM.attributes
                0x00000000       0x2a
 .ARM.attributes
                0x00000000       0x2a /var/folders/01/r6qc96lx1x7c0h1529l70j5m0000gn/T//ccqg8YyW.ltrans0.ltrans.o
 .ARM.attributes
                0x0000002a       0x2c .build/obj_crkbd_rev1_tensotha_helios/serial_protocol.a(serial_protocol.o)
 .ARM.attributes
                0x00000056       0x2c .build/obj_crkbd_rev1_tensotha_helios/serial_vendor.a(serial_vendor.o)
 .ARM.attributes
                0x00000082       0x2c .build/obj_crkbd_rev1_tensotha_helios/i2c_master.a(i2c_master.o)
 .ARM.attributes
                0x000000ae       0x21 .build/obj_crkbd_rev1_tensotha_helios/./lib/chibios/os/common/startup/ARMCMx/compilers/GCC/crt0_v6m.o
 .ARM.attributes
                0x000000cf       0x21 .build/obj_crkbd_rev1_tensotha_helios/./lib/chibios/os/common/startup/ARMCMx/compilers/GCC/vectors.o
 .ARM.attributes
                0x000000f0       0x21 .build/obj_crkbd_rev1_tensotha_helios/./lib/chibios/os/common/ports/ARMv6-M-RP2/compilers/GCC/chcoreasm.o
 .ARM.attributes
                0x00000111       0x22 .build/obj_crkbd_rev1_tensotha_helios/./lib/pico-sdk/src/rp2_common/pico_divider/divider.o
 .ARM.attributes
                0x00000133       0x22 .build/obj_crkbd_rev1_tensotha_helios/./lib/pico-sdk/src/rp2_common/pico_int64_ops/pico_int64_ops_aeabi.o
 .ARM.attributes
                0x00000155       0x1e /opt/homebrew/Cellar/arm-none-eabi-gcc@8/8.5.0_2/lib/arm-none-eabi-gcc/8/gcc/arm-none-eabi/8.5.0/thumb/v6-m/nofp/libgcc.a(_dvmd_tls.o)
 .ARM.attributes
                0x00000173       0x2c /opt/homebrew/Cellar/arm-none-eabi-gcc@8/8.5.0_2/lib/arm-none-eabi-gcc/8/gcc/arm-none-eabi/8.5.0/thumb/v6-m/nofp/libgcc.a(_fixunssfsi.o)
 .ARM.attributes
                0x0000019f       0x2c /opt/homebrew/Cellar/arm-none-eabi-gcc@8/8.5.0_2/lib/arm-none-eabi-gcc/8/gcc/arm-none-eabi/8.5.0/thumb/v6-m/nofp/libgcc.a(divsf3.o)
 .ARM.attributes
                0x000001cb       0x2c /opt/homebrew/Cellar/arm-none-eabi-gcc@8/8.5.0_2/lib/arm-none-eabi-gcc/8/gcc/arm-none-eabi/8.5.0/thumb/v6-m/nofp/libgcc.a(mulsf3.o)
 .ARM.attributes
                0x000001f7       0x2c /opt/homebrew/Cellar/arm-none-eabi-gcc@8/8.5.0_2/lib/arm-none-eabi-gcc/8/gcc/arm-none-eabi/8.5.0/thumb/v6-m/nofp/libgcc.a(subsf3.o)
 .ARM.attributes
                0x00000223       0x2c /opt/homebrew/Cellar/arm-none-eabi-gcc@8/8.5.0_2/lib/arm-none-eabi-gcc/8/gcc/arm-none-eabi/8.5.0/thumb/v6-m/nofp/libgcc.a(fixsfsi.o)
 .ARM.attributes
                0x0000024f       0x2c /opt/homebrew/Cellar/arm-none-eabi-gcc@8/8.5.0_2/lib/arm-none-eabi-gcc/8/gcc/arm-none-eabi/8.5.0/thumb/v6-m/nofp/libgcc.a(floatunsisf.o)
 .ARM.attributes
                0x0000027b       0x1e /opt/homebrew/Cellar/arm-none-eabi-gcc@8/8.5.0_2/lib/arm-none-eabi-gcc/8/gcc/arm-none-eabi/8.5.0/thumb/v6-m/nofp/libgcc.a(_arm_cmpsf2.o)
 .ARM.attributes
                0x00000299       0x1e /opt/homebrew/Cellar/arm-none-eabi-gcc@8/8.5.0_2/lib/arm-none-eabi-gcc/8/gcc/arm-none-eabi/8.5.0/thumb/v6-m/nofp/libgcc.a(_clzsi2.o)
 .ARM.attributes
                0x000002b7       0x2c /opt/homebrew/Cellar/arm-none-eabi-gcc@8/8.5.0_2/lib/arm-none-eabi-gcc/8/gcc/arm-none-eabi/8.5.0/thumb/v6-m/nofp/libgcc.a(eqsf2.o)
 .ARM.attributes
                0x000002e3       0x2c /opt/homebrew/Cellar/arm-none-eabi-gcc@8/8.5.0_2/lib/arm-none-eabi-gcc/8/gcc/arm-none-eabi/8.5.0/thumb/v6-m/nofp/libgcc.a(gesf2.o)
 .ARM.attributes
                0x0000030f       0x2c /opt/homebrew/Cellar/arm-none-eabi-gcc@8/8.5.0_2/lib/arm-none-eabi-gcc/8/gcc/arm-none-eabi/8.5.0/thumb/v6-m/nofp/libgcc.a(lesf2.o)
 .ARM.attributes
                0x0000033b       0x1e /opt/homebrew/Cellar/arm-none-eabi-gcc@8/8.5.0_2/lib/arm-none-eabi-gcc/8/gcc/arm-none-eabi/8.5.0/thumb/v6-m/nofp/libgcc.a(_thumb1_case_sqi.o)
 .ARM.attributes
                0x00000359       0x1e /opt/homebrew/Cellar/arm-none-eabi-gcc@8/8.5.0_2/lib/arm-none-eabi-gcc/8/gcc/arm-none-eabi/8.5.0/thumb/v6-m/nofp/libgcc.a(_thumb1_case_uqi.o)
 .ARM.attributes
                0x00000377       0x1e /opt/homebrew/Cellar/arm-none-eabi-gcc@8/8.5.0_2/lib/arm-none-eabi-gcc/8/gcc/arm-none-eabi/8.5.0/thumb/v6-m/nofp/libgcc.a(_thumb1_case_shi.o)
 .ARM.attributes
                0x00000395       0x1e /opt/homebrew/Cellar/arm-none-eabi-gcc@8/8.5.0_2/lib/arm-none-eabi-gcc/8/gcc/arm-none-eabi/8.5.0/thumb/v6-m/nofp/libgcc.a(_thumb1_case_uhi.o)
 .ARM.attributes
                0x000003b3       0x1e /opt/homebrew/Cellar/arm-none-eabi-gcc@8/8.5.0_2/lib/arm-none-eabi-gcc/8/gcc/arm-none-eabi/8.5.0/thumb/v6-m/nofp/libgcc.a(_ctzsi2.o)
 .ARM.attributes
                0x000003d1       0x2c /opt/homebrew/Cellar/arm-none-eabi-gcc@8/8.5.0_2/lib/arm-none-eabi-gcc/8/gcc/arm-none-eabi/8.5.0/../../../../../../arm-none-eabi/lib/thumb/v6-m/nofp/libg_nano.a(lib_a-impure.o)
 .ARM.attributes
                0x000003fd       0x2c /opt/homebrew/Cellar/arm-none-eabi-gcc@8/8.5.0_2/lib/arm-none-eabi-gcc/8/gcc/arm-none-eabi/8.5.0/../../../../../../arm-none-eabi/lib/thumb/v6-m/nofp/libg_nano.a(lib_a-memcpy-stub.o)
 .ARM.attributes
                0x00000429       0x2c /opt/homebrew/Cellar/arm-none-eabi-gcc@8/8.5.0_2/lib/arm-none-eabi-gcc/8/gcc/arm-none-eabi/8.5.0/../../../../../../arm-none-eabi/lib/thumb/v6-m/nofp/libg_nano.a(lib_a-rand.o)
 .ARM.attributes
                0x00000455       0x2c /opt/homebrew/Cellar/arm-none-eabi-gcc@8/8.5.0_2/lib/arm-none-eabi-gcc/8/gcc/arm-none-eabi/8.5.0/../../../../../../arm-none-eabi/lib/thumb/v6-m/nofp/libg_nano.a(lib_a-assert.o)
 .ARM.attributes
                0x00000481       0x2c /opt/homebrew/Cellar/arm-none-eabi-gcc@8/8.5.0_2/lib/arm-none-eabi-gcc/8/gcc/arm-none-eabi/8.5.0/../../../../../../arm-none-eabi/lib/thumb/v6-m/nofp/libg_nano.a(lib_a-fprintf.o)
 .ARM.attributes
                0x000004ad       0x2c /opt/homebrew/Cellar/arm-none-eabi-gcc@8/8.5.0_2/lib/arm-none-eabi-gcc/8/gcc/arm-none-eabi/8.5.0/../../../../../../arm-none-eabi/lib/thumb/v6-m/nofp/libg_nano.a(lib_a-malloc.o)
 .ARM.attributes
                0x000004d9       0x2c /opt/homebrew/Cellar/arm-none-eabi-gcc@8/8.5.0_2/lib/arm-none-eabi-gcc/8/gcc/arm-none-eabi/8.5.0/../../../../../../arm-none-eabi/lib/thumb/v6-m/nofp/libg_nano.a(lib_a-nano-freer.o)
 .ARM.attributes
                0x00000505       0x2c /opt/homebrew/Cellar/arm-none-eabi-gcc@8/8.5.0_2/lib/arm-none-eabi-gcc/8/gcc/arm-none-eabi/8.5.0/../../../../../../arm-none-eabi/lib/thumb/v6-m/nofp/libg_nano.a(lib_a-nano-mallocr.o)
 .ARM.attributes
                0x00000531       0x2c /opt/homebrew/Cellar/arm-none-eabi-gcc@8/8.5.0_2/lib/arm-none-eabi-gcc/8/gcc/arm-none-eabi/8.5.0/../../../../../../arm-none-eabi/lib/thumb/v6-m/nofp/libg_nano.a(lib_a-nano-vfprintf.o)
 .ARM.attributes
                0x0000055d       0x2c /opt/homebrew/Cellar/arm-none-eabi-gcc@8/8.5.0_2/lib/arm-none-eabi-gcc/8/gcc/arm-none-eabi/8.5.0/../../../../../../arm-none-eabi/lib/thumb/v6-m/nofp/libg_nano.a(lib_a-nano-vfprintf_i.o)
 .ARM.attributes
                0x00000589       0x2c /opt/homebrew/Cellar/arm-none-eabi-gcc@8/8.5.0_2/lib/arm-none-eabi-gcc/8/gcc/arm-none-eabi/8.5.0/../../../../../../arm-none-eabi/lib/thumb/v6-m/nofp/libg_nano.a(lib_a-wbuf.o)
 .ARM.attributes
                0x000005b5       0x2c /opt/homebrew/Cellar/arm-none-eabi-gcc@8/8.5.0_2/lib/arm-none-eabi-gcc/8/gcc/arm-none-eabi/8.5.0/../../../../../../arm-none-eabi/lib/thumb/v6-m/nofp/libg_nano.a(lib_a-wsetup.o)
 .ARM.attributes
                0x000005e1       0x2c /opt/homebrew/Cellar/arm-none-eabi-gcc@8/8.5.0_2/lib/arm-none-eabi-gcc/8/gcc/arm-none-eabi/8.5.0/../../../../../../arm-none-eabi/lib/thumb/v6-m/nofp/libg_nano.a(lib_a-abort.o)
 .ARM.attributes
                0x0000060d       0x2c /opt/homebrew/Cellar/arm-none-eabi-gcc@8/8.5.0_2/lib/arm-none-eabi-gcc/8/gcc/arm-none-eabi/8.5.0/../../../../../../arm-none-eabi/lib/thumb/v6-m/nofp/libg_nano.a(lib_a-fflush.o)
 .ARM.attributes
                0x00000639       0x2c /opt/homebrew/Cellar/arm-none-eabi-gcc@8/8.5.0_2/lib/arm-none-eabi-gcc/8/gcc/arm-none-eabi/8.5.0/../../../../../../arm-none-eabi/lib/thumb/v6-m/nofp/libg_nano.a(lib_a-findfp.o)
 .ARM.attributes
                0x00000665       0x2c /opt/homebrew/Cellar/arm-none-eabi-gcc@8/8.5.0_2/lib/arm-none-eabi-gcc/8/gcc/arm-none-eabi/8.5.0/../../../../../../arm-none-eabi/lib/thumb/v6-m/nofp/libg_nano.a(lib_a-fvwrite.o)
 .ARM.attributes
                0x00000691       0x2c /opt/homebrew/Cellar/arm-none-eabi-gcc@8/8.5.0_2/lib/arm-none-eabi-gcc/8/gcc/arm-none-eabi/8.5.0/../../../../../../arm-none-eabi/lib/thumb/v6-m/nofp/libg_nano.a(lib_a-fwalk.o)
 .ARM.attributes
                0x000006bd       0x2c /opt/homebrew/Cellar/arm-none-eabi-gcc@8/8.5.0_2/lib/arm-none-eabi-gcc/8/gcc/arm-none-eabi/8.5.0/../../../../../../arm-none-eabi/lib/thumb/v6-m/nofp/libg_nano.a(lib_a-lock.o)
 .ARM.attributes
                0x000006e9       0x2c /opt/homebrew/Cellar/arm-none-eabi-gcc@8/8.5.0_2/lib/arm-none-eabi-gcc/8/gcc/arm-none-eabi/8.5.0/../../../../../../arm-none-eabi/lib/thumb/v6-m/nofp/libg_nano.a(lib_a-makebuf.o)
 .ARM.attributes
                0x00000715       0x2c /opt/homebrew/Cellar/arm-none-eabi-gcc@8/8.5.0_2/lib/arm-none-eabi-gcc/8/gcc/arm-none-eabi/8.5.0/../../../../../../arm-none-eabi/lib/thumb/v6-m/nofp/libg_nano.a(lib_a-memchr-stub.o)
 .ARM.attributes
                0x00000741       0x2c /opt/homebrew/Cellar/arm-none-eabi-gcc@8/8.5.0_2/lib/arm-none-eabi-gcc/8/gcc/arm-none-eabi/8.5.0/../../../../../../arm-none-eabi/lib/thumb/v6-m/nofp/libg_nano.a(lib_a-memmove.o)
 .ARM.attributes
                0x0000076d       0x2c /opt/homebrew/Cellar/arm-none-eabi-gcc@8/8.5.0_2/lib/arm-none-eabi-gcc/8/gcc/arm-none-eabi/8.5.0/../../../../../../arm-none-eabi/lib/thumb/v6-m/nofp/libg_nano.a(lib_a-memset.o)
 .ARM.attributes
                0x00000799       0x2c /opt/homebrew/Cellar/arm-none-eabi-gcc@8/8.5.0_2/lib/arm-none-eabi-gcc/8/gcc/arm-none-eabi/8.5.0/../../../../../../arm-none-eabi/lib/thumb/v6-m/nofp/libg_nano.a(lib_a-mlock.o)
 .ARM.attributes
                0x000007c5       0x2c /opt/homebrew/Cellar/arm-none-eabi-gcc@8/8.5.0_2/lib/arm-none-eabi-gcc/8/gcc/arm-none-eabi/8.5.0/../../../../../../arm-none-eabi/lib/thumb/v6-m/nofp/libg_nano.a(lib_a-nano-reallocr.o)
 .ARM.attributes
                0x000007f1       0x2c /opt/homebrew/Cellar/arm-none-eabi-gcc@8/8.5.0_2/lib/arm-none-eabi-gcc/8/gcc/arm-none-eabi/8.5.0/../../../../../../arm-none-eabi/lib/thumb/v6-m/nofp/libg_nano.a(lib_a-signal.o)
 .ARM.attributes
                0x0000081d       0x2c /opt/homebrew/Cellar/arm-none-eabi-gcc@8/8.5.0_2/lib/arm-none-eabi-gcc/8/gcc/arm-none-eabi/8.5.0/../../../../../../arm-none-eabi/lib/thumb/v6-m/nofp/libg_nano.a(lib_a-signalr.o)
 .ARM.attributes
                0x00000849       0x2c /opt/homebrew/Cellar/arm-none-eabi-gcc@8/8.5.0_2/lib/arm-none-eabi-gcc/8/gcc/arm-none-eabi/8.5.0/../../../../../../arm-none-eabi/lib/thumb/v6-m/nofp/libg_nano.a(lib_a-stdio.o)
 .ARM.attributes
                0x00000875       0x2c /opt/homebrew/Cellar/arm-none-eabi-gcc@8/8.5.0_2/lib/arm-none-eabi-gcc/8/gcc/arm-none-eabi/8.5.0/../../../../../../arm-none-eabi/lib/thumb/v6-m/nofp/libg_nano.a(lib_a-nano-msizer.o)
 .ARM.attributes
                0x000008a1       0x2c /opt/homebrew/Cellar/arm-none-eabi-gcc@8/8.5.0_2/lib/arm-none-eabi-gcc/8/gcc/arm-none-eabi/8.5.0/../../../../../../arm-none-eabi/lib/thumb/v6-m/nofp/libg_nano.a(lib_a-reent.o)
 .ARM.attributes
                0x000008cd       0x2c /opt/homebrew/Cellar/arm-none-eabi-gcc@8/8.5.0_2/lib/arm-none-eabi-gcc/8/gcc/arm-none-eabi/8.5.0/../../../../../../arm-none-eabi/lib/thumb/v6-m/nofp/libg_nano.a(lib_a-memcmp.o)
 .ARM.attributes
                0x000008f9       0x2c /opt/homebrew/Cellar/arm-none-eabi-gcc@8/8.5.0_2/lib/arm-none-eabi-gcc/8/gcc/arm-none-eabi/8.5.0/../../../../../../arm-none-eabi/lib/thumb/v6-m/nofp/libg_nano.a(lib_a-strlen-stub.o)

.debug_frame    0x00000000     0x2978
 .debug_frame   0x00000000     0x1a68 /var/folders/01/r6qc96lx1x7c0h1529l70j5m0000gn/T//ccqg8YyW.ltrans0.ltrans.o
 .debug_frame   0x00001a68       0x84 .build/obj_crkbd_rev1_tensotha_helios/serial_protocol.a(serial_protocol.o)
 .debug_frame   0x00001aec      0x17c .build/obj_crkbd_rev1_tensotha_helios/serial_vendor.a(serial_vendor.o)
 .debug_frame   0x00001c68      0x130 .build/obj_crkbd_rev1_tensotha_helios/i2c_master.a(i2c_master.o)
 .debug_frame   0x00001d98       0x28 /opt/homebrew/Cellar/arm-none-eabi-gcc@8/8.5.0_2/lib/arm-none-eabi-gcc/8/gcc/arm-none-eabi/8.5.0/thumb/v6-m/nofp/libgcc.a(_fixunssfsi.o)
 .debug_frame   0x00001dc0       0x38 /opt/homebrew/Cellar/arm-none-eabi-gcc@8/8.5.0_2/lib/arm-none-eabi-gcc/8/gcc/arm-none-eabi/8.5.0/thumb/v6-m/nofp/libgcc.a(divsf3.o)
 .debug_frame   0x00001df8       0x38 /opt/homebrew/Cellar/arm-none-eabi-gcc@8/8.5.0_2/lib/arm-none-eabi-gcc/8/gcc/arm-none-eabi/8.5.0/thumb/v6-m/nofp/libgcc.a(mulsf3.o)
 .debug_frame   0x00001e30       0x3c /opt/homebrew/Cellar/arm-none-eabi-gcc@8/8.5.0_2/lib/arm-none-eabi-gcc/8/gcc/arm-none-eabi/8.5.0/thumb/v6-m/nofp/libgcc.a(subsf3.o)
 .debug_frame   0x00001e6c       0x20 /opt/homebrew/Cellar/arm-none-eabi-gcc@8/8.5.0_2/lib/arm-none-eabi-gcc/8/gcc/arm-none-eabi/8.5.0/thumb/v6-m/nofp/libgcc.a(fixsfsi.o)
 .debug_frame   0x00001e8c       0x2c /opt/homebrew/Cellar/arm-none-eabi-gcc@8/8.5.0_2/lib/arm-none-eabi-gcc/8/gcc/arm-none-eabi/8.5.0/thumb/v6-m/nofp/libgcc.a(floatunsisf.o)
 .debug_frame   0x00001eb8       0x2c /opt/homebrew/Cellar/arm-none-eabi-gcc@8/8.5.0_2/lib/arm-none-eabi-gcc/8/gcc/arm-none-eabi/8.5.0/thumb/v6-m/nofp/libgcc.a(eqsf2.o)
 .debug_frame   0x00001ee4       0x30 /opt/homebrew/Cellar/arm-none-eabi-gcc@8/8.5.0_2/lib/arm-none-eabi-gcc/8/gcc/arm-none-eabi/8.5.0/thumb/v6-m/nofp/libgcc.a(gesf2.o)
 .debug_frame   0x00001f14       0x30 /opt/homebrew/Cellar/arm-none-eabi-gcc@8/8.5.0_2/lib/arm-none-eabi-gcc/8/gcc/arm-none-eabi/8.5.0/thumb/v6-m/nofp/libgcc.a(lesf2.o)
 .debug_frame   0x00001f44       0x34 /opt/homebrew/Cellar/arm-none-eabi-gcc@8/8.5.0_2/lib/arm-none-eabi-gcc/8/gcc/arm-none-eabi/8.5.0/../../../../../../arm-none-eabi/lib/thumb/v6-m/nofp/libg_nano.a(lib_a-memcpy-stub.o)
 .debug_frame   0x00001f78       0x48 /opt/homebrew/Cellar/arm-none-eabi-gcc@8/8.5.0_2/lib/arm-none-eabi-gcc/8/gcc/arm-none-eabi/8.5.0/../../../../../../arm-none-eabi/lib/thumb/v6-m/nofp/libg_nano.a(lib_a-rand.o)
 .debug_frame   0x00001fc0       0x44 /opt/homebrew/Cellar/arm-none-eabi-gcc@8/8.5.0_2/lib/arm-none-eabi-gcc/8/gcc/arm-none-eabi/8.5.0/../../../../../../arm-none-eabi/lib/thumb/v6-m/nofp/libg_nano.a(lib_a-assert.o)
 .debug_frame   0x00002004       0x48 /opt/homebrew/Cellar/arm-none-eabi-gcc@8/8.5.0_2/lib/arm-none-eabi-gcc/8/gcc/arm-none-eabi/8.5.0/../../../../../../arm-none-eabi/lib/thumb/v6-m/nofp/libg_nano.a(lib_a-fprintf.o)
 .debug_frame   0x0000204c       0x40 /opt/homebrew/Cellar/arm-none-eabi-gcc@8/8.5.0_2/lib/arm-none-eabi-gcc/8/gcc/arm-none-eabi/8.5.0/../../../../../../arm-none-eabi/lib/thumb/v6-m/nofp/libg_nano.a(lib_a-malloc.o)
 .debug_frame   0x0000208c       0x2c /opt/homebrew/Cellar/arm-none-eabi-gcc@8/8.5.0_2/lib/arm-none-eabi-gcc/8/gcc/arm-none-eabi/8.5.0/../../../../../../arm-none-eabi/lib/thumb/v6-m/nofp/libg_nano.a(lib_a-nano-freer.o)
 .debug_frame   0x000020b8       0x30 /opt/homebrew/Cellar/arm-none-eabi-gcc@8/8.5.0_2/lib/arm-none-eabi-gcc/8/gcc/arm-none-eabi/8.5.0/../../../../../../arm-none-eabi/lib/thumb/v6-m/nofp/libg_nano.a(lib_a-nano-mallocr.o)
 .debug_frame   0x000020e8       0xa4 /opt/homebrew/Cellar/arm-none-eabi-gcc@8/8.5.0_2/lib/arm-none-eabi-gcc/8/gcc/arm-none-eabi/8.5.0/../../../../../../arm-none-eabi/lib/thumb/v6-m/nofp/libg_nano.a(lib_a-nano-vfprintf.o)
 .debug_frame   0x0000218c       0x64 /opt/homebrew/Cellar/arm-none-eabi-gcc@8/8.5.0_2/lib/arm-none-eabi-gcc/8/gcc/arm-none-eabi/8.5.0/../../../../../../arm-none-eabi/lib/thumb/v6-m/nofp/libg_nano.a(lib_a-nano-vfprintf_i.o)
 .debug_frame   0x000021f0       0x48 /opt/homebrew/Cellar/arm-none-eabi-gcc@8/8.5.0_2/lib/arm-none-eabi-gcc/8/gcc/arm-none-eabi/8.5.0/../../../../../../arm-none-eabi/lib/thumb/v6-m/nofp/libg_nano.a(lib_a-wbuf.o)
 .debug_frame   0x00002238       0x2c /opt/homebrew/Cellar/arm-none-eabi-gcc@8/8.5.0_2/lib/arm-none-eabi-gcc/8/gcc/arm-none-eabi/8.5.0/../../../../../../arm-none-eabi/lib/thumb/v6-m/nofp/libg_nano.a(lib_a-wsetup.o)
 .debug_frame   0x00002264       0x28 /opt/homebrew/Cellar/arm-none-eabi-gcc@8/8.5.0_2/lib/arm-none-eabi-gcc/8/gcc/arm-none-eabi/8.5.0/../../../../../../arm-none-eabi/lib/thumb/v6-m/nofp/libg_nano.a(lib_a-abort.o)
 .debug_frame   0x0000228c       0x68 /opt/homebrew/Cellar/arm-none-eabi-gcc@8/8.5.0_2/lib/arm-none-eabi-gcc/8/gcc/arm-none-eabi/8.5.0/../../../../../../arm-none-eabi/lib/thumb/v6-m/nofp/libg_nano.a(lib_a-fflush.o)
 .debug_frame   0x000022f4      0x168 /opt/homebrew/Cellar/arm-none-eabi-gcc@8/8.5.0_2/lib/arm-none-eabi-gcc/8/gcc/arm-none-eabi/8.5.0/../../../../../../arm-none-eabi/lib/thumb/v6-m/nofp/libg_nano.a(lib_a-findfp.o)
 .debug_frame   0x0000245c       0x3c /opt/homebrew/Cellar/arm-none-eabi-gcc@8/8.5.0_2/lib/arm-none-eabi-gcc/8/gcc/arm-none-eabi/8.5.0/../../../../../../arm-none-eabi/lib/thumb/v6-m/nofp/libg_nano.a(lib_a-fvwrite.o)
 .debug_frame   0x00002498       0x5c /opt/homebrew/Cellar/arm-none-eabi-gcc@8/8.5.0_2/lib/arm-none-eabi-gcc/8/gcc/arm-none-eabi/8.5.0/../../../../../../arm-none-eabi/lib/thumb/v6-m/nofp/libg_nano.a(lib_a-fwalk.o)
 .debug_frame   0x000024f4       0xb0 /opt/homebrew/Cellar/arm-none-eabi-gcc@8/8.5.0_2/lib/arm-none-eabi-gcc/8/gcc/arm-none-eabi/8.5.0/../../../../../../arm-none-eabi/lib/thumb/v6-m/nofp/libg_nano.a(lib_a-lock.o)
 .debug_frame   0x000025a4       0x50 /opt/homebrew/Cellar/arm-none-eabi-gcc@8/8.5.0_2/lib/arm-none-eabi-gcc/8/gcc/arm-none-eabi/8.5.0/../../../../../../arm-none-eabi/lib/thumb/v6-m/nofp/libg_nano.a(lib_a-makebuf.o)
 .debug_frame   0x000025f4       0x2c /opt/homebrew/Cellar/arm-none-eabi-gcc@8/8.5.0_2/lib/arm-none-eabi-gcc/8/gcc/arm-none-eabi/8.5.0/../../../../../../arm-none-eabi/lib/thumb/v6-m/nofp/libg_nano.a(lib_a-memchr-stub.o)
 .debug_frame   0x00002620       0x34 /opt/homebrew/Cellar/arm-none-eabi-gcc@8/8.5.0_2/lib/arm-none-eabi-gcc/8/gcc/arm-none-eabi/8.5.0/../../../../../../arm-none-eabi/lib/thumb/v6-m/nofp/libg_nano.a(lib_a-memmove.o)
 .debug_frame   0x00002654       0x30 /opt/homebrew/Cellar/arm-none-eabi-gcc@8/8.5.0_2/lib/arm-none-eabi-gcc/8/gcc/arm-none-eabi/8.5.0/../../../../../../arm-none-eabi/lib/thumb/v6-m/nofp/libg_nano.a(lib_a-memset.o)
 .debug_frame   0x00002684       0x40 /opt/homebrew/Cellar/arm-none-eabi-gcc@8/8.5.0_2/lib/arm-none-eabi-gcc/8/gcc/arm-none-eabi/8.5.0/../../../../../../arm-none-eabi/lib/thumb/v6-m/nofp/libg_nano.a(lib_a-mlock.o)
 .debug_frame   0x000026c4       0x30 /opt/homebrew/Cellar/arm-none-eabi-gcc@8/8.5.0_2/lib/arm-none-eabi-gcc/8/gcc/arm-none-eabi/8.5.0/../../../../../../arm-none-eabi/lib/thumb/v6-m/nofp/libg_nano.a(lib_a-nano-reallocr.o)
 .debug_frame   0x000026f4       0xf4 /opt/homebrew/Cellar/arm-none-eabi-gcc@8/8.5.0_2/lib/arm-none-eabi-gcc/8/gcc/arm-none-eabi/8.5.0/../../../../../../arm-none-eabi/lib/thumb/v6-m/nofp/libg_nano.a(lib_a-signal.o)
 .debug_frame   0x000027e8       0x44 /opt/homebrew/Cellar/arm-none-eabi-gcc@8/8.5.0_2/lib/arm-none-eabi-gcc/8/gcc/arm-none-eabi/8.5.0/../../../../../../arm-none-eabi/lib/thumb/v6-m/nofp/libg_nano.a(lib_a-signalr.o)
 .debug_frame   0x0000282c       0x90 /opt/homebrew/Cellar/arm-none-eabi-gcc@8/8.5.0_2/lib/arm-none-eabi-gcc/8/gcc/arm-none-eabi/8.5.0/../../../../../../arm-none-eabi/lib/thumb/v6-m/nofp/libg_nano.a(lib_a-stdio.o)
 .debug_frame   0x000028bc       0x20 /opt/homebrew/Cellar/arm-none-eabi-gcc@8/8.5.0_2/lib/arm-none-eabi-gcc/8/gcc/arm-none-eabi/8.5.0/../../../../../../arm-none-eabi/lib/thumb/v6-m/nofp/libg_nano.a(lib_a-nano-msizer.o)
 .debug_frame   0x000028dc       0x48 /opt/homebrew/Cellar/arm-none-eabi-gcc@8/8.5.0_2/lib/arm-none-eabi-gcc/8/gcc/arm-none-eabi/8.5.0/../../../../../../arm-none-eabi/lib/thumb/v6-m/nofp/libg_nano.a(lib_a-reent.o)
 .debug_frame   0x00002924       0x2c /opt/homebrew/Cellar/arm-none-eabi-gcc@8/8.5.0_2/lib/arm-none-eabi-gcc/8/gcc/arm-none-eabi/8.5.0/../../../../../../arm-none-eabi/lib/thumb/v6-m/nofp/libg_nano.a(lib_a-memcmp.o)
 .debug_frame   0x00002950       0x28 /opt/homebrew/Cellar/arm-none-eabi-gcc@8/8.5.0_2/lib/arm-none-eabi-gcc/8/gcc/arm-none-eabi/8.5.0/../../../../../../arm-none-eabi/lib/thumb/v6-m/nofp/libg_nano.a(lib_a-strlen-stub.o)

Cross Reference Table

Symbol                                            File
ADCD1                                             .build/obj_crkbd_rev1_tensotha_helios/lib/chibios-contrib/os/hal/ports/RP/LLD/ADCv1/hal_adc_lld.o (symbol from plugin)
BOOT2_ROM                                         /var/folders/01/r6qc96lx1x7c0h1529l70j5m0000gn/T//ccqg8YyW.ltrans0.ltrans.o
                                                  .build/obj_crkbd_rev1_tensotha_helios/platforms/chibios/vendors/RP/stage2_bootloaders.o (symbol from plugin)
                                                  .build/obj_crkbd_rev1_tensotha_helios/wear_leveling_rp2040_flash.o (symbol from plugin)
BusFault_Handler                                  .build/obj_crkbd_rev1_tensotha_helios/./lib/chibios/os/common/startup/ARMCMx/compilers/GCC/vectors.o
CIE1931_CURVE                                     .build/obj_crkbd_rev1_tensotha_helios/quantum/led_tables.o (symbol from plugin)
                                                  .build/obj_crkbd_rev1_tensotha_helios/quantum/color.o (symbol from plugin)
ConfigurationDescriptor                           .build/obj_crkbd_rev1_tensotha_helios/usb_descriptor.o (symbol from plugin)
DebugMon_Handler                                  .build/obj_crkbd_rev1_tensotha_helios/./lib/chibios/os/common/startup/ARMCMx/compilers/GCC/vectors.o
DeviceDescriptor                                  .build/obj_crkbd_rev1_tensotha_helios/usb_descriptor.o (symbol from plugin)
HardFault_Handler                                 .build/obj_crkbd_rev1_tensotha_helios/./lib/chibios/os/common/startup/ARMCMx/compilers/GCC/vectors.o
I2CD1                                             /var/folders/01/r6qc96lx1x7c0h1529l70j5m0000gn/T//ccqg8YyW.ltrans0.ltrans.o
                                                  .build/obj_crkbd_rev1_tensotha_helios/lib/chibios-contrib/os/hal/ports/RP/LLD/I2Cv1/hal_i2c_lld.o (symbol from plugin)
                                                  .build/obj_crkbd_rev1_tensotha_helios/i2c_master.a(i2c_master.o)
KeyboardReport                                    .build/obj_crkbd_rev1_tensotha_helios/usb_descriptor.o (symbol from plugin)
LanguageString                                    .build/obj_crkbd_rev1_tensotha_helios/usb_descriptor.o (symbol from plugin)
ManufacturerString                                .build/obj_crkbd_rev1_tensotha_helios/usb_descriptor.o (symbol from plugin)
MemManage_Handler                                 .build/obj_crkbd_rev1_tensotha_helios/./lib/chibios/os/common/startup/ARMCMx/compilers/GCC/vectors.o
NMI_Handler                                       /var/folders/01/r6qc96lx1x7c0h1529l70j5m0000gn/T//ccqg8YyW.ltrans0.ltrans.o
                                                  .build/obj_crkbd_rev1_tensotha_helios/lib/chibios/os/common/ports/ARMv6-M-RP2/chcore.o (symbol from plugin)
                                                  .build/obj_crkbd_rev1_tensotha_helios/./lib/chibios/os/common/startup/ARMCMx/compilers/GCC/vectors.o
PendSV_Handler                                    .build/obj_crkbd_rev1_tensotha_helios/./lib/chibios/os/common/startup/ARMCMx/compilers/GCC/vectors.o
ProductString                                     .build/obj_crkbd_rev1_tensotha_helios/usb_descriptor.o (symbol from plugin)
RGBLED_BREATHING_INTERVALS                        .build/obj_crkbd_rev1_tensotha_helios/quantum/rgblight/rgblight.o (symbol from plugin)
RGBLED_GRADIENT_RANGES                            .build/obj_crkbd_rev1_tensotha_helios/quantum/rgblight/rgblight.o (symbol from plugin)
RGBLED_KNIGHT_INTERVALS                           .build/obj_crkbd_rev1_tensotha_helios/quantum/rgblight/rgblight.o (symbol from plugin)
RGBLED_RAINBOW_MOOD_INTERVALS                     .build/obj_crkbd_rev1_tensotha_helios/quantum/rgblight/rgblight.o (symbol from plugin)
RGBLED_RAINBOW_SWIRL_INTERVALS                    .build/obj_crkbd_rev1_tensotha_helios/quantum/rgblight/rgblight.o (symbol from plugin)
RGBLED_RGBTEST_INTERVALS                          .build/obj_crkbd_rev1_tensotha_helios/quantum/rgblight/rgblight.o (symbol from plugin)
RGBLED_SNAKE_INTERVALS                            .build/obj_crkbd_rev1_tensotha_helios/quantum/rgblight/rgblight.o (symbol from plugin)
RGBLED_TWINKLE_INTERVALS                          .build/obj_crkbd_rev1_tensotha_helios/quantum/rgblight/rgblight.o (symbol from plugin)
Reset_Handler                                     .build/obj_crkbd_rev1_tensotha_helios/./lib/chibios/os/common/startup/ARMCMx/compilers/GCC/vectors.o
SPID0                                             .build/obj_crkbd_rev1_tensotha_helios/lib/chibios/os/hal/ports/RP/LLD/SPIv1/hal_spi_lld.o (symbol from plugin)
SVC_Handler                                       .build/obj_crkbd_rev1_tensotha_helios/./lib/chibios/os/common/startup/ARMCMx/compilers/GCC/vectors.o
SecureFault_Handler                               .build/obj_crkbd_rev1_tensotha_helios/./lib/chibios/os/common/startup/ARMCMx/compilers/GCC/vectors.o
SharedReport                                      .build/obj_crkbd_rev1_tensotha_helios/usb_descriptor.o (symbol from plugin)
SysTick_Handler                                   .build/obj_crkbd_rev1_tensotha_helios/./lib/chibios/os/common/startup/ARMCMx/compilers/GCC/vectors.o
SystemCoreClock                                   .build/obj_crkbd_rev1_tensotha_helios/lib/chibios/os/hal/ports/RP/RP2040/hal_lld.o (symbol from plugin)
USBD1                                             .build/obj_crkbd_rev1_tensotha_helios/lib/chibios-contrib/os/hal/ports/RP/LLD/USBDv1/hal_usb_lld.o (symbol from plugin)
                                                  .build/obj_crkbd_rev1_tensotha_helios/protocol/chibios/usb_util.o (symbol from plugin)
                                                  .build/obj_crkbd_rev1_tensotha_helios/protocol/chibios/usb_endpoints.o (symbol from plugin)
                                                  .build/obj_crkbd_rev1_tensotha_helios/protocol/chibios/chibios.o (symbol from plugin)
                                                  .build/obj_crkbd_rev1_tensotha_helios/protocol/chibios/usb_main.o (symbol from plugin)
UsageFault_Handler                                .build/obj_crkbd_rev1_tensotha_helios/./lib/chibios/os/common/startup/ARMCMx/compilers/GCC/vectors.o
Vector20                                          .build/obj_crkbd_rev1_tensotha_helios/./lib/chibios/os/common/startup/ARMCMx/compilers/GCC/vectors.o
Vector24                                          .build/obj_crkbd_rev1_tensotha_helios/./lib/chibios/os/common/startup/ARMCMx/compilers/GCC/vectors.o
Vector28                                          .build/obj_crkbd_rev1_tensotha_helios/./lib/chibios/os/common/startup/ARMCMx/compilers/GCC/vectors.o
Vector34                                          .build/obj_crkbd_rev1_tensotha_helios/./lib/chibios/os/common/startup/ARMCMx/compilers/GCC/vectors.o
Vector40                                          /var/folders/01/r6qc96lx1x7c0h1529l70j5m0000gn/T//ccqg8YyW.ltrans0.ltrans.o
                                                  .build/obj_crkbd_rev1_tensotha_helios/lib/chibios/os/hal/ports/RP/LLD/TIMERv1/hal_st_lld.o (symbol from plugin)
                                                  .build/obj_crkbd_rev1_tensotha_helios/./lib/chibios/os/common/startup/ARMCMx/compilers/GCC/vectors.o
Vector44                                          /var/folders/01/r6qc96lx1x7c0h1529l70j5m0000gn/T//ccqg8YyW.ltrans0.ltrans.o
                                                  .build/obj_crkbd_rev1_tensotha_helios/lib/chibios/os/hal/ports/RP/LLD/TIMERv1/hal_st_lld.o (symbol from plugin)
                                                  .build/obj_crkbd_rev1_tensotha_helios/./lib/chibios/os/common/startup/ARMCMx/compilers/GCC/vectors.o
Vector48                                          /var/folders/01/r6qc96lx1x7c0h1529l70j5m0000gn/T//ccqg8YyW.ltrans0.ltrans.o
                                                  .build/obj_crkbd_rev1_tensotha_helios/lib/chibios/os/hal/ports/RP/LLD/TIMERv1/hal_st_lld.o (symbol from plugin)
                                                  .build/obj_crkbd_rev1_tensotha_helios/./lib/chibios/os/common/startup/ARMCMx/compilers/GCC/vectors.o
Vector4C                                          /var/folders/01/r6qc96lx1x7c0h1529l70j5m0000gn/T//ccqg8YyW.ltrans0.ltrans.o
                                                  .build/obj_crkbd_rev1_tensotha_helios/lib/chibios/os/hal/ports/RP/LLD/TIMERv1/hal_st_lld.o (symbol from plugin)
                                                  .build/obj_crkbd_rev1_tensotha_helios/./lib/chibios/os/common/startup/ARMCMx/compilers/GCC/vectors.o
Vector50                                          .build/obj_crkbd_rev1_tensotha_helios/./lib/chibios/os/common/startup/ARMCMx/compilers/GCC/vectors.o
Vector54                                          /var/folders/01/r6qc96lx1x7c0h1529l70j5m0000gn/T//ccqg8YyW.ltrans0.ltrans.o
                                                  .build/obj_crkbd_rev1_tensotha_helios/lib/chibios-contrib/os/hal/ports/RP/LLD/USBDv1/hal_usb_lld.o (symbol from plugin)
                                                  .build/obj_crkbd_rev1_tensotha_helios/./lib/chibios/os/common/startup/ARMCMx/compilers/GCC/vectors.o
Vector58                                          .build/obj_crkbd_rev1_tensotha_helios/./lib/chibios/os/common/startup/ARMCMx/compilers/GCC/vectors.o
Vector5C                                          .build/obj_crkbd_rev1_tensotha_helios/serial_vendor.a(serial_vendor.o)
Vector60                                          .build/obj_crkbd_rev1_tensotha_helios/./lib/chibios/os/common/startup/ARMCMx/compilers/GCC/vectors.o
Vector64                                          .build/obj_crkbd_rev1_tensotha_helios/./lib/chibios/os/common/startup/ARMCMx/compilers/GCC/vectors.o
Vector68                                          .build/obj_crkbd_rev1_tensotha_helios/./lib/chibios/os/common/startup/ARMCMx/compilers/GCC/vectors.o
Vector6C                                          /var/folders/01/r6qc96lx1x7c0h1529l70j5m0000gn/T//ccqg8YyW.ltrans0.ltrans.o
                                                  .build/obj_crkbd_rev1_tensotha_helios/lib/chibios/os/hal/ports/RP/LLD/DMAv1/rp_dma.o (symbol from plugin)
                                                  .build/obj_crkbd_rev1_tensotha_helios/./lib/chibios/os/common/startup/ARMCMx/compilers/GCC/vectors.o
Vector70                                          /var/folders/01/r6qc96lx1x7c0h1529l70j5m0000gn/T//ccqg8YyW.ltrans0.ltrans.o
                                                  .build/obj_crkbd_rev1_tensotha_helios/lib/chibios/os/hal/ports/RP/LLD/DMAv1/rp_dma.o (symbol from plugin)
                                                  .build/obj_crkbd_rev1_tensotha_helios/./lib/chibios/os/common/startup/ARMCMx/compilers/GCC/vectors.o
Vector74                                          .build/obj_crkbd_rev1_tensotha_helios/./lib/chibios/os/common/startup/ARMCMx/compilers/GCC/vectors.o
Vector78                                          .build/obj_crkbd_rev1_tensotha_helios/./lib/chibios/os/common/startup/ARMCMx/compilers/GCC/vectors.o
Vector7C                                          /var/folders/01/r6qc96lx1x7c0h1529l70j5m0000gn/T//ccqg8YyW.ltrans0.ltrans.o
                                                  .build/obj_crkbd_rev1_tensotha_helios/lib/chibios/os/common/ports/ARMv6-M-RP2/chcore.o (symbol from plugin)
                                                  .build/obj_crkbd_rev1_tensotha_helios/./lib/chibios/os/common/startup/ARMCMx/compilers/GCC/vectors.o
Vector80                                          /var/folders/01/r6qc96lx1x7c0h1529l70j5m0000gn/T//ccqg8YyW.ltrans0.ltrans.o
                                                  .build/obj_crkbd_rev1_tensotha_helios/lib/chibios/os/common/ports/ARMv6-M-RP2/chcore.o (symbol from plugin)
                                                  .build/obj_crkbd_rev1_tensotha_helios/./lib/chibios/os/common/startup/ARMCMx/compilers/GCC/vectors.o
Vector84                                          .build/obj_crkbd_rev1_tensotha_helios/./lib/chibios/os/common/startup/ARMCMx/compilers/GCC/vectors.o
Vector88                                          .build/obj_crkbd_rev1_tensotha_helios/./lib/chibios/os/common/startup/ARMCMx/compilers/GCC/vectors.o
Vector8C                                          .build/obj_crkbd_rev1_tensotha_helios/./lib/chibios/os/common/startup/ARMCMx/compilers/GCC/vectors.o
Vector90                                          .build/obj_crkbd_rev1_tensotha_helios/./lib/chibios/os/common/startup/ARMCMx/compilers/GCC/vectors.o
Vector94                                          .build/obj_crkbd_rev1_tensotha_helios/./lib/chibios/os/common/startup/ARMCMx/compilers/GCC/vectors.o
Vector98                                          /var/folders/01/r6qc96lx1x7c0h1529l70j5m0000gn/T//ccqg8YyW.ltrans0.ltrans.o
                                                  .build/obj_crkbd_rev1_tensotha_helios/lib/chibios-contrib/os/hal/ports/RP/LLD/ADCv1/hal_adc_lld.o (symbol from plugin)
                                                  .build/obj_crkbd_rev1_tensotha_helios/./lib/chibios/os/common/startup/ARMCMx/compilers/GCC/vectors.o
Vector9C                                          .build/obj_crkbd_rev1_tensotha_helios/./lib/chibios/os/common/startup/ARMCMx/compilers/GCC/vectors.o
VectorA0                                          /var/folders/01/r6qc96lx1x7c0h1529l70j5m0000gn/T//ccqg8YyW.ltrans0.ltrans.o
                                                  .build/obj_crkbd_rev1_tensotha_helios/lib/chibios-contrib/os/hal/ports/RP/LLD/I2Cv1/hal_i2c_lld.o (symbol from plugin)
                                                  .build/obj_crkbd_rev1_tensotha_helios/./lib/chibios/os/common/startup/ARMCMx/compilers/GCC/vectors.o
VectorA4                                          .build/obj_crkbd_rev1_tensotha_helios/./lib/chibios/os/common/startup/ARMCMx/compilers/GCC/vectors.o
VectorA8                                          .build/obj_crkbd_rev1_tensotha_helios/./lib/chibios/os/common/startup/ARMCMx/compilers/GCC/vectors.o
VectorAC                                          .build/obj_crkbd_rev1_tensotha_helios/./lib/chibios/os/common/startup/ARMCMx/compilers/GCC/vectors.o
VectorB0                                          .build/obj_crkbd_rev1_tensotha_helios/./lib/chibios/os/common/startup/ARMCMx/compilers/GCC/vectors.o
VectorB4                                          .build/obj_crkbd_rev1_tensotha_helios/./lib/chibios/os/common/startup/ARMCMx/compilers/GCC/vectors.o
VectorB8                                          .build/obj_crkbd_rev1_tensotha_helios/./lib/chibios/os/common/startup/ARMCMx/compilers/GCC/vectors.o
VectorBC                                          .build/obj_crkbd_rev1_tensotha_helios/./lib/chibios/os/common/startup/ARMCMx/compilers/GCC/vectors.o
__aeabi_cfcmpeq                                   /opt/homebrew/Cellar/arm-none-eabi-gcc@8/8.5.0_2/lib/arm-none-eabi-gcc/8/gcc/arm-none-eabi/8.5.0/thumb/v6-m/nofp/libgcc.a(_arm_cmpsf2.o)
__aeabi_cfcmple                                   /opt/homebrew/Cellar/arm-none-eabi-gcc@8/8.5.0_2/lib/arm-none-eabi-gcc/8/gcc/arm-none-eabi/8.5.0/thumb/v6-m/nofp/libgcc.a(_arm_cmpsf2.o)
__aeabi_cfrcmple                                  /opt/homebrew/Cellar/arm-none-eabi-gcc@8/8.5.0_2/lib/arm-none-eabi-gcc/8/gcc/arm-none-eabi/8.5.0/thumb/v6-m/nofp/libgcc.a(_arm_cmpsf2.o)
__aeabi_f2iz                                      /opt/homebrew/Cellar/arm-none-eabi-gcc@8/8.5.0_2/lib/arm-none-eabi-gcc/8/gcc/arm-none-eabi/8.5.0/thumb/v6-m/nofp/libgcc.a(fixsfsi.o)
                                                  /opt/homebrew/Cellar/arm-none-eabi-gcc@8/8.5.0_2/lib/arm-none-eabi-gcc/8/gcc/arm-none-eabi/8.5.0/thumb/v6-m/nofp/libgcc.a(_fixunssfsi.o)
__aeabi_f2uiz                                     /opt/homebrew/Cellar/arm-none-eabi-gcc@8/8.5.0_2/lib/arm-none-eabi-gcc/8/gcc/arm-none-eabi/8.5.0/thumb/v6-m/nofp/libgcc.a(_fixunssfsi.o)
                                                  /var/folders/01/r6qc96lx1x7c0h1529l70j5m0000gn/T//ccqg8YyW.ltrans0.ltrans.o
                                                  .build/obj_crkbd_rev1_tensotha_helios/serial_vendor.a(serial_vendor.o)
__aeabi_fcmpeq                                    /opt/homebrew/Cellar/arm-none-eabi-gcc@8/8.5.0_2/lib/arm-none-eabi-gcc/8/gcc/arm-none-eabi/8.5.0/thumb/v6-m/nofp/libgcc.a(_arm_cmpsf2.o)
__aeabi_fcmpge                                    /opt/homebrew/Cellar/arm-none-eabi-gcc@8/8.5.0_2/lib/arm-none-eabi-gcc/8/gcc/arm-none-eabi/8.5.0/thumb/v6-m/nofp/libgcc.a(_arm_cmpsf2.o)
                                                  /opt/homebrew/Cellar/arm-none-eabi-gcc@8/8.5.0_2/lib/arm-none-eabi-gcc/8/gcc/arm-none-eabi/8.5.0/thumb/v6-m/nofp/libgcc.a(_fixunssfsi.o)
__aeabi_fcmpgt                                    /opt/homebrew/Cellar/arm-none-eabi-gcc@8/8.5.0_2/lib/arm-none-eabi-gcc/8/gcc/arm-none-eabi/8.5.0/thumb/v6-m/nofp/libgcc.a(_arm_cmpsf2.o)
__aeabi_fcmple                                    /opt/homebrew/Cellar/arm-none-eabi-gcc@8/8.5.0_2/lib/arm-none-eabi-gcc/8/gcc/arm-none-eabi/8.5.0/thumb/v6-m/nofp/libgcc.a(_arm_cmpsf2.o)
__aeabi_fcmplt                                    /opt/homebrew/Cellar/arm-none-eabi-gcc@8/8.5.0_2/lib/arm-none-eabi-gcc/8/gcc/arm-none-eabi/8.5.0/thumb/v6-m/nofp/libgcc.a(_arm_cmpsf2.o)
__aeabi_fdiv                                      /opt/homebrew/Cellar/arm-none-eabi-gcc@8/8.5.0_2/lib/arm-none-eabi-gcc/8/gcc/arm-none-eabi/8.5.0/thumb/v6-m/nofp/libgcc.a(divsf3.o)
                                                  /var/folders/01/r6qc96lx1x7c0h1529l70j5m0000gn/T//ccqg8YyW.ltrans0.ltrans.o
                                                  .build/obj_crkbd_rev1_tensotha_helios/serial_vendor.a(serial_vendor.o)
__aeabi_fmul                                      /opt/homebrew/Cellar/arm-none-eabi-gcc@8/8.5.0_2/lib/arm-none-eabi-gcc/8/gcc/arm-none-eabi/8.5.0/thumb/v6-m/nofp/libgcc.a(mulsf3.o)
                                                  /var/folders/01/r6qc96lx1x7c0h1529l70j5m0000gn/T//ccqg8YyW.ltrans0.ltrans.o
                                                  .build/obj_crkbd_rev1_tensotha_helios/serial_vendor.a(serial_vendor.o)
__aeabi_fsub                                      /opt/homebrew/Cellar/arm-none-eabi-gcc@8/8.5.0_2/lib/arm-none-eabi-gcc/8/gcc/arm-none-eabi/8.5.0/thumb/v6-m/nofp/libgcc.a(subsf3.o)
                                                  /var/folders/01/r6qc96lx1x7c0h1529l70j5m0000gn/T//ccqg8YyW.ltrans0.ltrans.o
                                                  /opt/homebrew/Cellar/arm-none-eabi-gcc@8/8.5.0_2/lib/arm-none-eabi-gcc/8/gcc/arm-none-eabi/8.5.0/thumb/v6-m/nofp/libgcc.a(_fixunssfsi.o)
                                                  .build/obj_crkbd_rev1_tensotha_helios/serial_vendor.a(serial_vendor.o)
__aeabi_idiv0                                     /opt/homebrew/Cellar/arm-none-eabi-gcc@8/8.5.0_2/lib/arm-none-eabi-gcc/8/gcc/arm-none-eabi/8.5.0/thumb/v6-m/nofp/libgcc.a(_dvmd_tls.o)
                                                  .build/obj_crkbd_rev1_tensotha_helios/./lib/pico-sdk/src/rp2_common/pico_divider/divider.o
__aeabi_ldiv0                                     /opt/homebrew/Cellar/arm-none-eabi-gcc@8/8.5.0_2/lib/arm-none-eabi-gcc/8/gcc/arm-none-eabi/8.5.0/thumb/v6-m/nofp/libgcc.a(_dvmd_tls.o)
                                                  .build/obj_crkbd_rev1_tensotha_helios/./lib/pico-sdk/src/rp2_common/pico_divider/divider.o
__aeabi_ui2f                                      /opt/homebrew/Cellar/arm-none-eabi-gcc@8/8.5.0_2/lib/arm-none-eabi-gcc/8/gcc/arm-none-eabi/8.5.0/thumb/v6-m/nofp/libgcc.a(floatunsisf.o)
                                                  /var/folders/01/r6qc96lx1x7c0h1529l70j5m0000gn/T//ccqg8YyW.ltrans0.ltrans.o
                                                  .build/obj_crkbd_rev1_tensotha_helios/serial_vendor.a(serial_vendor.o)
__assert                                          /opt/homebrew/Cellar/arm-none-eabi-gcc@8/8.5.0_2/lib/arm-none-eabi-gcc/8/gcc/arm-none-eabi/8.5.0/../../../../../../arm-none-eabi/lib/thumb/v6-m/nofp/libg_nano.a(lib_a-assert.o)
__assert_func                                     /opt/homebrew/Cellar/arm-none-eabi-gcc@8/8.5.0_2/lib/arm-none-eabi-gcc/8/gcc/arm-none-eabi/8.5.0/../../../../../../arm-none-eabi/lib/thumb/v6-m/nofp/libg_nano.a(lib_a-assert.o)
                                                  /opt/homebrew/Cellar/arm-none-eabi-gcc@8/8.5.0_2/lib/arm-none-eabi-gcc/8/gcc/arm-none-eabi/8.5.0/../../../../../../arm-none-eabi/lib/thumb/v6-m/nofp/libg_nano.a(lib_a-rand.o)
__bss_base__                                      .build/obj_crkbd_rev1_tensotha_helios/./lib/chibios/os/common/startup/ARMCMx/compilers/GCC/crt0_v6m.o
__bss_end__                                       .build/obj_crkbd_rev1_tensotha_helios/./lib/chibios/os/common/startup/ARMCMx/compilers/GCC/crt0_v6m.o
__chibios_override___early_init                   .build/obj_crkbd_rev1_tensotha_helios/lib/chibios/os/hal/boards/RP_PICO_RP2040/board.o (symbol from plugin)
                                                  .build/obj_crkbd_rev1_tensotha_helios/protocol/chibios/chibios.o (symbol from plugin)
__chibios_override_boardInit                      .build/obj_crkbd_rev1_tensotha_helios/lib/chibios/os/hal/boards/RP_PICO_RP2040/board.o (symbol from plugin)
                                                  .build/obj_crkbd_rev1_tensotha_helios/protocol/chibios/chibios.o (symbol from plugin)
__clzsi2                                          /opt/homebrew/Cellar/arm-none-eabi-gcc@8/8.5.0_2/lib/arm-none-eabi-gcc/8/gcc/arm-none-eabi/8.5.0/thumb/v6-m/nofp/libgcc.a(_clzsi2.o)
                                                  /opt/homebrew/Cellar/arm-none-eabi-gcc@8/8.5.0_2/lib/arm-none-eabi-gcc/8/gcc/arm-none-eabi/8.5.0/thumb/v6-m/nofp/libgcc.a(floatunsisf.o)
                                                  /opt/homebrew/Cellar/arm-none-eabi-gcc@8/8.5.0_2/lib/arm-none-eabi-gcc/8/gcc/arm-none-eabi/8.5.0/thumb/v6-m/nofp/libgcc.a(subsf3.o)
                                                  /opt/homebrew/Cellar/arm-none-eabi-gcc@8/8.5.0_2/lib/arm-none-eabi-gcc/8/gcc/arm-none-eabi/8.5.0/thumb/v6-m/nofp/libgcc.a(mulsf3.o)
                                                  /opt/homebrew/Cellar/arm-none-eabi-gcc@8/8.5.0_2/lib/arm-none-eabi-gcc/8/gcc/arm-none-eabi/8.5.0/thumb/v6-m/nofp/libgcc.a(divsf3.o)
__core_init                                       .build/obj_crkbd_rev1_tensotha_helios/lib/chibios/os/oslib/src/chmemcore.o (symbol from plugin)
                                                  .build/obj_crkbd_rev1_tensotha_helios/lib/chibios/os/rt/src/chsys.o (symbol from plugin)
__cpu_init                                        /var/folders/01/r6qc96lx1x7c0h1529l70j5m0000gn/T//ccqg8YyW.ltrans0.ltrans.o
                                                  .build/obj_crkbd_rev1_tensotha_helios/lib/chibios/os/common/startup/ARMCMx/compilers/GCC/crt1.o (symbol from plugin)
                                                  .build/obj_crkbd_rev1_tensotha_helios/./lib/chibios/os/common/startup/ARMCMx/compilers/GCC/crt0_v6m.o
__ctzsi2                                          /opt/homebrew/Cellar/arm-none-eabi-gcc@8/8.5.0_2/lib/arm-none-eabi-gcc/8/gcc/arm-none-eabi/8.5.0/thumb/v6-m/nofp/libgcc.a(_ctzsi2.o)
                                                  /var/folders/01/r6qc96lx1x7c0h1529l70j5m0000gn/T//ccqg8YyW.ltrans0.ltrans.o
__cxa_pure_virtual                                .build/obj_crkbd_rev1_tensotha_helios/lib/chibios/os/various/syscalls.o (symbol from plugin)
__data_base__                                     .build/obj_crkbd_rev1_tensotha_helios/./lib/chibios/os/common/startup/ARMCMx/compilers/GCC/crt0_v6m.o
__data_end__                                      .build/obj_crkbd_rev1_tensotha_helios/./lib/chibios/os/common/startup/ARMCMx/compilers/GCC/crt0_v6m.o
__default_exit                                    /var/folders/01/r6qc96lx1x7c0h1529l70j5m0000gn/T//ccqg8YyW.ltrans0.ltrans.o
                                                  .build/obj_crkbd_rev1_tensotha_helios/lib/chibios/os/common/startup/ARMCMx/compilers/GCC/crt1.o (symbol from plugin)
                                                  .build/obj_crkbd_rev1_tensotha_helios/./lib/chibios/os/common/startup/ARMCMx/compilers/GCC/crt0_v6m.o
__dso_handle                                      /var/folders/01/r6qc96lx1x7c0h1529l70j5m0000gn/T//ccqg8YyW.ltrans0.ltrans.o
                                                  .build/obj_crkbd_rev1_tensotha_helios/platforms/chibios/syscall-fallbacks.o (symbol from plugin)
__early_init                                      /var/folders/01/r6qc96lx1x7c0h1529l70j5m0000gn/T//ccqg8YyW.ltrans0.ltrans.o
                                                  .build/obj_crkbd_rev1_tensotha_helios/protocol/chibios/chibios.o (symbol from plugin)
                                                  .build/obj_crkbd_rev1_tensotha_helios/./lib/chibios/os/common/startup/ARMCMx/compilers/GCC/crt0_v6m.o
__eqsf2                                           /opt/homebrew/Cellar/arm-none-eabi-gcc@8/8.5.0_2/lib/arm-none-eabi-gcc/8/gcc/arm-none-eabi/8.5.0/thumb/v6-m/nofp/libgcc.a(eqsf2.o)
                                                  /opt/homebrew/Cellar/arm-none-eabi-gcc@8/8.5.0_2/lib/arm-none-eabi-gcc/8/gcc/arm-none-eabi/8.5.0/thumb/v6-m/nofp/libgcc.a(_arm_cmpsf2.o)
__errno                                           /opt/homebrew/Cellar/arm-none-eabi-gcc@8/8.5.0_2/lib/arm-none-eabi-gcc/8/gcc/arm-none-eabi/8.5.0/../../../../../../arm-none-eabi/lib/thumb/v6-m/nofp/libg_nano.a(lib_a-errno.o)
                                                  .build/obj_crkbd_rev1_tensotha_helios/platforms/chibios/syscall-fallbacks.o (symbol from plugin)
__fini_array_base__                               .build/obj_crkbd_rev1_tensotha_helios/./lib/chibios/os/common/startup/ARMCMx/compilers/GCC/crt0_v6m.o
__fini_array_end__                                .build/obj_crkbd_rev1_tensotha_helios/./lib/chibios/os/common/startup/ARMCMx/compilers/GCC/crt0_v6m.o
__fixunssfsi                                      /opt/homebrew/Cellar/arm-none-eabi-gcc@8/8.5.0_2/lib/arm-none-eabi-gcc/8/gcc/arm-none-eabi/8.5.0/thumb/v6-m/nofp/libgcc.a(_fixunssfsi.o)
__fp_lock_all                                     /opt/homebrew/Cellar/arm-none-eabi-gcc@8/8.5.0_2/lib/arm-none-eabi-gcc/8/gcc/arm-none-eabi/8.5.0/../../../../../../arm-none-eabi/lib/thumb/v6-m/nofp/libg_nano.a(lib_a-findfp.o)
__fp_unlock_all                                   /opt/homebrew/Cellar/arm-none-eabi-gcc@8/8.5.0_2/lib/arm-none-eabi-gcc/8/gcc/arm-none-eabi/8.5.0/../../../../../../arm-none-eabi/lib/thumb/v6-m/nofp/libg_nano.a(lib_a-findfp.o)
__gesf2                                           /opt/homebrew/Cellar/arm-none-eabi-gcc@8/8.5.0_2/lib/arm-none-eabi-gcc/8/gcc/arm-none-eabi/8.5.0/thumb/v6-m/nofp/libgcc.a(gesf2.o)
                                                  /opt/homebrew/Cellar/arm-none-eabi-gcc@8/8.5.0_2/lib/arm-none-eabi-gcc/8/gcc/arm-none-eabi/8.5.0/thumb/v6-m/nofp/libgcc.a(_arm_cmpsf2.o)
__gnu_thumb1_case_shi                             /opt/homebrew/Cellar/arm-none-eabi-gcc@8/8.5.0_2/lib/arm-none-eabi-gcc/8/gcc/arm-none-eabi/8.5.0/thumb/v6-m/nofp/libgcc.a(_thumb1_case_shi.o)
                                                  /var/folders/01/r6qc96lx1x7c0h1529l70j5m0000gn/T//ccqg8YyW.ltrans0.ltrans.o
__gnu_thumb1_case_sqi                             /opt/homebrew/Cellar/arm-none-eabi-gcc@8/8.5.0_2/lib/arm-none-eabi-gcc/8/gcc/arm-none-eabi/8.5.0/thumb/v6-m/nofp/libgcc.a(_thumb1_case_sqi.o)
                                                  /var/folders/01/r6qc96lx1x7c0h1529l70j5m0000gn/T//ccqg8YyW.ltrans0.ltrans.o
__gnu_thumb1_case_uhi                             /opt/homebrew/Cellar/arm-none-eabi-gcc@8/8.5.0_2/lib/arm-none-eabi-gcc/8/gcc/arm-none-eabi/8.5.0/thumb/v6-m/nofp/libgcc.a(_thumb1_case_uhi.o)
                                                  /var/folders/01/r6qc96lx1x7c0h1529l70j5m0000gn/T//ccqg8YyW.ltrans0.ltrans.o
__gnu_thumb1_case_uqi                             /opt/homebrew/Cellar/arm-none-eabi-gcc@8/8.5.0_2/lib/arm-none-eabi-gcc/8/gcc/arm-none-eabi/8.5.0/thumb/v6-m/nofp/libgcc.a(_thumb1_case_uqi.o)
                                                  /var/folders/01/r6qc96lx1x7c0h1529l70j5m0000gn/T//ccqg8YyW.ltrans0.ltrans.o
__gtsf2                                           /opt/homebrew/Cellar/arm-none-eabi-gcc@8/8.5.0_2/lib/arm-none-eabi-gcc/8/gcc/arm-none-eabi/8.5.0/thumb/v6-m/nofp/libgcc.a(gesf2.o)
__heap_base__                                     /var/folders/01/r6qc96lx1x7c0h1529l70j5m0000gn/T//ccqg8YyW.ltrans0.ltrans.o
                                                  .build/obj_crkbd_rev1_tensotha_helios/lib/chibios/os/oslib/src/chmemcore.o (symbol from plugin)
__heap_end__                                      /var/folders/01/r6qc96lx1x7c0h1529l70j5m0000gn/T//ccqg8YyW.ltrans0.ltrans.o
                                                  .build/obj_crkbd_rev1_tensotha_helios/lib/chibios/os/oslib/src/chmemcore.o (symbol from plugin)
__init_array_base__                               .build/obj_crkbd_rev1_tensotha_helios/./lib/chibios/os/common/startup/ARMCMx/compilers/GCC/crt0_v6m.o
__init_array_end__                                .build/obj_crkbd_rev1_tensotha_helios/./lib/chibios/os/common/startup/ARMCMx/compilers/GCC/crt0_v6m.o
__init_ram_areas                                  /var/folders/01/r6qc96lx1x7c0h1529l70j5m0000gn/T//ccqg8YyW.ltrans0.ltrans.o
                                                  .build/obj_crkbd_rev1_tensotha_helios/lib/chibios/os/common/startup/ARMCMx/compilers/GCC/crt1.o (symbol from plugin)
                                                  .build/obj_crkbd_rev1_tensotha_helios/./lib/chibios/os/common/startup/ARMCMx/compilers/GCC/crt0_v6m.o
__late_init                                       /var/folders/01/r6qc96lx1x7c0h1529l70j5m0000gn/T//ccqg8YyW.ltrans0.ltrans.o
                                                  .build/obj_crkbd_rev1_tensotha_helios/platforms/chibios/bootloaders/rp2040.o (symbol from plugin)
                                                  .build/obj_crkbd_rev1_tensotha_helios/./lib/chibios/os/common/startup/ARMCMx/compilers/GCC/crt0_v6m.o
__lesf2                                           /opt/homebrew/Cellar/arm-none-eabi-gcc@8/8.5.0_2/lib/arm-none-eabi-gcc/8/gcc/arm-none-eabi/8.5.0/thumb/v6-m/nofp/libgcc.a(lesf2.o)
                                                  /opt/homebrew/Cellar/arm-none-eabi-gcc@8/8.5.0_2/lib/arm-none-eabi-gcc/8/gcc/arm-none-eabi/8.5.0/thumb/v6-m/nofp/libgcc.a(_arm_cmpsf2.o)
__lock___arc4random_mutex                         /opt/homebrew/Cellar/arm-none-eabi-gcc@8/8.5.0_2/lib/arm-none-eabi-gcc/8/gcc/arm-none-eabi/8.5.0/../../../../../../arm-none-eabi/lib/thumb/v6-m/nofp/libg_nano.a(lib_a-lock.o)
__lock___at_quick_exit_mutex                      /opt/homebrew/Cellar/arm-none-eabi-gcc@8/8.5.0_2/lib/arm-none-eabi-gcc/8/gcc/arm-none-eabi/8.5.0/../../../../../../arm-none-eabi/lib/thumb/v6-m/nofp/libg_nano.a(lib_a-lock.o)
__lock___atexit_recursive_mutex                   /opt/homebrew/Cellar/arm-none-eabi-gcc@8/8.5.0_2/lib/arm-none-eabi-gcc/8/gcc/arm-none-eabi/8.5.0/../../../../../../arm-none-eabi/lib/thumb/v6-m/nofp/libg_nano.a(lib_a-lock.o)
__lock___dd_hash_mutex                            /opt/homebrew/Cellar/arm-none-eabi-gcc@8/8.5.0_2/lib/arm-none-eabi-gcc/8/gcc/arm-none-eabi/8.5.0/../../../../../../arm-none-eabi/lib/thumb/v6-m/nofp/libg_nano.a(lib_a-lock.o)
__lock___env_recursive_mutex                      /opt/homebrew/Cellar/arm-none-eabi-gcc@8/8.5.0_2/lib/arm-none-eabi-gcc/8/gcc/arm-none-eabi/8.5.0/../../../../../../arm-none-eabi/lib/thumb/v6-m/nofp/libg_nano.a(lib_a-lock.o)
__lock___malloc_recursive_mutex                   /opt/homebrew/Cellar/arm-none-eabi-gcc@8/8.5.0_2/lib/arm-none-eabi-gcc/8/gcc/arm-none-eabi/8.5.0/../../../../../../arm-none-eabi/lib/thumb/v6-m/nofp/libg_nano.a(lib_a-lock.o)
                                                  /opt/homebrew/Cellar/arm-none-eabi-gcc@8/8.5.0_2/lib/arm-none-eabi-gcc/8/gcc/arm-none-eabi/8.5.0/../../../../../../arm-none-eabi/lib/thumb/v6-m/nofp/libg_nano.a(lib_a-mlock.o)
__lock___sfp_recursive_mutex                      /opt/homebrew/Cellar/arm-none-eabi-gcc@8/8.5.0_2/lib/arm-none-eabi-gcc/8/gcc/arm-none-eabi/8.5.0/../../../../../../arm-none-eabi/lib/thumb/v6-m/nofp/libg_nano.a(lib_a-lock.o)
                                                  /opt/homebrew/Cellar/arm-none-eabi-gcc@8/8.5.0_2/lib/arm-none-eabi-gcc/8/gcc/arm-none-eabi/8.5.0/../../../../../../arm-none-eabi/lib/thumb/v6-m/nofp/libg_nano.a(lib_a-findfp.o)
__lock___sinit_recursive_mutex                    /opt/homebrew/Cellar/arm-none-eabi-gcc@8/8.5.0_2/lib/arm-none-eabi-gcc/8/gcc/arm-none-eabi/8.5.0/../../../../../../arm-none-eabi/lib/thumb/v6-m/nofp/libg_nano.a(lib_a-lock.o)
                                                  /opt/homebrew/Cellar/arm-none-eabi-gcc@8/8.5.0_2/lib/arm-none-eabi-gcc/8/gcc/arm-none-eabi/8.5.0/../../../../../../arm-none-eabi/lib/thumb/v6-m/nofp/libg_nano.a(lib_a-findfp.o)
__lock___tz_mutex                                 /opt/homebrew/Cellar/arm-none-eabi-gcc@8/8.5.0_2/lib/arm-none-eabi-gcc/8/gcc/arm-none-eabi/8.5.0/../../../../../../arm-none-eabi/lib/thumb/v6-m/nofp/libg_nano.a(lib_a-lock.o)
__ltsf2                                           /opt/homebrew/Cellar/arm-none-eabi-gcc@8/8.5.0_2/lib/arm-none-eabi-gcc/8/gcc/arm-none-eabi/8.5.0/thumb/v6-m/nofp/libgcc.a(lesf2.o)
__main_stack_base__                               .build/obj_crkbd_rev1_tensotha_helios/./lib/chibios/os/common/startup/ARMCMx/compilers/GCC/crt0_v6m.o
__main_stack_end__                                .build/obj_crkbd_rev1_tensotha_helios/./lib/chibios/os/common/startup/ARMCMx/compilers/GCC/vectors.o
                                                  .build/obj_crkbd_rev1_tensotha_helios/./lib/chibios/os/common/startup/ARMCMx/compilers/GCC/crt0_v6m.o
__malloc_free_list                                /opt/homebrew/Cellar/arm-none-eabi-gcc@8/8.5.0_2/lib/arm-none-eabi-gcc/8/gcc/arm-none-eabi/8.5.0/../../../../../../arm-none-eabi/lib/thumb/v6-m/nofp/libg_nano.a(lib_a-nano-mallocr.o)
                                                  /opt/homebrew/Cellar/arm-none-eabi-gcc@8/8.5.0_2/lib/arm-none-eabi-gcc/8/gcc/arm-none-eabi/8.5.0/../../../../../../arm-none-eabi/lib/thumb/v6-m/nofp/libg_nano.a(lib_a-nano-freer.o)
__malloc_lock                                     /opt/homebrew/Cellar/arm-none-eabi-gcc@8/8.5.0_2/lib/arm-none-eabi-gcc/8/gcc/arm-none-eabi/8.5.0/../../../../../../arm-none-eabi/lib/thumb/v6-m/nofp/libg_nano.a(lib_a-mlock.o)
                                                  /opt/homebrew/Cellar/arm-none-eabi-gcc@8/8.5.0_2/lib/arm-none-eabi-gcc/8/gcc/arm-none-eabi/8.5.0/../../../../../../arm-none-eabi/lib/thumb/v6-m/nofp/libg_nano.a(lib_a-nano-mallocr.o)
                                                  /opt/homebrew/Cellar/arm-none-eabi-gcc@8/8.5.0_2/lib/arm-none-eabi-gcc/8/gcc/arm-none-eabi/8.5.0/../../../../../../arm-none-eabi/lib/thumb/v6-m/nofp/libg_nano.a(lib_a-nano-freer.o)
__malloc_sbrk_start                               /opt/homebrew/Cellar/arm-none-eabi-gcc@8/8.5.0_2/lib/arm-none-eabi-gcc/8/gcc/arm-none-eabi/8.5.0/../../../../../../arm-none-eabi/lib/thumb/v6-m/nofp/libg_nano.a(lib_a-nano-mallocr.o)
__malloc_unlock                                   /opt/homebrew/Cellar/arm-none-eabi-gcc@8/8.5.0_2/lib/arm-none-eabi-gcc/8/gcc/arm-none-eabi/8.5.0/../../../../../../arm-none-eabi/lib/thumb/v6-m/nofp/libg_nano.a(lib_a-mlock.o)
                                                  /opt/homebrew/Cellar/arm-none-eabi-gcc@8/8.5.0_2/lib/arm-none-eabi-gcc/8/gcc/arm-none-eabi/8.5.0/../../../../../../arm-none-eabi/lib/thumb/v6-m/nofp/libg_nano.a(lib_a-nano-mallocr.o)
                                                  /opt/homebrew/Cellar/arm-none-eabi-gcc@8/8.5.0_2/lib/arm-none-eabi-gcc/8/gcc/arm-none-eabi/8.5.0/../../../../../../arm-none-eabi/lib/thumb/v6-m/nofp/libg_nano.a(lib_a-nano-freer.o)
__nesf2                                           /opt/homebrew/Cellar/arm-none-eabi-gcc@8/8.5.0_2/lib/arm-none-eabi-gcc/8/gcc/arm-none-eabi/8.5.0/thumb/v6-m/nofp/libgcc.a(eqsf2.o)
__pal_lld_init                                    .build/obj_crkbd_rev1_tensotha_helios/lib/chibios/os/hal/ports/RP/LLD/GPIOv1/hal_pal_lld.o (symbol from plugin)
                                                  .build/obj_crkbd_rev1_tensotha_helios/lib/chibios/os/hal/src/hal.o (symbol from plugin)
__port_exit_from_isr                              .build/obj_crkbd_rev1_tensotha_helios/./lib/chibios/os/common/ports/ARMv6-M-RP2/compilers/GCC/chcoreasm.o
                                                  /var/folders/01/r6qc96lx1x7c0h1529l70j5m0000gn/T//ccqg8YyW.ltrans0.ltrans.o
                                                  .build/obj_crkbd_rev1_tensotha_helios/lib/chibios/os/common/ports/ARMv6-M-RP2/chcore.o (symbol from plugin)
__port_irq_epilogue                               /var/folders/01/r6qc96lx1x7c0h1529l70j5m0000gn/T//ccqg8YyW.ltrans0.ltrans.o
                                                  .build/obj_crkbd_rev1_tensotha_helios/lib/chibios/os/common/ports/ARMv6-M-RP2/chcore.o (symbol from plugin)
                                                  .build/obj_crkbd_rev1_tensotha_helios/lib/chibios-contrib/os/hal/ports/RP/LLD/USBDv1/hal_usb_lld.o (symbol from plugin)
                                                  .build/obj_crkbd_rev1_tensotha_helios/lib/chibios-contrib/os/hal/ports/RP/LLD/ADCv1/hal_adc_lld.o (symbol from plugin)
                                                  .build/obj_crkbd_rev1_tensotha_helios/lib/chibios-contrib/os/hal/ports/RP/LLD/I2Cv1/hal_i2c_lld.o (symbol from plugin)
                                                  .build/obj_crkbd_rev1_tensotha_helios/lib/chibios/os/hal/ports/RP/LLD/TIMERv1/hal_st_lld.o (symbol from plugin)
                                                  .build/obj_crkbd_rev1_tensotha_helios/lib/chibios/os/hal/ports/RP/LLD/DMAv1/rp_dma.o (symbol from plugin)
                                                  .build/obj_crkbd_rev1_tensotha_helios/serial_vendor.a(serial_vendor.o)
__port_spinlock_release                           /var/folders/01/r6qc96lx1x7c0h1529l70j5m0000gn/T//ccqg8YyW.ltrans0.ltrans.o
                                                  .build/obj_crkbd_rev1_tensotha_helios/lib/chibios/os/common/ports/ARMv6-M-RP2/chcore.o (symbol from plugin)
                                                  .build/obj_crkbd_rev1_tensotha_helios/./lib/chibios/os/common/ports/ARMv6-M-RP2/compilers/GCC/chcoreasm.o
__port_spinlock_take                              .build/obj_crkbd_rev1_tensotha_helios/lib/chibios/os/common/ports/ARMv6-M-RP2/chcore.o (symbol from plugin)
__port_switch                                     .build/obj_crkbd_rev1_tensotha_helios/./lib/chibios/os/common/ports/ARMv6-M-RP2/compilers/GCC/chcoreasm.o
                                                  /var/folders/01/r6qc96lx1x7c0h1529l70j5m0000gn/T//ccqg8YyW.ltrans0.ltrans.o
                                                  .build/obj_crkbd_rev1_tensotha_helios/lib/chibios/os/rt/src/chschd.o (symbol from plugin)
__port_switch_from_isr                            .build/obj_crkbd_rev1_tensotha_helios/./lib/chibios/os/common/ports/ARMv6-M-RP2/compilers/GCC/chcoreasm.o
                                                  /var/folders/01/r6qc96lx1x7c0h1529l70j5m0000gn/T//ccqg8YyW.ltrans0.ltrans.o
                                                  .build/obj_crkbd_rev1_tensotha_helios/lib/chibios/os/common/ports/ARMv6-M-RP2/chcore.o (symbol from plugin)
__port_thread_start                               .build/obj_crkbd_rev1_tensotha_helios/./lib/chibios/os/common/ports/ARMv6-M-RP2/compilers/GCC/chcoreasm.o
                                                  /var/folders/01/r6qc96lx1x7c0h1529l70j5m0000gn/T//ccqg8YyW.ltrans0.ltrans.o
                                                  .build/obj_crkbd_rev1_tensotha_helios/lib/chibios/os/rt/src/chthreads.o (symbol from plugin)
__process_stack_base__                            .build/obj_crkbd_rev1_tensotha_helios/./lib/chibios/os/common/startup/ARMCMx/compilers/GCC/crt0_v6m.o
__process_stack_end__                             .build/obj_crkbd_rev1_tensotha_helios/./lib/chibios/os/common/startup/ARMCMx/compilers/GCC/crt0_v6m.o
__ram0_clear__                                    /var/folders/01/r6qc96lx1x7c0h1529l70j5m0000gn/T//ccqg8YyW.ltrans0.ltrans.o
                                                  .build/obj_crkbd_rev1_tensotha_helios/lib/chibios/os/common/startup/ARMCMx/compilers/GCC/crt1.o (symbol from plugin)
__ram0_init__                                     /var/folders/01/r6qc96lx1x7c0h1529l70j5m0000gn/T//ccqg8YyW.ltrans0.ltrans.o
                                                  .build/obj_crkbd_rev1_tensotha_helios/lib/chibios/os/common/startup/ARMCMx/compilers/GCC/crt1.o (symbol from plugin)
__ram0_init_text__                                /var/folders/01/r6qc96lx1x7c0h1529l70j5m0000gn/T//ccqg8YyW.ltrans0.ltrans.o
                                                  .build/obj_crkbd_rev1_tensotha_helios/lib/chibios/os/common/startup/ARMCMx/compilers/GCC/crt1.o (symbol from plugin)
__ram0_noinit__                                   /var/folders/01/r6qc96lx1x7c0h1529l70j5m0000gn/T//ccqg8YyW.ltrans0.ltrans.o
                                                  .build/obj_crkbd_rev1_tensotha_helios/lib/chibios/os/common/startup/ARMCMx/compilers/GCC/crt1.o (symbol from plugin)
__ram1_clear__                                    /var/folders/01/r6qc96lx1x7c0h1529l70j5m0000gn/T//ccqg8YyW.ltrans0.ltrans.o
                                                  .build/obj_crkbd_rev1_tensotha_helios/lib/chibios/os/common/startup/ARMCMx/compilers/GCC/crt1.o (symbol from plugin)
__ram1_init__                                     /var/folders/01/r6qc96lx1x7c0h1529l70j5m0000gn/T//ccqg8YyW.ltrans0.ltrans.o
                                                  .build/obj_crkbd_rev1_tensotha_helios/lib/chibios/os/common/startup/ARMCMx/compilers/GCC/crt1.o (symbol from plugin)
__ram1_init_text__                                /var/folders/01/r6qc96lx1x7c0h1529l70j5m0000gn/T//ccqg8YyW.ltrans0.ltrans.o
                                                  .build/obj_crkbd_rev1_tensotha_helios/lib/chibios/os/common/startup/ARMCMx/compilers/GCC/crt1.o (symbol from plugin)
__ram1_noinit__                                   /var/folders/01/r6qc96lx1x7c0h1529l70j5m0000gn/T//ccqg8YyW.ltrans0.ltrans.o
                                                  .build/obj_crkbd_rev1_tensotha_helios/lib/chibios/os/common/startup/ARMCMx/compilers/GCC/crt1.o (symbol from plugin)
__ram2_clear__                                    /var/folders/01/r6qc96lx1x7c0h1529l70j5m0000gn/T//ccqg8YyW.ltrans0.ltrans.o
                                                  .build/obj_crkbd_rev1_tensotha_helios/lib/chibios/os/common/startup/ARMCMx/compilers/GCC/crt1.o (symbol from plugin)
__ram2_init__                                     /var/folders/01/r6qc96lx1x7c0h1529l70j5m0000gn/T//ccqg8YyW.ltrans0.ltrans.o
                                                  .build/obj_crkbd_rev1_tensotha_helios/lib/chibios/os/common/startup/ARMCMx/compilers/GCC/crt1.o (symbol from plugin)
__ram2_init_text__                                /var/folders/01/r6qc96lx1x7c0h1529l70j5m0000gn/T//ccqg8YyW.ltrans0.ltrans.o
                                                  .build/obj_crkbd_rev1_tensotha_helios/lib/chibios/os/common/startup/ARMCMx/compilers/GCC/crt1.o (symbol from plugin)
__ram2_noinit__                                   /var/folders/01/r6qc96lx1x7c0h1529l70j5m0000gn/T//ccqg8YyW.ltrans0.ltrans.o
                                                  .build/obj_crkbd_rev1_tensotha_helios/lib/chibios/os/common/startup/ARMCMx/compilers/GCC/crt1.o (symbol from plugin)
__ram3_clear__                                    /var/folders/01/r6qc96lx1x7c0h1529l70j5m0000gn/T//ccqg8YyW.ltrans0.ltrans.o
                                                  .build/obj_crkbd_rev1_tensotha_helios/lib/chibios/os/common/startup/ARMCMx/compilers/GCC/crt1.o (symbol from plugin)
__ram3_init__                                     /var/folders/01/r6qc96lx1x7c0h1529l70j5m0000gn/T//ccqg8YyW.ltrans0.ltrans.o
                                                  .build/obj_crkbd_rev1_tensotha_helios/lib/chibios/os/common/startup/ARMCMx/compilers/GCC/crt1.o (symbol from plugin)
__ram3_init_text__                                /var/folders/01/r6qc96lx1x7c0h1529l70j5m0000gn/T//ccqg8YyW.ltrans0.ltrans.o
                                                  .build/obj_crkbd_rev1_tensotha_helios/lib/chibios/os/common/startup/ARMCMx/compilers/GCC/crt1.o (symbol from plugin)
__ram3_noinit__                                   /var/folders/01/r6qc96lx1x7c0h1529l70j5m0000gn/T//ccqg8YyW.ltrans0.ltrans.o
                                                  .build/obj_crkbd_rev1_tensotha_helios/lib/chibios/os/common/startup/ARMCMx/compilers/GCC/crt1.o (symbol from plugin)
__ram4_clear__                                    /var/folders/01/r6qc96lx1x7c0h1529l70j5m0000gn/T//ccqg8YyW.ltrans0.ltrans.o
                                                  .build/obj_crkbd_rev1_tensotha_helios/lib/chibios/os/common/startup/ARMCMx/compilers/GCC/crt1.o (symbol from plugin)
__ram4_init__                                     /var/folders/01/r6qc96lx1x7c0h1529l70j5m0000gn/T//ccqg8YyW.ltrans0.ltrans.o
                                                  .build/obj_crkbd_rev1_tensotha_helios/lib/chibios/os/common/startup/ARMCMx/compilers/GCC/crt1.o (symbol from plugin)
__ram4_init_text__                                /var/folders/01/r6qc96lx1x7c0h1529l70j5m0000gn/T//ccqg8YyW.ltrans0.ltrans.o
                                                  .build/obj_crkbd_rev1_tensotha_helios/lib/chibios/os/common/startup/ARMCMx/compilers/GCC/crt1.o (symbol from plugin)
__ram4_noinit__                                   /var/folders/01/r6qc96lx1x7c0h1529l70j5m0000gn/T//ccqg8YyW.ltrans0.ltrans.o
                                                  .build/obj_crkbd_rev1_tensotha_helios/lib/chibios/os/common/startup/ARMCMx/compilers/GCC/crt1.o (symbol from plugin)
__ram5_clear__                                    /var/folders/01/r6qc96lx1x7c0h1529l70j5m0000gn/T//ccqg8YyW.ltrans0.ltrans.o
                                                  .build/obj_crkbd_rev1_tensotha_helios/lib/chibios/os/common/startup/ARMCMx/compilers/GCC/crt1.o (symbol from plugin)
__ram5_init__                                     /var/folders/01/r6qc96lx1x7c0h1529l70j5m0000gn/T//ccqg8YyW.ltrans0.ltrans.o
                                                  .build/obj_crkbd_rev1_tensotha_helios/lib/chibios/os/common/startup/ARMCMx/compilers/GCC/crt1.o (symbol from plugin)
__ram5_init_text__                                /var/folders/01/r6qc96lx1x7c0h1529l70j5m0000gn/T//ccqg8YyW.ltrans0.ltrans.o
                                                  .build/obj_crkbd_rev1_tensotha_helios/lib/chibios/os/common/startup/ARMCMx/compilers/GCC/crt1.o (symbol from plugin)
__ram5_noinit__                                   /var/folders/01/r6qc96lx1x7c0h1529l70j5m0000gn/T//ccqg8YyW.ltrans0.ltrans.o
                                                  .build/obj_crkbd_rev1_tensotha_helios/lib/chibios/os/common/startup/ARMCMx/compilers/GCC/crt1.o (symbol from plugin)
__ram6_clear__                                    /var/folders/01/r6qc96lx1x7c0h1529l70j5m0000gn/T//ccqg8YyW.ltrans0.ltrans.o
                                                  .build/obj_crkbd_rev1_tensotha_helios/lib/chibios/os/common/startup/ARMCMx/compilers/GCC/crt1.o (symbol from plugin)
__ram6_init__                                     /var/folders/01/r6qc96lx1x7c0h1529l70j5m0000gn/T//ccqg8YyW.ltrans0.ltrans.o
                                                  .build/obj_crkbd_rev1_tensotha_helios/lib/chibios/os/common/startup/ARMCMx/compilers/GCC/crt1.o (symbol from plugin)
__ram6_init_text__                                /var/folders/01/r6qc96lx1x7c0h1529l70j5m0000gn/T//ccqg8YyW.ltrans0.ltrans.o
                                                  .build/obj_crkbd_rev1_tensotha_helios/lib/chibios/os/common/startup/ARMCMx/compilers/GCC/crt1.o (symbol from plugin)
__ram6_noinit__                                   /var/folders/01/r6qc96lx1x7c0h1529l70j5m0000gn/T//ccqg8YyW.ltrans0.ltrans.o
                                                  .build/obj_crkbd_rev1_tensotha_helios/lib/chibios/os/common/startup/ARMCMx/compilers/GCC/crt1.o (symbol from plugin)
__ram7_clear__                                    /var/folders/01/r6qc96lx1x7c0h1529l70j5m0000gn/T//ccqg8YyW.ltrans0.ltrans.o
                                                  .build/obj_crkbd_rev1_tensotha_helios/lib/chibios/os/common/startup/ARMCMx/compilers/GCC/crt1.o (symbol from plugin)
__ram7_init__                                     /var/folders/01/r6qc96lx1x7c0h1529l70j5m0000gn/T//ccqg8YyW.ltrans0.ltrans.o
                                                  .build/obj_crkbd_rev1_tensotha_helios/lib/chibios/os/common/startup/ARMCMx/compilers/GCC/crt1.o (symbol from plugin)
__ram7_init_text__                                /var/folders/01/r6qc96lx1x7c0h1529l70j5m0000gn/T//ccqg8YyW.ltrans0.ltrans.o
                                                  .build/obj_crkbd_rev1_tensotha_helios/lib/chibios/os/common/startup/ARMCMx/compilers/GCC/crt1.o (symbol from plugin)
__ram7_noinit__                                   /var/folders/01/r6qc96lx1x7c0h1529l70j5m0000gn/T//ccqg8YyW.ltrans0.ltrans.o
                                                  .build/obj_crkbd_rev1_tensotha_helios/lib/chibios/os/common/startup/ARMCMx/compilers/GCC/crt1.o (symbol from plugin)
__retarget_lock_acquire                           /opt/homebrew/Cellar/arm-none-eabi-gcc@8/8.5.0_2/lib/arm-none-eabi-gcc/8/gcc/arm-none-eabi/8.5.0/../../../../../../arm-none-eabi/lib/thumb/v6-m/nofp/libg_nano.a(lib_a-lock.o)
__retarget_lock_acquire_recursive                 /opt/homebrew/Cellar/arm-none-eabi-gcc@8/8.5.0_2/lib/arm-none-eabi-gcc/8/gcc/arm-none-eabi/8.5.0/../../../../../../arm-none-eabi/lib/thumb/v6-m/nofp/libg_nano.a(lib_a-lock.o)
                                                  /opt/homebrew/Cellar/arm-none-eabi-gcc@8/8.5.0_2/lib/arm-none-eabi-gcc/8/gcc/arm-none-eabi/8.5.0/../../../../../../arm-none-eabi/lib/thumb/v6-m/nofp/libg_nano.a(lib_a-mlock.o)
                                                  /opt/homebrew/Cellar/arm-none-eabi-gcc@8/8.5.0_2/lib/arm-none-eabi-gcc/8/gcc/arm-none-eabi/8.5.0/../../../../../../arm-none-eabi/lib/thumb/v6-m/nofp/libg_nano.a(lib_a-findfp.o)
                                                  /opt/homebrew/Cellar/arm-none-eabi-gcc@8/8.5.0_2/lib/arm-none-eabi-gcc/8/gcc/arm-none-eabi/8.5.0/../../../../../../arm-none-eabi/lib/thumb/v6-m/nofp/libg_nano.a(lib_a-fflush.o)
                                                  /opt/homebrew/Cellar/arm-none-eabi-gcc@8/8.5.0_2/lib/arm-none-eabi-gcc/8/gcc/arm-none-eabi/8.5.0/../../../../../../arm-none-eabi/lib/thumb/v6-m/nofp/libg_nano.a(lib_a-nano-vfprintf.o)
__retarget_lock_close                             /opt/homebrew/Cellar/arm-none-eabi-gcc@8/8.5.0_2/lib/arm-none-eabi-gcc/8/gcc/arm-none-eabi/8.5.0/../../../../../../arm-none-eabi/lib/thumb/v6-m/nofp/libg_nano.a(lib_a-lock.o)
__retarget_lock_close_recursive                   /opt/homebrew/Cellar/arm-none-eabi-gcc@8/8.5.0_2/lib/arm-none-eabi-gcc/8/gcc/arm-none-eabi/8.5.0/../../../../../../arm-none-eabi/lib/thumb/v6-m/nofp/libg_nano.a(lib_a-lock.o)
__retarget_lock_init                              /opt/homebrew/Cellar/arm-none-eabi-gcc@8/8.5.0_2/lib/arm-none-eabi-gcc/8/gcc/arm-none-eabi/8.5.0/../../../../../../arm-none-eabi/lib/thumb/v6-m/nofp/libg_nano.a(lib_a-lock.o)
__retarget_lock_init_recursive                    /opt/homebrew/Cellar/arm-none-eabi-gcc@8/8.5.0_2/lib/arm-none-eabi-gcc/8/gcc/arm-none-eabi/8.5.0/../../../../../../arm-none-eabi/lib/thumb/v6-m/nofp/libg_nano.a(lib_a-lock.o)
                                                  /opt/homebrew/Cellar/arm-none-eabi-gcc@8/8.5.0_2/lib/arm-none-eabi-gcc/8/gcc/arm-none-eabi/8.5.0/../../../../../../arm-none-eabi/lib/thumb/v6-m/nofp/libg_nano.a(lib_a-findfp.o)
__retarget_lock_release                           /opt/homebrew/Cellar/arm-none-eabi-gcc@8/8.5.0_2/lib/arm-none-eabi-gcc/8/gcc/arm-none-eabi/8.5.0/../../../../../../arm-none-eabi/lib/thumb/v6-m/nofp/libg_nano.a(lib_a-lock.o)
__retarget_lock_release_recursive                 /opt/homebrew/Cellar/arm-none-eabi-gcc@8/8.5.0_2/lib/arm-none-eabi-gcc/8/gcc/arm-none-eabi/8.5.0/../../../../../../arm-none-eabi/lib/thumb/v6-m/nofp/libg_nano.a(lib_a-lock.o)
                                                  /opt/homebrew/Cellar/arm-none-eabi-gcc@8/8.5.0_2/lib/arm-none-eabi-gcc/8/gcc/arm-none-eabi/8.5.0/../../../../../../arm-none-eabi/lib/thumb/v6-m/nofp/libg_nano.a(lib_a-mlock.o)
                                                  /opt/homebrew/Cellar/arm-none-eabi-gcc@8/8.5.0_2/lib/arm-none-eabi-gcc/8/gcc/arm-none-eabi/8.5.0/../../../../../../arm-none-eabi/lib/thumb/v6-m/nofp/libg_nano.a(lib_a-findfp.o)
                                                  /opt/homebrew/Cellar/arm-none-eabi-gcc@8/8.5.0_2/lib/arm-none-eabi-gcc/8/gcc/arm-none-eabi/8.5.0/../../../../../../arm-none-eabi/lib/thumb/v6-m/nofp/libg_nano.a(lib_a-fflush.o)
                                                  /opt/homebrew/Cellar/arm-none-eabi-gcc@8/8.5.0_2/lib/arm-none-eabi-gcc/8/gcc/arm-none-eabi/8.5.0/../../../../../../arm-none-eabi/lib/thumb/v6-m/nofp/libg_nano.a(lib_a-nano-vfprintf.o)
__retarget_lock_try_acquire                       /opt/homebrew/Cellar/arm-none-eabi-gcc@8/8.5.0_2/lib/arm-none-eabi-gcc/8/gcc/arm-none-eabi/8.5.0/../../../../../../arm-none-eabi/lib/thumb/v6-m/nofp/libg_nano.a(lib_a-lock.o)
__retarget_lock_try_acquire_recursive             /opt/homebrew/Cellar/arm-none-eabi-gcc@8/8.5.0_2/lib/arm-none-eabi-gcc/8/gcc/arm-none-eabi/8.5.0/../../../../../../arm-none-eabi/lib/thumb/v6-m/nofp/libg_nano.a(lib_a-lock.o)
__rp_dma_channels                                 .build/obj_crkbd_rev1_tensotha_helios/lib/chibios/os/hal/ports/RP/LLD/DMAv1/rp_dma.o (symbol from plugin)
__sclose                                          /opt/homebrew/Cellar/arm-none-eabi-gcc@8/8.5.0_2/lib/arm-none-eabi-gcc/8/gcc/arm-none-eabi/8.5.0/../../../../../../arm-none-eabi/lib/thumb/v6-m/nofp/libg_nano.a(lib_a-stdio.o)
                                                  /opt/homebrew/Cellar/arm-none-eabi-gcc@8/8.5.0_2/lib/arm-none-eabi-gcc/8/gcc/arm-none-eabi/8.5.0/../../../../../../arm-none-eabi/lib/thumb/v6-m/nofp/libg_nano.a(lib_a-findfp.o)
__seofread                                        /opt/homebrew/Cellar/arm-none-eabi-gcc@8/8.5.0_2/lib/arm-none-eabi-gcc/8/gcc/arm-none-eabi/8.5.0/../../../../../../arm-none-eabi/lib/thumb/v6-m/nofp/libg_nano.a(lib_a-stdio.o)
__sf_fake_stderr                                  /opt/homebrew/Cellar/arm-none-eabi-gcc@8/8.5.0_2/lib/arm-none-eabi-gcc/8/gcc/arm-none-eabi/8.5.0/../../../../../../arm-none-eabi/lib/thumb/v6-m/nofp/libg_nano.a(lib_a-findfp.o)
                                                  /opt/homebrew/Cellar/arm-none-eabi-gcc@8/8.5.0_2/lib/arm-none-eabi-gcc/8/gcc/arm-none-eabi/8.5.0/../../../../../../arm-none-eabi/lib/thumb/v6-m/nofp/libg_nano.a(lib_a-fflush.o)
                                                  /opt/homebrew/Cellar/arm-none-eabi-gcc@8/8.5.0_2/lib/arm-none-eabi-gcc/8/gcc/arm-none-eabi/8.5.0/../../../../../../arm-none-eabi/lib/thumb/v6-m/nofp/libg_nano.a(lib_a-wsetup.o)
                                                  /opt/homebrew/Cellar/arm-none-eabi-gcc@8/8.5.0_2/lib/arm-none-eabi-gcc/8/gcc/arm-none-eabi/8.5.0/../../../../../../arm-none-eabi/lib/thumb/v6-m/nofp/libg_nano.a(lib_a-wbuf.o)
                                                  /opt/homebrew/Cellar/arm-none-eabi-gcc@8/8.5.0_2/lib/arm-none-eabi-gcc/8/gcc/arm-none-eabi/8.5.0/../../../../../../arm-none-eabi/lib/thumb/v6-m/nofp/libg_nano.a(lib_a-nano-vfprintf.o)
                                                  /opt/homebrew/Cellar/arm-none-eabi-gcc@8/8.5.0_2/lib/arm-none-eabi-gcc/8/gcc/arm-none-eabi/8.5.0/../../../../../../arm-none-eabi/lib/thumb/v6-m/nofp/libg_nano.a(lib_a-impure.o)
__sf_fake_stdin                                   /opt/homebrew/Cellar/arm-none-eabi-gcc@8/8.5.0_2/lib/arm-none-eabi-gcc/8/gcc/arm-none-eabi/8.5.0/../../../../../../arm-none-eabi/lib/thumb/v6-m/nofp/libg_nano.a(lib_a-findfp.o)
                                                  /opt/homebrew/Cellar/arm-none-eabi-gcc@8/8.5.0_2/lib/arm-none-eabi-gcc/8/gcc/arm-none-eabi/8.5.0/../../../../../../arm-none-eabi/lib/thumb/v6-m/nofp/libg_nano.a(lib_a-fflush.o)
                                                  /opt/homebrew/Cellar/arm-none-eabi-gcc@8/8.5.0_2/lib/arm-none-eabi-gcc/8/gcc/arm-none-eabi/8.5.0/../../../../../../arm-none-eabi/lib/thumb/v6-m/nofp/libg_nano.a(lib_a-wsetup.o)
                                                  /opt/homebrew/Cellar/arm-none-eabi-gcc@8/8.5.0_2/lib/arm-none-eabi-gcc/8/gcc/arm-none-eabi/8.5.0/../../../../../../arm-none-eabi/lib/thumb/v6-m/nofp/libg_nano.a(lib_a-wbuf.o)
                                                  /opt/homebrew/Cellar/arm-none-eabi-gcc@8/8.5.0_2/lib/arm-none-eabi-gcc/8/gcc/arm-none-eabi/8.5.0/../../../../../../arm-none-eabi/lib/thumb/v6-m/nofp/libg_nano.a(lib_a-nano-vfprintf.o)
                                                  /opt/homebrew/Cellar/arm-none-eabi-gcc@8/8.5.0_2/lib/arm-none-eabi-gcc/8/gcc/arm-none-eabi/8.5.0/../../../../../../arm-none-eabi/lib/thumb/v6-m/nofp/libg_nano.a(lib_a-impure.o)
__sf_fake_stdout                                  /opt/homebrew/Cellar/arm-none-eabi-gcc@8/8.5.0_2/lib/arm-none-eabi-gcc/8/gcc/arm-none-eabi/8.5.0/../../../../../../arm-none-eabi/lib/thumb/v6-m/nofp/libg_nano.a(lib_a-findfp.o)
                                                  /opt/homebrew/Cellar/arm-none-eabi-gcc@8/8.5.0_2/lib/arm-none-eabi-gcc/8/gcc/arm-none-eabi/8.5.0/../../../../../../arm-none-eabi/lib/thumb/v6-m/nofp/libg_nano.a(lib_a-fflush.o)
                                                  /opt/homebrew/Cellar/arm-none-eabi-gcc@8/8.5.0_2/lib/arm-none-eabi-gcc/8/gcc/arm-none-eabi/8.5.0/../../../../../../arm-none-eabi/lib/thumb/v6-m/nofp/libg_nano.a(lib_a-wsetup.o)
                                                  /opt/homebrew/Cellar/arm-none-eabi-gcc@8/8.5.0_2/lib/arm-none-eabi-gcc/8/gcc/arm-none-eabi/8.5.0/../../../../../../arm-none-eabi/lib/thumb/v6-m/nofp/libg_nano.a(lib_a-wbuf.o)
                                                  /opt/homebrew/Cellar/arm-none-eabi-gcc@8/8.5.0_2/lib/arm-none-eabi-gcc/8/gcc/arm-none-eabi/8.5.0/../../../../../../arm-none-eabi/lib/thumb/v6-m/nofp/libg_nano.a(lib_a-nano-vfprintf.o)
                                                  /opt/homebrew/Cellar/arm-none-eabi-gcc@8/8.5.0_2/lib/arm-none-eabi-gcc/8/gcc/arm-none-eabi/8.5.0/../../../../../../arm-none-eabi/lib/thumb/v6-m/nofp/libg_nano.a(lib_a-impure.o)
__sflush_r                                        /opt/homebrew/Cellar/arm-none-eabi-gcc@8/8.5.0_2/lib/arm-none-eabi-gcc/8/gcc/arm-none-eabi/8.5.0/../../../../../../arm-none-eabi/lib/thumb/v6-m/nofp/libg_nano.a(lib_a-fflush.o)
__sfmoreglue                                      /opt/homebrew/Cellar/arm-none-eabi-gcc@8/8.5.0_2/lib/arm-none-eabi-gcc/8/gcc/arm-none-eabi/8.5.0/../../../../../../arm-none-eabi/lib/thumb/v6-m/nofp/libg_nano.a(lib_a-findfp.o)
__sfp                                             /opt/homebrew/Cellar/arm-none-eabi-gcc@8/8.5.0_2/lib/arm-none-eabi-gcc/8/gcc/arm-none-eabi/8.5.0/../../../../../../arm-none-eabi/lib/thumb/v6-m/nofp/libg_nano.a(lib_a-findfp.o)
__sfp_lock_acquire                                /opt/homebrew/Cellar/arm-none-eabi-gcc@8/8.5.0_2/lib/arm-none-eabi-gcc/8/gcc/arm-none-eabi/8.5.0/../../../../../../arm-none-eabi/lib/thumb/v6-m/nofp/libg_nano.a(lib_a-findfp.o)
__sfp_lock_release                                /opt/homebrew/Cellar/arm-none-eabi-gcc@8/8.5.0_2/lib/arm-none-eabi-gcc/8/gcc/arm-none-eabi/8.5.0/../../../../../../arm-none-eabi/lib/thumb/v6-m/nofp/libg_nano.a(lib_a-findfp.o)
__sfputs_r                                        /opt/homebrew/Cellar/arm-none-eabi-gcc@8/8.5.0_2/lib/arm-none-eabi-gcc/8/gcc/arm-none-eabi/8.5.0/../../../../../../arm-none-eabi/lib/thumb/v6-m/nofp/libg_nano.a(lib_a-nano-vfprintf.o)
__sfvwrite_r                                      /opt/homebrew/Cellar/arm-none-eabi-gcc@8/8.5.0_2/lib/arm-none-eabi-gcc/8/gcc/arm-none-eabi/8.5.0/../../../../../../arm-none-eabi/lib/thumb/v6-m/nofp/libg_nano.a(lib_a-fvwrite.o)
                                                  /opt/homebrew/Cellar/arm-none-eabi-gcc@8/8.5.0_2/lib/arm-none-eabi-gcc/8/gcc/arm-none-eabi/8.5.0/../../../../../../arm-none-eabi/lib/thumb/v6-m/nofp/libg_nano.a(lib_a-nano-vfprintf.o)
__sigtramp                                        /opt/homebrew/Cellar/arm-none-eabi-gcc@8/8.5.0_2/lib/arm-none-eabi-gcc/8/gcc/arm-none-eabi/8.5.0/../../../../../../arm-none-eabi/lib/thumb/v6-m/nofp/libg_nano.a(lib_a-signal.o)
__sigtramp_r                                      /opt/homebrew/Cellar/arm-none-eabi-gcc@8/8.5.0_2/lib/arm-none-eabi-gcc/8/gcc/arm-none-eabi/8.5.0/../../../../../../arm-none-eabi/lib/thumb/v6-m/nofp/libg_nano.a(lib_a-signal.o)
__sinit                                           /opt/homebrew/Cellar/arm-none-eabi-gcc@8/8.5.0_2/lib/arm-none-eabi-gcc/8/gcc/arm-none-eabi/8.5.0/../../../../../../arm-none-eabi/lib/thumb/v6-m/nofp/libg_nano.a(lib_a-findfp.o)
                                                  /opt/homebrew/Cellar/arm-none-eabi-gcc@8/8.5.0_2/lib/arm-none-eabi-gcc/8/gcc/arm-none-eabi/8.5.0/../../../../../../arm-none-eabi/lib/thumb/v6-m/nofp/libg_nano.a(lib_a-fflush.o)
                                                  /opt/homebrew/Cellar/arm-none-eabi-gcc@8/8.5.0_2/lib/arm-none-eabi-gcc/8/gcc/arm-none-eabi/8.5.0/../../../../../../arm-none-eabi/lib/thumb/v6-m/nofp/libg_nano.a(lib_a-wsetup.o)
                                                  /opt/homebrew/Cellar/arm-none-eabi-gcc@8/8.5.0_2/lib/arm-none-eabi-gcc/8/gcc/arm-none-eabi/8.5.0/../../../../../../arm-none-eabi/lib/thumb/v6-m/nofp/libg_nano.a(lib_a-wbuf.o)
                                                  /opt/homebrew/Cellar/arm-none-eabi-gcc@8/8.5.0_2/lib/arm-none-eabi-gcc/8/gcc/arm-none-eabi/8.5.0/../../../../../../arm-none-eabi/lib/thumb/v6-m/nofp/libg_nano.a(lib_a-nano-vfprintf.o)
__sinit_lock_acquire                              /opt/homebrew/Cellar/arm-none-eabi-gcc@8/8.5.0_2/lib/arm-none-eabi-gcc/8/gcc/arm-none-eabi/8.5.0/../../../../../../arm-none-eabi/lib/thumb/v6-m/nofp/libg_nano.a(lib_a-findfp.o)
__sinit_lock_release                              /opt/homebrew/Cellar/arm-none-eabi-gcc@8/8.5.0_2/lib/arm-none-eabi-gcc/8/gcc/arm-none-eabi/8.5.0/../../../../../../arm-none-eabi/lib/thumb/v6-m/nofp/libg_nano.a(lib_a-findfp.o)
__smakebuf_r                                      /opt/homebrew/Cellar/arm-none-eabi-gcc@8/8.5.0_2/lib/arm-none-eabi-gcc/8/gcc/arm-none-eabi/8.5.0/../../../../../../arm-none-eabi/lib/thumb/v6-m/nofp/libg_nano.a(lib_a-makebuf.o)
                                                  /opt/homebrew/Cellar/arm-none-eabi-gcc@8/8.5.0_2/lib/arm-none-eabi-gcc/8/gcc/arm-none-eabi/8.5.0/../../../../../../arm-none-eabi/lib/thumb/v6-m/nofp/libg_nano.a(lib_a-wsetup.o)
__sprint_r                                        /opt/homebrew/Cellar/arm-none-eabi-gcc@8/8.5.0_2/lib/arm-none-eabi-gcc/8/gcc/arm-none-eabi/8.5.0/../../../../../../arm-none-eabi/lib/thumb/v6-m/nofp/libg_nano.a(lib_a-nano-vfprintf.o)
__sread                                           /opt/homebrew/Cellar/arm-none-eabi-gcc@8/8.5.0_2/lib/arm-none-eabi-gcc/8/gcc/arm-none-eabi/8.5.0/../../../../../../arm-none-eabi/lib/thumb/v6-m/nofp/libg_nano.a(lib_a-stdio.o)
                                                  /opt/homebrew/Cellar/arm-none-eabi-gcc@8/8.5.0_2/lib/arm-none-eabi-gcc/8/gcc/arm-none-eabi/8.5.0/../../../../../../arm-none-eabi/lib/thumb/v6-m/nofp/libg_nano.a(lib_a-findfp.o)
__sseek                                           /opt/homebrew/Cellar/arm-none-eabi-gcc@8/8.5.0_2/lib/arm-none-eabi-gcc/8/gcc/arm-none-eabi/8.5.0/../../../../../../arm-none-eabi/lib/thumb/v6-m/nofp/libg_nano.a(lib_a-stdio.o)
                                                  /opt/homebrew/Cellar/arm-none-eabi-gcc@8/8.5.0_2/lib/arm-none-eabi-gcc/8/gcc/arm-none-eabi/8.5.0/../../../../../../arm-none-eabi/lib/thumb/v6-m/nofp/libg_nano.a(lib_a-findfp.o)
__swbuf                                           /opt/homebrew/Cellar/arm-none-eabi-gcc@8/8.5.0_2/lib/arm-none-eabi-gcc/8/gcc/arm-none-eabi/8.5.0/../../../../../../arm-none-eabi/lib/thumb/v6-m/nofp/libg_nano.a(lib_a-wbuf.o)
__swbuf_r                                         /opt/homebrew/Cellar/arm-none-eabi-gcc@8/8.5.0_2/lib/arm-none-eabi-gcc/8/gcc/arm-none-eabi/8.5.0/../../../../../../arm-none-eabi/lib/thumb/v6-m/nofp/libg_nano.a(lib_a-wbuf.o)
                                                  /opt/homebrew/Cellar/arm-none-eabi-gcc@8/8.5.0_2/lib/arm-none-eabi-gcc/8/gcc/arm-none-eabi/8.5.0/../../../../../../arm-none-eabi/lib/thumb/v6-m/nofp/libg_nano.a(lib_a-nano-vfprintf.o)
__swhatbuf_r                                      /opt/homebrew/Cellar/arm-none-eabi-gcc@8/8.5.0_2/lib/arm-none-eabi-gcc/8/gcc/arm-none-eabi/8.5.0/../../../../../../arm-none-eabi/lib/thumb/v6-m/nofp/libg_nano.a(lib_a-makebuf.o)
__swrite                                          /opt/homebrew/Cellar/arm-none-eabi-gcc@8/8.5.0_2/lib/arm-none-eabi-gcc/8/gcc/arm-none-eabi/8.5.0/../../../../../../arm-none-eabi/lib/thumb/v6-m/nofp/libg_nano.a(lib_a-stdio.o)
                                                  /opt/homebrew/Cellar/arm-none-eabi-gcc@8/8.5.0_2/lib/arm-none-eabi-gcc/8/gcc/arm-none-eabi/8.5.0/../../../../../../arm-none-eabi/lib/thumb/v6-m/nofp/libg_nano.a(lib_a-findfp.o)
__swsetup_r                                       /opt/homebrew/Cellar/arm-none-eabi-gcc@8/8.5.0_2/lib/arm-none-eabi-gcc/8/gcc/arm-none-eabi/8.5.0/../../../../../../arm-none-eabi/lib/thumb/v6-m/nofp/libg_nano.a(lib_a-wsetup.o)
                                                  /opt/homebrew/Cellar/arm-none-eabi-gcc@8/8.5.0_2/lib/arm-none-eabi-gcc/8/gcc/arm-none-eabi/8.5.0/../../../../../../arm-none-eabi/lib/thumb/v6-m/nofp/libg_nano.a(lib_a-fvwrite.o)
                                                  /opt/homebrew/Cellar/arm-none-eabi-gcc@8/8.5.0_2/lib/arm-none-eabi-gcc/8/gcc/arm-none-eabi/8.5.0/../../../../../../arm-none-eabi/lib/thumb/v6-m/nofp/libg_nano.a(lib_a-wbuf.o)
                                                  /opt/homebrew/Cellar/arm-none-eabi-gcc@8/8.5.0_2/lib/arm-none-eabi-gcc/8/gcc/arm-none-eabi/8.5.0/../../../../../../arm-none-eabi/lib/thumb/v6-m/nofp/libg_nano.a(lib_a-nano-vfprintf.o)
__textdata_base__                                 .build/obj_crkbd_rev1_tensotha_helios/./lib/chibios/os/common/startup/ARMCMx/compilers/GCC/crt0_v6m.o
__textvectors_base__                              .build/obj_crkbd_rev1_tensotha_helios/./lib/chibios/os/common/startup/ARMCMx/compilers/GCC/crt0_v6m.o
__thd_object_init                                 .build/obj_crkbd_rev1_tensotha_helios/lib/chibios/os/rt/src/chthreads.o (symbol from plugin)
                                                  .build/obj_crkbd_rev1_tensotha_helios/lib/chibios/os/rt/src/chinstances.o (symbol from plugin)
__vectors_base__                                  .build/obj_crkbd_rev1_tensotha_helios/./lib/chibios/os/common/startup/ARMCMx/compilers/GCC/crt0_v6m.o
__vectors_end__                                   .build/obj_crkbd_rev1_tensotha_helios/./lib/chibios/os/common/startup/ARMCMx/compilers/GCC/crt0_v6m.o
__wrap___aeabi_idiv                               .build/obj_crkbd_rev1_tensotha_helios/./lib/pico-sdk/src/rp2_common/pico_divider/divider.o
                                                  /var/folders/01/r6qc96lx1x7c0h1529l70j5m0000gn/T//ccqg8YyW.ltrans0.ltrans.o
                                                  /opt/homebrew/Cellar/arm-none-eabi-gcc@8/8.5.0_2/lib/arm-none-eabi-gcc/8/gcc/arm-none-eabi/8.5.0/../../../../../../arm-none-eabi/lib/thumb/v6-m/nofp/libg_nano.a(lib_a-fvwrite.o)
__wrap___aeabi_idivmod                            .build/obj_crkbd_rev1_tensotha_helios/./lib/pico-sdk/src/rp2_common/pico_divider/divider.o
                                                  /var/folders/01/r6qc96lx1x7c0h1529l70j5m0000gn/T//ccqg8YyW.ltrans0.ltrans.o
__wrap___aeabi_ldivmod                            .build/obj_crkbd_rev1_tensotha_helios/./lib/pico-sdk/src/rp2_common/pico_divider/divider.o
                                                  /var/folders/01/r6qc96lx1x7c0h1529l70j5m0000gn/T//ccqg8YyW.ltrans0.ltrans.o
                                                  .build/obj_crkbd_rev1_tensotha_helios/i2c_master.a(i2c_master.o)
__wrap___aeabi_lmul                               .build/obj_crkbd_rev1_tensotha_helios/./lib/pico-sdk/src/rp2_common/pico_int64_ops/pico_int64_ops_aeabi.o
                                                  /var/folders/01/r6qc96lx1x7c0h1529l70j5m0000gn/T//ccqg8YyW.ltrans0.ltrans.o
                                                  /opt/homebrew/Cellar/arm-none-eabi-gcc@8/8.5.0_2/lib/arm-none-eabi-gcc/8/gcc/arm-none-eabi/8.5.0/../../../../../../arm-none-eabi/lib/thumb/v6-m/nofp/libg_nano.a(lib_a-rand.o)
                                                  .build/obj_crkbd_rev1_tensotha_helios/i2c_master.a(i2c_master.o)
__wrap___aeabi_uidiv                              .build/obj_crkbd_rev1_tensotha_helios/./lib/pico-sdk/src/rp2_common/pico_divider/divider.o
                                                  /var/folders/01/r6qc96lx1x7c0h1529l70j5m0000gn/T//ccqg8YyW.ltrans0.ltrans.o
__wrap___aeabi_uidivmod                           .build/obj_crkbd_rev1_tensotha_helios/./lib/pico-sdk/src/rp2_common/pico_divider/divider.o
                                                  /var/folders/01/r6qc96lx1x7c0h1529l70j5m0000gn/T//ccqg8YyW.ltrans0.ltrans.o
                                                  /opt/homebrew/Cellar/arm-none-eabi-gcc@8/8.5.0_2/lib/arm-none-eabi-gcc/8/gcc/arm-none-eabi/8.5.0/../../../../../../arm-none-eabi/lib/thumb/v6-m/nofp/libg_nano.a(lib_a-nano-vfprintf_i.o)
__wrap___aeabi_uldivmod                           .build/obj_crkbd_rev1_tensotha_helios/./lib/pico-sdk/src/rp2_common/pico_divider/divider.o
                                                  /var/folders/01/r6qc96lx1x7c0h1529l70j5m0000gn/T//ccqg8YyW.ltrans0.ltrans.o
                                                  .build/obj_crkbd_rev1_tensotha_helios/i2c_master.a(i2c_master.o)
_cleanup                                          /opt/homebrew/Cellar/arm-none-eabi-gcc@8/8.5.0_2/lib/arm-none-eabi-gcc/8/gcc/arm-none-eabi/8.5.0/../../../../../../arm-none-eabi/lib/thumb/v6-m/nofp/libg_nano.a(lib_a-findfp.o)
_cleanup_r                                        /opt/homebrew/Cellar/arm-none-eabi-gcc@8/8.5.0_2/lib/arm-none-eabi-gcc/8/gcc/arm-none-eabi/8.5.0/../../../../../../arm-none-eabi/lib/thumb/v6-m/nofp/libg_nano.a(lib_a-findfp.o)
                                                  /opt/homebrew/Cellar/arm-none-eabi-gcc@8/8.5.0_2/lib/arm-none-eabi-gcc/8/gcc/arm-none-eabi/8.5.0/../../../../../../arm-none-eabi/lib/thumb/v6-m/nofp/libg_nano.a(lib_a-makebuf.o)
_close_r                                          /var/folders/01/r6qc96lx1x7c0h1529l70j5m0000gn/T//ccqg8YyW.ltrans0.ltrans.o
                                                  .build/obj_crkbd_rev1_tensotha_helios/lib/chibios/os/various/syscalls.o (symbol from plugin)
                                                  /opt/homebrew/Cellar/arm-none-eabi-gcc@8/8.5.0_2/lib/arm-none-eabi-gcc/8/gcc/arm-none-eabi/8.5.0/../../../../../../arm-none-eabi/lib/thumb/v6-m/nofp/libg_nano.a(lib_a-stdio.o)
_crt0_entry                                       .build/obj_crkbd_rev1_tensotha_helios/./lib/chibios/os/common/startup/ARMCMx/compilers/GCC/crt0_v6m.o
                                                  .build/obj_crkbd_rev1_tensotha_helios/./lib/chibios/os/common/startup/ARMCMx/compilers/GCC/vectors.o
_ctype_                                           /opt/homebrew/Cellar/arm-none-eabi-gcc@8/8.5.0_2/lib/arm-none-eabi-gcc/8/gcc/arm-none-eabi/8.5.0/../../../../../../arm-none-eabi/lib/thumb/v6-m/nofp/libg_nano.a(lib_a-ctype_.o)
                                                  .build/obj_crkbd_rev1_tensotha_helios/lib/chibios/os/hal/lib/streams/chscanf.o (symbol from plugin)
                                                  .build/obj_crkbd_rev1_tensotha_helios/quantum/send_string/send_string.o (symbol from plugin)
_exit                                             /var/folders/01/r6qc96lx1x7c0h1529l70j5m0000gn/T//ccqg8YyW.ltrans0.ltrans.o
                                                  /opt/homebrew/Cellar/arm-none-eabi-gcc@8/8.5.0_2/lib/arm-none-eabi-gcc/8/gcc/arm-none-eabi/8.5.0/../../../../../../arm-none-eabi/lib/thumb/v6-m/nofp/libg_nano.a(lib_a-abort.o)
_fflush_r                                         /opt/homebrew/Cellar/arm-none-eabi-gcc@8/8.5.0_2/lib/arm-none-eabi-gcc/8/gcc/arm-none-eabi/8.5.0/../../../../../../arm-none-eabi/lib/thumb/v6-m/nofp/libg_nano.a(lib_a-fflush.o)
                                                  /opt/homebrew/Cellar/arm-none-eabi-gcc@8/8.5.0_2/lib/arm-none-eabi-gcc/8/gcc/arm-none-eabi/8.5.0/../../../../../../arm-none-eabi/lib/thumb/v6-m/nofp/libg_nano.a(lib_a-fvwrite.o)
                                                  /opt/homebrew/Cellar/arm-none-eabi-gcc@8/8.5.0_2/lib/arm-none-eabi-gcc/8/gcc/arm-none-eabi/8.5.0/../../../../../../arm-none-eabi/lib/thumb/v6-m/nofp/libg_nano.a(lib_a-findfp.o)
                                                  /opt/homebrew/Cellar/arm-none-eabi-gcc@8/8.5.0_2/lib/arm-none-eabi-gcc/8/gcc/arm-none-eabi/8.5.0/../../../../../../arm-none-eabi/lib/thumb/v6-m/nofp/libg_nano.a(lib_a-wbuf.o)
_fini                                             /var/folders/01/r6qc96lx1x7c0h1529l70j5m0000gn/T//ccqg8YyW.ltrans0.ltrans.o
                                                  .build/obj_crkbd_rev1_tensotha_helios/platforms/chibios/syscall-fallbacks.o (symbol from plugin)
_fiprintf_r                                       /opt/homebrew/Cellar/arm-none-eabi-gcc@8/8.5.0_2/lib/arm-none-eabi-gcc/8/gcc/arm-none-eabi/8.5.0/../../../../../../arm-none-eabi/lib/thumb/v6-m/nofp/libg_nano.a(lib_a-fprintf.o)
_fprintf_r                                        /opt/homebrew/Cellar/arm-none-eabi-gcc@8/8.5.0_2/lib/arm-none-eabi-gcc/8/gcc/arm-none-eabi/8.5.0/../../../../../../arm-none-eabi/lib/thumb/v6-m/nofp/libg_nano.a(lib_a-fprintf.o)
_free_r                                           /opt/homebrew/Cellar/arm-none-eabi-gcc@8/8.5.0_2/lib/arm-none-eabi-gcc/8/gcc/arm-none-eabi/8.5.0/../../../../../../arm-none-eabi/lib/thumb/v6-m/nofp/libg_nano.a(lib_a-nano-freer.o)
                                                  /opt/homebrew/Cellar/arm-none-eabi-gcc@8/8.5.0_2/lib/arm-none-eabi-gcc/8/gcc/arm-none-eabi/8.5.0/../../../../../../arm-none-eabi/lib/thumb/v6-m/nofp/libg_nano.a(lib_a-reent.o)
                                                  /opt/homebrew/Cellar/arm-none-eabi-gcc@8/8.5.0_2/lib/arm-none-eabi-gcc/8/gcc/arm-none-eabi/8.5.0/../../../../../../arm-none-eabi/lib/thumb/v6-m/nofp/libg_nano.a(lib_a-nano-reallocr.o)
                                                  /opt/homebrew/Cellar/arm-none-eabi-gcc@8/8.5.0_2/lib/arm-none-eabi-gcc/8/gcc/arm-none-eabi/8.5.0/../../../../../../arm-none-eabi/lib/thumb/v6-m/nofp/libg_nano.a(lib_a-fvwrite.o)
                                                  /opt/homebrew/Cellar/arm-none-eabi-gcc@8/8.5.0_2/lib/arm-none-eabi-gcc/8/gcc/arm-none-eabi/8.5.0/../../../../../../arm-none-eabi/lib/thumb/v6-m/nofp/libg_nano.a(lib_a-fflush.o)
                                                  /opt/homebrew/Cellar/arm-none-eabi-gcc@8/8.5.0_2/lib/arm-none-eabi-gcc/8/gcc/arm-none-eabi/8.5.0/../../../../../../arm-none-eabi/lib/thumb/v6-m/nofp/libg_nano.a(lib_a-wsetup.o)
                                                  /opt/homebrew/Cellar/arm-none-eabi-gcc@8/8.5.0_2/lib/arm-none-eabi-gcc/8/gcc/arm-none-eabi/8.5.0/../../../../../../arm-none-eabi/lib/thumb/v6-m/nofp/libg_nano.a(lib_a-malloc.o)
_fstat_r                                          /var/folders/01/r6qc96lx1x7c0h1529l70j5m0000gn/T//ccqg8YyW.ltrans0.ltrans.o
                                                  .build/obj_crkbd_rev1_tensotha_helios/lib/chibios/os/various/syscalls.o (symbol from plugin)
                                                  /opt/homebrew/Cellar/arm-none-eabi-gcc@8/8.5.0_2/lib/arm-none-eabi-gcc/8/gcc/arm-none-eabi/8.5.0/../../../../../../arm-none-eabi/lib/thumb/v6-m/nofp/libg_nano.a(lib_a-makebuf.o)
_fwalk                                            /opt/homebrew/Cellar/arm-none-eabi-gcc@8/8.5.0_2/lib/arm-none-eabi-gcc/8/gcc/arm-none-eabi/8.5.0/../../../../../../arm-none-eabi/lib/thumb/v6-m/nofp/libg_nano.a(lib_a-fwalk.o)
                                                  /opt/homebrew/Cellar/arm-none-eabi-gcc@8/8.5.0_2/lib/arm-none-eabi-gcc/8/gcc/arm-none-eabi/8.5.0/../../../../../../arm-none-eabi/lib/thumb/v6-m/nofp/libg_nano.a(lib_a-findfp.o)
_fwalk_reent                                      /opt/homebrew/Cellar/arm-none-eabi-gcc@8/8.5.0_2/lib/arm-none-eabi-gcc/8/gcc/arm-none-eabi/8.5.0/../../../../../../arm-none-eabi/lib/thumb/v6-m/nofp/libg_nano.a(lib_a-fwalk.o)
                                                  /opt/homebrew/Cellar/arm-none-eabi-gcc@8/8.5.0_2/lib/arm-none-eabi-gcc/8/gcc/arm-none-eabi/8.5.0/../../../../../../arm-none-eabi/lib/thumb/v6-m/nofp/libg_nano.a(lib_a-findfp.o)
                                                  /opt/homebrew/Cellar/arm-none-eabi-gcc@8/8.5.0_2/lib/arm-none-eabi-gcc/8/gcc/arm-none-eabi/8.5.0/../../../../../../arm-none-eabi/lib/thumb/v6-m/nofp/libg_nano.a(lib_a-fflush.o)
_getpid                                           /var/folders/01/r6qc96lx1x7c0h1529l70j5m0000gn/T//ccqg8YyW.ltrans0.ltrans.o
                                                  .build/obj_crkbd_rev1_tensotha_helios/lib/chibios/os/various/syscalls.o (symbol from plugin)
                                                  /opt/homebrew/Cellar/arm-none-eabi-gcc@8/8.5.0_2/lib/arm-none-eabi-gcc/8/gcc/arm-none-eabi/8.5.0/../../../../../../arm-none-eabi/lib/thumb/v6-m/nofp/libg_nano.a(lib_a-signalr.o)
_getpid_r                                         /opt/homebrew/Cellar/arm-none-eabi-gcc@8/8.5.0_2/lib/arm-none-eabi-gcc/8/gcc/arm-none-eabi/8.5.0/../../../../../../arm-none-eabi/lib/thumb/v6-m/nofp/libg_nano.a(lib_a-signalr.o)
                                                  /opt/homebrew/Cellar/arm-none-eabi-gcc@8/8.5.0_2/lib/arm-none-eabi-gcc/8/gcc/arm-none-eabi/8.5.0/../../../../../../arm-none-eabi/lib/thumb/v6-m/nofp/libg_nano.a(lib_a-signal.o)
_gettimeofday_r                                   /var/folders/01/r6qc96lx1x7c0h1529l70j5m0000gn/T//ccqg8YyW.ltrans0.ltrans.o
                                                  .build/obj_crkbd_rev1_tensotha_helios/platforms/chibios/syscall-fallbacks.o (symbol from plugin)
_global_impure_ptr                                /opt/homebrew/Cellar/arm-none-eabi-gcc@8/8.5.0_2/lib/arm-none-eabi-gcc/8/gcc/arm-none-eabi/8.5.0/../../../../../../arm-none-eabi/lib/thumb/v6-m/nofp/libg_nano.a(lib_a-impure.o)
                                                  /opt/homebrew/Cellar/arm-none-eabi-gcc@8/8.5.0_2/lib/arm-none-eabi-gcc/8/gcc/arm-none-eabi/8.5.0/../../../../../../arm-none-eabi/lib/thumb/v6-m/nofp/libg_nano.a(lib_a-findfp.o)
                                                  /opt/homebrew/Cellar/arm-none-eabi-gcc@8/8.5.0_2/lib/arm-none-eabi-gcc/8/gcc/arm-none-eabi/8.5.0/../../../../../../arm-none-eabi/lib/thumb/v6-m/nofp/libg_nano.a(lib_a-fflush.o)
_impure_ptr                                       /opt/homebrew/Cellar/arm-none-eabi-gcc@8/8.5.0_2/lib/arm-none-eabi-gcc/8/gcc/arm-none-eabi/8.5.0/../../../../../../arm-none-eabi/lib/thumb/v6-m/nofp/libg_nano.a(lib_a-impure.o)
                                                  /opt/homebrew/Cellar/arm-none-eabi-gcc@8/8.5.0_2/lib/arm-none-eabi-gcc/8/gcc/arm-none-eabi/8.5.0/../../../../../../arm-none-eabi/lib/thumb/v6-m/nofp/libg_nano.a(lib_a-reent.o)
                                                  /opt/homebrew/Cellar/arm-none-eabi-gcc@8/8.5.0_2/lib/arm-none-eabi-gcc/8/gcc/arm-none-eabi/8.5.0/../../../../../../arm-none-eabi/lib/thumb/v6-m/nofp/libg_nano.a(lib_a-signal.o)
                                                  /opt/homebrew/Cellar/arm-none-eabi-gcc@8/8.5.0_2/lib/arm-none-eabi-gcc/8/gcc/arm-none-eabi/8.5.0/../../../../../../arm-none-eabi/lib/thumb/v6-m/nofp/libg_nano.a(lib_a-findfp.o)
                                                  /opt/homebrew/Cellar/arm-none-eabi-gcc@8/8.5.0_2/lib/arm-none-eabi-gcc/8/gcc/arm-none-eabi/8.5.0/../../../../../../arm-none-eabi/lib/thumb/v6-m/nofp/libg_nano.a(lib_a-fflush.o)
                                                  /opt/homebrew/Cellar/arm-none-eabi-gcc@8/8.5.0_2/lib/arm-none-eabi-gcc/8/gcc/arm-none-eabi/8.5.0/../../../../../../arm-none-eabi/lib/thumb/v6-m/nofp/libg_nano.a(lib_a-wsetup.o)
                                                  /opt/homebrew/Cellar/arm-none-eabi-gcc@8/8.5.0_2/lib/arm-none-eabi-gcc/8/gcc/arm-none-eabi/8.5.0/../../../../../../arm-none-eabi/lib/thumb/v6-m/nofp/libg_nano.a(lib_a-wbuf.o)
                                                  /opt/homebrew/Cellar/arm-none-eabi-gcc@8/8.5.0_2/lib/arm-none-eabi-gcc/8/gcc/arm-none-eabi/8.5.0/../../../../../../arm-none-eabi/lib/thumb/v6-m/nofp/libg_nano.a(lib_a-nano-vfprintf.o)
                                                  /opt/homebrew/Cellar/arm-none-eabi-gcc@8/8.5.0_2/lib/arm-none-eabi-gcc/8/gcc/arm-none-eabi/8.5.0/../../../../../../arm-none-eabi/lib/thumb/v6-m/nofp/libg_nano.a(lib_a-malloc.o)
                                                  /opt/homebrew/Cellar/arm-none-eabi-gcc@8/8.5.0_2/lib/arm-none-eabi-gcc/8/gcc/arm-none-eabi/8.5.0/../../../../../../arm-none-eabi/lib/thumb/v6-m/nofp/libg_nano.a(lib_a-fprintf.o)
                                                  /opt/homebrew/Cellar/arm-none-eabi-gcc@8/8.5.0_2/lib/arm-none-eabi-gcc/8/gcc/arm-none-eabi/8.5.0/../../../../../../arm-none-eabi/lib/thumb/v6-m/nofp/libg_nano.a(lib_a-assert.o)
                                                  /opt/homebrew/Cellar/arm-none-eabi-gcc@8/8.5.0_2/lib/arm-none-eabi-gcc/8/gcc/arm-none-eabi/8.5.0/../../../../../../arm-none-eabi/lib/thumb/v6-m/nofp/libg_nano.a(lib_a-rand.o)
                                                  /opt/homebrew/Cellar/arm-none-eabi-gcc@8/8.5.0_2/lib/arm-none-eabi-gcc/8/gcc/arm-none-eabi/8.5.0/../../../../../../arm-none-eabi/lib/thumb/v6-m/nofp/libg_nano.a(lib_a-errno.o)
_init_signal                                      /opt/homebrew/Cellar/arm-none-eabi-gcc@8/8.5.0_2/lib/arm-none-eabi-gcc/8/gcc/arm-none-eabi/8.5.0/../../../../../../arm-none-eabi/lib/thumb/v6-m/nofp/libg_nano.a(lib_a-signal.o)
_init_signal_r                                    /opt/homebrew/Cellar/arm-none-eabi-gcc@8/8.5.0_2/lib/arm-none-eabi-gcc/8/gcc/arm-none-eabi/8.5.0/../../../../../../arm-none-eabi/lib/thumb/v6-m/nofp/libg_nano.a(lib_a-signal.o)
_isatty_r                                         /var/folders/01/r6qc96lx1x7c0h1529l70j5m0000gn/T//ccqg8YyW.ltrans0.ltrans.o
                                                  .build/obj_crkbd_rev1_tensotha_helios/lib/chibios/os/various/syscalls.o (symbol from plugin)
                                                  /opt/homebrew/Cellar/arm-none-eabi-gcc@8/8.5.0_2/lib/arm-none-eabi-gcc/8/gcc/arm-none-eabi/8.5.0/../../../../../../arm-none-eabi/lib/thumb/v6-m/nofp/libg_nano.a(lib_a-makebuf.o)
_kill                                             /var/folders/01/r6qc96lx1x7c0h1529l70j5m0000gn/T//ccqg8YyW.ltrans0.ltrans.o
                                                  .build/obj_crkbd_rev1_tensotha_helios/lib/chibios/os/various/syscalls.o (symbol from plugin)
                                                  /opt/homebrew/Cellar/arm-none-eabi-gcc@8/8.5.0_2/lib/arm-none-eabi-gcc/8/gcc/arm-none-eabi/8.5.0/../../../../../../arm-none-eabi/lib/thumb/v6-m/nofp/libg_nano.a(lib_a-signalr.o)
_kill_r                                           /opt/homebrew/Cellar/arm-none-eabi-gcc@8/8.5.0_2/lib/arm-none-eabi-gcc/8/gcc/arm-none-eabi/8.5.0/../../../../../../arm-none-eabi/lib/thumb/v6-m/nofp/libg_nano.a(lib_a-signalr.o)
                                                  /opt/homebrew/Cellar/arm-none-eabi-gcc@8/8.5.0_2/lib/arm-none-eabi-gcc/8/gcc/arm-none-eabi/8.5.0/../../../../../../arm-none-eabi/lib/thumb/v6-m/nofp/libg_nano.a(lib_a-signal.o)
_link_r                                           /var/folders/01/r6qc96lx1x7c0h1529l70j5m0000gn/T//ccqg8YyW.ltrans0.ltrans.o
                                                  .build/obj_crkbd_rev1_tensotha_helios/platforms/chibios/syscall-fallbacks.o (symbol from plugin)
_lseek_r                                          /var/folders/01/r6qc96lx1x7c0h1529l70j5m0000gn/T//ccqg8YyW.ltrans0.ltrans.o
                                                  .build/obj_crkbd_rev1_tensotha_helios/lib/chibios/os/various/syscalls.o (symbol from plugin)
                                                  /opt/homebrew/Cellar/arm-none-eabi-gcc@8/8.5.0_2/lib/arm-none-eabi-gcc/8/gcc/arm-none-eabi/8.5.0/../../../../../../arm-none-eabi/lib/thumb/v6-m/nofp/libg_nano.a(lib_a-stdio.o)
_malloc_r                                         /opt/homebrew/Cellar/arm-none-eabi-gcc@8/8.5.0_2/lib/arm-none-eabi-gcc/8/gcc/arm-none-eabi/8.5.0/../../../../../../arm-none-eabi/lib/thumb/v6-m/nofp/libg_nano.a(lib_a-nano-mallocr.o)
                                                  /opt/homebrew/Cellar/arm-none-eabi-gcc@8/8.5.0_2/lib/arm-none-eabi-gcc/8/gcc/arm-none-eabi/8.5.0/../../../../../../arm-none-eabi/lib/thumb/v6-m/nofp/libg_nano.a(lib_a-signal.o)
                                                  /opt/homebrew/Cellar/arm-none-eabi-gcc@8/8.5.0_2/lib/arm-none-eabi-gcc/8/gcc/arm-none-eabi/8.5.0/../../../../../../arm-none-eabi/lib/thumb/v6-m/nofp/libg_nano.a(lib_a-nano-reallocr.o)
                                                  /opt/homebrew/Cellar/arm-none-eabi-gcc@8/8.5.0_2/lib/arm-none-eabi-gcc/8/gcc/arm-none-eabi/8.5.0/../../../../../../arm-none-eabi/lib/thumb/v6-m/nofp/libg_nano.a(lib_a-makebuf.o)
                                                  /opt/homebrew/Cellar/arm-none-eabi-gcc@8/8.5.0_2/lib/arm-none-eabi-gcc/8/gcc/arm-none-eabi/8.5.0/../../../../../../arm-none-eabi/lib/thumb/v6-m/nofp/libg_nano.a(lib_a-fvwrite.o)
                                                  /opt/homebrew/Cellar/arm-none-eabi-gcc@8/8.5.0_2/lib/arm-none-eabi-gcc/8/gcc/arm-none-eabi/8.5.0/../../../../../../arm-none-eabi/lib/thumb/v6-m/nofp/libg_nano.a(lib_a-findfp.o)
                                                  /opt/homebrew/Cellar/arm-none-eabi-gcc@8/8.5.0_2/lib/arm-none-eabi-gcc/8/gcc/arm-none-eabi/8.5.0/../../../../../../arm-none-eabi/lib/thumb/v6-m/nofp/libg_nano.a(lib_a-malloc.o)
_malloc_usable_size_r                             /opt/homebrew/Cellar/arm-none-eabi-gcc@8/8.5.0_2/lib/arm-none-eabi-gcc/8/gcc/arm-none-eabi/8.5.0/../../../../../../arm-none-eabi/lib/thumb/v6-m/nofp/libg_nano.a(lib_a-nano-msizer.o)
                                                  /opt/homebrew/Cellar/arm-none-eabi-gcc@8/8.5.0_2/lib/arm-none-eabi-gcc/8/gcc/arm-none-eabi/8.5.0/../../../../../../arm-none-eabi/lib/thumb/v6-m/nofp/libg_nano.a(lib_a-nano-reallocr.o)
_open_r                                           /var/folders/01/r6qc96lx1x7c0h1529l70j5m0000gn/T//ccqg8YyW.ltrans0.ltrans.o
                                                  .build/obj_crkbd_rev1_tensotha_helios/lib/chibios/os/various/syscalls.o (symbol from plugin)
_printf_common                                    /opt/homebrew/Cellar/arm-none-eabi-gcc@8/8.5.0_2/lib/arm-none-eabi-gcc/8/gcc/arm-none-eabi/8.5.0/../../../../../../arm-none-eabi/lib/thumb/v6-m/nofp/libg_nano.a(lib_a-nano-vfprintf_i.o)
_printf_float                                     /opt/homebrew/Cellar/arm-none-eabi-gcc@8/8.5.0_2/lib/arm-none-eabi-gcc/8/gcc/arm-none-eabi/8.5.0/../../../../../../arm-none-eabi/lib/thumb/v6-m/nofp/libg_nano.a(lib_a-nano-vfprintf.o)
_printf_i                                         /opt/homebrew/Cellar/arm-none-eabi-gcc@8/8.5.0_2/lib/arm-none-eabi-gcc/8/gcc/arm-none-eabi/8.5.0/../../../../../../arm-none-eabi/lib/thumb/v6-m/nofp/libg_nano.a(lib_a-nano-vfprintf_i.o)
                                                  /opt/homebrew/Cellar/arm-none-eabi-gcc@8/8.5.0_2/lib/arm-none-eabi-gcc/8/gcc/arm-none-eabi/8.5.0/../../../../../../arm-none-eabi/lib/thumb/v6-m/nofp/libg_nano.a(lib_a-nano-vfprintf.o)
_raise_r                                          /opt/homebrew/Cellar/arm-none-eabi-gcc@8/8.5.0_2/lib/arm-none-eabi-gcc/8/gcc/arm-none-eabi/8.5.0/../../../../../../arm-none-eabi/lib/thumb/v6-m/nofp/libg_nano.a(lib_a-signal.o)
_read_r                                           /var/folders/01/r6qc96lx1x7c0h1529l70j5m0000gn/T//ccqg8YyW.ltrans0.ltrans.o
                                                  .build/obj_crkbd_rev1_tensotha_helios/lib/chibios/os/various/syscalls.o (symbol from plugin)
                                                  /opt/homebrew/Cellar/arm-none-eabi-gcc@8/8.5.0_2/lib/arm-none-eabi-gcc/8/gcc/arm-none-eabi/8.5.0/../../../../../../arm-none-eabi/lib/thumb/v6-m/nofp/libg_nano.a(lib_a-stdio.o)
_realloc_r                                        /opt/homebrew/Cellar/arm-none-eabi-gcc@8/8.5.0_2/lib/arm-none-eabi-gcc/8/gcc/arm-none-eabi/8.5.0/../../../../../../arm-none-eabi/lib/thumb/v6-m/nofp/libg_nano.a(lib_a-nano-reallocr.o)
                                                  /opt/homebrew/Cellar/arm-none-eabi-gcc@8/8.5.0_2/lib/arm-none-eabi-gcc/8/gcc/arm-none-eabi/8.5.0/../../../../../../arm-none-eabi/lib/thumb/v6-m/nofp/libg_nano.a(lib_a-fvwrite.o)
_reclaim_reent                                    /opt/homebrew/Cellar/arm-none-eabi-gcc@8/8.5.0_2/lib/arm-none-eabi-gcc/8/gcc/arm-none-eabi/8.5.0/../../../../../../arm-none-eabi/lib/thumb/v6-m/nofp/libg_nano.a(lib_a-reent.o)
_sbrk_r                                           /var/folders/01/r6qc96lx1x7c0h1529l70j5m0000gn/T//ccqg8YyW.ltrans0.ltrans.o
                                                  .build/obj_crkbd_rev1_tensotha_helios/lib/chibios/os/various/syscalls.o (symbol from plugin)
                                                  /opt/homebrew/Cellar/arm-none-eabi-gcc@8/8.5.0_2/lib/arm-none-eabi-gcc/8/gcc/arm-none-eabi/8.5.0/../../../../../../arm-none-eabi/lib/thumb/v6-m/nofp/libg_nano.a(lib_a-nano-mallocr.o)
_signal_r                                         /opt/homebrew/Cellar/arm-none-eabi-gcc@8/8.5.0_2/lib/arm-none-eabi-gcc/8/gcc/arm-none-eabi/8.5.0/../../../../../../arm-none-eabi/lib/thumb/v6-m/nofp/libg_nano.a(lib_a-signal.o)
_times_r                                          /var/folders/01/r6qc96lx1x7c0h1529l70j5m0000gn/T//ccqg8YyW.ltrans0.ltrans.o
                                                  .build/obj_crkbd_rev1_tensotha_helios/platforms/chibios/syscall-fallbacks.o (symbol from plugin)
_unhandled_exception                              .build/obj_crkbd_rev1_tensotha_helios/./lib/chibios/os/common/startup/ARMCMx/compilers/GCC/vectors.o
_unlink_r                                         /var/folders/01/r6qc96lx1x7c0h1529l70j5m0000gn/T//ccqg8YyW.ltrans0.ltrans.o
                                                  .build/obj_crkbd_rev1_tensotha_helios/platforms/chibios/syscall-fallbacks.o (symbol from plugin)
_usb_ep0in                                        .build/obj_crkbd_rev1_tensotha_helios/lib/chibios/os/hal/src/hal_usb.o (symbol from plugin)
                                                  .build/obj_crkbd_rev1_tensotha_helios/lib/chibios-contrib/os/hal/ports/RP/LLD/USBDv1/hal_usb_lld.o (symbol from plugin)
_usb_ep0out                                       .build/obj_crkbd_rev1_tensotha_helios/lib/chibios/os/hal/src/hal_usb.o (symbol from plugin)
                                                  .build/obj_crkbd_rev1_tensotha_helios/lib/chibios-contrib/os/hal/ports/RP/LLD/USBDv1/hal_usb_lld.o (symbol from plugin)
_usb_ep0setup                                     .build/obj_crkbd_rev1_tensotha_helios/lib/chibios/os/hal/src/hal_usb.o (symbol from plugin)
                                                  .build/obj_crkbd_rev1_tensotha_helios/lib/chibios-contrib/os/hal/ports/RP/LLD/USBDv1/hal_usb_lld.o (symbol from plugin)
_usb_reset                                        .build/obj_crkbd_rev1_tensotha_helios/lib/chibios/os/hal/src/hal_usb.o (symbol from plugin)
                                                  .build/obj_crkbd_rev1_tensotha_helios/lib/chibios-contrib/os/hal/ports/RP/LLD/USBDv1/hal_usb_lld.o (symbol from plugin)
_usb_suspend                                      .build/obj_crkbd_rev1_tensotha_helios/lib/chibios/os/hal/src/hal_usb.o (symbol from plugin)
                                                  .build/obj_crkbd_rev1_tensotha_helios/lib/chibios-contrib/os/hal/ports/RP/LLD/USBDv1/hal_usb_lld.o (symbol from plugin)
_usb_wakeup                                       .build/obj_crkbd_rev1_tensotha_helios/lib/chibios/os/hal/src/hal_usb.o (symbol from plugin)
                                                  .build/obj_crkbd_rev1_tensotha_helios/lib/chibios-contrib/os/hal/ports/RP/LLD/USBDv1/hal_usb_lld.o (symbol from plugin)
_vectors                                          .build/obj_crkbd_rev1_tensotha_helios/./lib/chibios/os/common/startup/ARMCMx/compilers/GCC/vectors.o
                                                  .build/obj_crkbd_rev1_tensotha_helios/./lib/chibios/os/common/startup/ARMCMx/compilers/GCC/crt0_v6m.o
_vfiprintf_r                                      /opt/homebrew/Cellar/arm-none-eabi-gcc@8/8.5.0_2/lib/arm-none-eabi-gcc/8/gcc/arm-none-eabi/8.5.0/../../../../../../arm-none-eabi/lib/thumb/v6-m/nofp/libg_nano.a(lib_a-nano-vfprintf.o)
_vfprintf_r                                       /opt/homebrew/Cellar/arm-none-eabi-gcc@8/8.5.0_2/lib/arm-none-eabi-gcc/8/gcc/arm-none-eabi/8.5.0/../../../../../../arm-none-eabi/lib/thumb/v6-m/nofp/libg_nano.a(lib_a-nano-vfprintf.o)
                                                  /opt/homebrew/Cellar/arm-none-eabi-gcc@8/8.5.0_2/lib/arm-none-eabi-gcc/8/gcc/arm-none-eabi/8.5.0/../../../../../../arm-none-eabi/lib/thumb/v6-m/nofp/libg_nano.a(lib_a-fprintf.o)
_watchdog_enable                                  .build/obj_crkbd_rev1_tensotha_helios/./lib/pico-sdk/src/rp2_common/hardware_watchdog/watchdog.o (symbol from plugin)
_write_r                                          /var/folders/01/r6qc96lx1x7c0h1529l70j5m0000gn/T//ccqg8YyW.ltrans0.ltrans.o
                                                  .build/obj_crkbd_rev1_tensotha_helios/lib/chibios/os/various/syscalls.o (symbol from plugin)
                                                  /opt/homebrew/Cellar/arm-none-eabi-gcc@8/8.5.0_2/lib/arm-none-eabi-gcc/8/gcc/arm-none-eabi/8.5.0/../../../../../../arm-none-eabi/lib/thumb/v6-m/nofp/libg_nano.a(lib_a-stdio.o)
abort                                             /opt/homebrew/Cellar/arm-none-eabi-gcc@8/8.5.0_2/lib/arm-none-eabi-gcc/8/gcc/arm-none-eabi/8.5.0/../../../../../../arm-none-eabi/lib/thumb/v6-m/nofp/libg_nano.a(lib_a-abort.o)
                                                  /opt/homebrew/Cellar/arm-none-eabi-gcc@8/8.5.0_2/lib/arm-none-eabi-gcc/8/gcc/arm-none-eabi/8.5.0/../../../../../../arm-none-eabi/lib/thumb/v6-m/nofp/libg_nano.a(lib_a-assert.o)
action.c.fbd732b4                                 /var/folders/01/r6qc96lx1x7c0h1529l70j5m0000gn/T//ccZ3h3t9debugobj
                                                  /var/folders/01/r6qc96lx1x7c0h1529l70j5m0000gn/T//ccqg8YyW.ltrans0.ltrans.o
action_exec                                       .build/obj_crkbd_rev1_tensotha_helios/quantum/action.o (symbol from plugin)
                                                  .build/obj_crkbd_rev1_tensotha_helios/quantum/keyboard.o (symbol from plugin)
action_for_key                                    .build/obj_crkbd_rev1_tensotha_helios/quantum/keymap_common.o (symbol from plugin)
                                                  .build/obj_crkbd_rev1_tensotha_helios/quantum/action_layer.o (symbol from plugin)
action_for_keycode                                .build/obj_crkbd_rev1_tensotha_helios/quantum/keymap_common.o (symbol from plugin)
action_layer.c.8043c892                           /var/folders/01/r6qc96lx1x7c0h1529l70j5m0000gn/T//ccZ3h3t9debugobj
                                                  /var/folders/01/r6qc96lx1x7c0h1529l70j5m0000gn/T//ccqg8YyW.ltrans0.ltrans.o
action_tapping.c.20f3e219                         /var/folders/01/r6qc96lx1x7c0h1529l70j5m0000gn/T//ccZ3h3t9debugobj
                                                  /var/folders/01/r6qc96lx1x7c0h1529l70j5m0000gn/T//ccqg8YyW.ltrans0.ltrans.o
action_tapping_process                            .build/obj_crkbd_rev1_tensotha_helios/quantum/action_tapping.o (symbol from plugin)
                                                  .build/obj_crkbd_rev1_tensotha_helios/quantum/action.o (symbol from plugin)
action_util.c.29213a58                            /var/folders/01/r6qc96lx1x7c0h1529l70j5m0000gn/T//ccZ3h3t9debugobj
                                                  /var/folders/01/r6qc96lx1x7c0h1529l70j5m0000gn/T//ccqg8YyW.ltrans0.ltrans.o
adcAcquireBus                                     .build/obj_crkbd_rev1_tensotha_helios/lib/chibios/os/hal/src/hal_adc.o (symbol from plugin)
adcConvert                                        .build/obj_crkbd_rev1_tensotha_helios/lib/chibios/os/hal/src/hal_adc.o (symbol from plugin)
adcInit                                           .build/obj_crkbd_rev1_tensotha_helios/lib/chibios/os/hal/src/hal_adc.o (symbol from plugin)
                                                  .build/obj_crkbd_rev1_tensotha_helios/lib/chibios/os/hal/src/hal.o (symbol from plugin)
adcObjectInit                                     .build/obj_crkbd_rev1_tensotha_helios/lib/chibios/os/hal/src/hal_adc.o (symbol from plugin)
                                                  .build/obj_crkbd_rev1_tensotha_helios/lib/chibios-contrib/os/hal/ports/RP/LLD/ADCv1/hal_adc_lld.o (symbol from plugin)
adcRPDisableTS                                    .build/obj_crkbd_rev1_tensotha_helios/lib/chibios-contrib/os/hal/ports/RP/LLD/ADCv1/hal_adc_lld.o (symbol from plugin)
adcRPEnableTS                                     .build/obj_crkbd_rev1_tensotha_helios/lib/chibios-contrib/os/hal/ports/RP/LLD/ADCv1/hal_adc_lld.o (symbol from plugin)
adcReleaseBus                                     .build/obj_crkbd_rev1_tensotha_helios/lib/chibios/os/hal/src/hal_adc.o (symbol from plugin)
adcStart                                          .build/obj_crkbd_rev1_tensotha_helios/lib/chibios/os/hal/src/hal_adc.o (symbol from plugin)
adcStartConversion                                .build/obj_crkbd_rev1_tensotha_helios/lib/chibios/os/hal/src/hal_adc.o (symbol from plugin)
adcStartConversionI                               .build/obj_crkbd_rev1_tensotha_helios/lib/chibios/os/hal/src/hal_adc.o (symbol from plugin)
adcStop                                           .build/obj_crkbd_rev1_tensotha_helios/lib/chibios/os/hal/src/hal_adc.o (symbol from plugin)
adcStopConversion                                 .build/obj_crkbd_rev1_tensotha_helios/lib/chibios/os/hal/src/hal_adc.o (symbol from plugin)
adcStopConversionI                                .build/obj_crkbd_rev1_tensotha_helios/lib/chibios/os/hal/src/hal_adc.o (symbol from plugin)
adc_lld_init                                      .build/obj_crkbd_rev1_tensotha_helios/lib/chibios-contrib/os/hal/ports/RP/LLD/ADCv1/hal_adc_lld.o (symbol from plugin)
                                                  .build/obj_crkbd_rev1_tensotha_helios/lib/chibios/os/hal/src/hal_adc.o (symbol from plugin)
adc_lld_start                                     .build/obj_crkbd_rev1_tensotha_helios/lib/chibios-contrib/os/hal/ports/RP/LLD/ADCv1/hal_adc_lld.o (symbol from plugin)
                                                  .build/obj_crkbd_rev1_tensotha_helios/lib/chibios/os/hal/src/hal_adc.o (symbol from plugin)
adc_lld_start_conversion                          .build/obj_crkbd_rev1_tensotha_helios/lib/chibios-contrib/os/hal/ports/RP/LLD/ADCv1/hal_adc_lld.o (symbol from plugin)
                                                  .build/obj_crkbd_rev1_tensotha_helios/lib/chibios/os/hal/src/hal_adc.o (symbol from plugin)
adc_lld_stop                                      .build/obj_crkbd_rev1_tensotha_helios/lib/chibios-contrib/os/hal/ports/RP/LLD/ADCv1/hal_adc_lld.o (symbol from plugin)
                                                  .build/obj_crkbd_rev1_tensotha_helios/lib/chibios/os/hal/src/hal_adc.o (symbol from plugin)
adc_lld_stop_conversion                           .build/obj_crkbd_rev1_tensotha_helios/lib/chibios-contrib/os/hal/ports/RP/LLD/ADCv1/hal_adc_lld.o (symbol from plugin)
                                                  .build/obj_crkbd_rev1_tensotha_helios/lib/chibios/os/hal/src/hal_adc.o (symbol from plugin)
add_key                                           .build/obj_crkbd_rev1_tensotha_helios/quantum/action_util.o (symbol from plugin)
add_key_bit                                       .build/obj_crkbd_rev1_tensotha_helios/protocol/report.o (symbol from plugin)
add_key_byte                                      .build/obj_crkbd_rev1_tensotha_helios/protocol/report.o (symbol from plugin)
add_key_to_report                                 .build/obj_crkbd_rev1_tensotha_helios/protocol/report.o (symbol from plugin)
                                                  .build/obj_crkbd_rev1_tensotha_helios/quantum/process_keycode/process_grave_esc.o (symbol from plugin)
                                                  .build/obj_crkbd_rev1_tensotha_helios/quantum/action_util.o (symbol from plugin)
                                                  .build/obj_crkbd_rev1_tensotha_helios/quantum/action.o (symbol from plugin)
add_mods                                          .build/obj_crkbd_rev1_tensotha_helios/quantum/action_util.o (symbol from plugin)
                                                  .build/obj_crkbd_rev1_tensotha_helios/quantum/action.o (symbol from plugin)
add_oneshot_locked_mods                           .build/obj_crkbd_rev1_tensotha_helios/quantum/action_util.o (symbol from plugin)
add_oneshot_mods                                  .build/obj_crkbd_rev1_tensotha_helios/quantum/action_util.o (symbol from plugin)
                                                  .build/obj_crkbd_rev1_tensotha_helios/quantum/action.o (symbol from plugin)
add_weak_mods                                     .build/obj_crkbd_rev1_tensotha_helios/quantum/action_util.o (symbol from plugin)
                                                  .build/obj_crkbd_rev1_tensotha_helios/quantum/action.o (symbol from plugin)
animation_status                                  .build/obj_crkbd_rev1_tensotha_helios/quantum/rgblight/rgblight.o (symbol from plugin)
ascii_to_altgr_lut                                .build/obj_crkbd_rev1_tensotha_helios/quantum/send_string/send_string.o (symbol from plugin)
ascii_to_dead_lut                                 .build/obj_crkbd_rev1_tensotha_helios/quantum/send_string/send_string.o (symbol from plugin)
ascii_to_keycode_lut                              .build/obj_crkbd_rev1_tensotha_helios/quantum/send_string/send_string.o (symbol from plugin)
ascii_to_shift_lut                                .build/obj_crkbd_rev1_tensotha_helios/quantum/send_string/send_string.o (symbol from plugin)
backing_store_erase                               .build/obj_crkbd_rev1_tensotha_helios/wear_leveling_rp2040_flash.o (symbol from plugin)
                                                  .build/obj_crkbd_rev1_tensotha_helios/wear_leveling.o (symbol from plugin)
backing_store_init                                .build/obj_crkbd_rev1_tensotha_helios/wear_leveling_rp2040_flash.o (symbol from plugin)
                                                  .build/obj_crkbd_rev1_tensotha_helios/wear_leveling.o (symbol from plugin)
backing_store_lock                                .build/obj_crkbd_rev1_tensotha_helios/wear_leveling_rp2040_flash.o (symbol from plugin)
                                                  .build/obj_crkbd_rev1_tensotha_helios/wear_leveling.o (symbol from plugin)
backing_store_read                                .build/obj_crkbd_rev1_tensotha_helios/wear_leveling_rp2040_flash.o (symbol from plugin)
                                                  .build/obj_crkbd_rev1_tensotha_helios/wear_leveling.o (symbol from plugin)
backing_store_read_bulk                           .build/obj_crkbd_rev1_tensotha_helios/wear_leveling_rp2040_flash.o (symbol from plugin)
                                                  .build/obj_crkbd_rev1_tensotha_helios/wear_leveling.o (symbol from plugin)
backing_store_unlock                              .build/obj_crkbd_rev1_tensotha_helios/wear_leveling_rp2040_flash.o (symbol from plugin)
                                                  .build/obj_crkbd_rev1_tensotha_helios/wear_leveling.o (symbol from plugin)
backing_store_write                               .build/obj_crkbd_rev1_tensotha_helios/wear_leveling_rp2040_flash.o (symbol from plugin)
                                                  .build/obj_crkbd_rev1_tensotha_helios/wear_leveling.o (symbol from plugin)
backing_store_write_bulk                          .build/obj_crkbd_rev1_tensotha_helios/wear_leveling_rp2040_flash.o (symbol from plugin)
                                                  .build/obj_crkbd_rev1_tensotha_helios/wear_leveling.o (symbol from plugin)
biton                                             .build/obj_crkbd_rev1_tensotha_helios/quantum/bitwise.o (symbol from plugin)
                                                  .build/obj_crkbd_rev1_tensotha_helios/protocol/report.o (symbol from plugin)
                                                  .build/obj_crkbd_rev1_tensotha_helios/keyboards/crkbd/crkbd.o (symbol from plugin)
biton16                                           .build/obj_crkbd_rev1_tensotha_helios/quantum/bitwise.o (symbol from plugin)
                                                  .build/obj_crkbd_rev1_tensotha_helios/keyboards/crkbd/crkbd.o (symbol from plugin)
biton32                                           .build/obj_crkbd_rev1_tensotha_helios/quantum/bitwise.o (symbol from plugin)
bitpop                                            .build/obj_crkbd_rev1_tensotha_helios/quantum/bitwise.o (symbol from plugin)
                                                  .build/obj_crkbd_rev1_tensotha_helios/quantum/action_util.o (symbol from plugin)
bitpop16                                          .build/obj_crkbd_rev1_tensotha_helios/quantum/bitwise.o (symbol from plugin)
bitpop32                                          .build/obj_crkbd_rev1_tensotha_helios/quantum/bitwise.o (symbol from plugin)
bitrev                                            .build/obj_crkbd_rev1_tensotha_helios/quantum/bitwise.o (symbol from plugin)
bitrev16                                          .build/obj_crkbd_rev1_tensotha_helios/quantum/bitwise.o (symbol from plugin)
bitrev32                                          .build/obj_crkbd_rev1_tensotha_helios/quantum/bitwise.o (symbol from plugin)
bitwise.c.2fed31e8                                /var/folders/01/r6qc96lx1x7c0h1529l70j5m0000gn/T//ccZ3h3t9debugobj
                                                  /var/folders/01/r6qc96lx1x7c0h1529l70j5m0000gn/T//ccqg8YyW.ltrans0.ltrans.o
board.c.b5474e0d                                  /var/folders/01/r6qc96lx1x7c0h1529l70j5m0000gn/T//ccZ3h3t9debugobj
                                                  /var/folders/01/r6qc96lx1x7c0h1529l70j5m0000gn/T//ccqg8YyW.ltrans0.ltrans.o
boardInit                                         .build/obj_crkbd_rev1_tensotha_helios/protocol/chibios/chibios.o (symbol from plugin)
                                                  .build/obj_crkbd_rev1_tensotha_helios/lib/chibios/os/hal/src/hal.o (symbol from plugin)
board_init                                        .build/obj_crkbd_rev1_tensotha_helios/protocol/chibios/chibios.o (symbol from plugin)
bootloader_jump                                   .build/obj_crkbd_rev1_tensotha_helios/platforms/chibios/bootloaders/rp2040.o (symbol from plugin)
                                                  .build/obj_crkbd_rev1_tensotha_helios/quantum/bootmagic/bootmagic.o (symbol from plugin)
                                                  .build/obj_crkbd_rev1_tensotha_helios/quantum/quantum.o (symbol from plugin)
bootmagic                                         .build/obj_crkbd_rev1_tensotha_helios/quantum/bootmagic/bootmagic.o (symbol from plugin)
                                                  .build/obj_crkbd_rev1_tensotha_helios/quantum/keyboard.o (symbol from plugin)
bootmagic.c.f519ff9d                              /var/folders/01/r6qc96lx1x7c0h1529l70j5m0000gn/T//ccZ3h3t9debugobj
                                                  /var/folders/01/r6qc96lx1x7c0h1529l70j5m0000gn/T//ccqg8YyW.ltrans0.ltrans.o
bootmagic_reset_eeprom                            .build/obj_crkbd_rev1_tensotha_helios/quantum/bootmagic/bootmagic.o (symbol from plugin)
bootmagic_scan                                    .build/obj_crkbd_rev1_tensotha_helios/quantum/bootmagic/bootmagic.o (symbol from plugin)
bootmagic_should_reset                            .build/obj_crkbd_rev1_tensotha_helios/quantum/bootmagic/bootmagic.o (symbol from plugin)
bootrom.c.a7ed0b36                                /var/folders/01/r6qc96lx1x7c0h1529l70j5m0000gn/T//ccZ3h3t9debugobj
                                                  /var/folders/01/r6qc96lx1x7c0h1529l70j5m0000gn/T//ccqg8YyW.ltrans0.ltrans.o
bsaObjectInit                                     .build/obj_crkbd_rev1_tensotha_helios/lib/chibios/os/hal/lib/streams/bufstreams.o (symbol from plugin)
bufstreams.c.5fd3eada                             /var/folders/01/r6qc96lx1x7c0h1529l70j5m0000gn/T//ccZ3h3t9debugobj
busy_wait_ms                                      .build/obj_crkbd_rev1_tensotha_helios/./lib/pico-sdk/src/rp2_common/hardware_timer/timer.o (symbol from plugin)
busy_wait_until                                   .build/obj_crkbd_rev1_tensotha_helios/./lib/pico-sdk/src/rp2_common/hardware_timer/timer.o (symbol from plugin)
                                                  .build/obj_crkbd_rev1_tensotha_helios/ws2812_vendor.o (symbol from plugin)
busy_wait_us                                      .build/obj_crkbd_rev1_tensotha_helios/./lib/pico-sdk/src/rp2_common/hardware_timer/timer.o (symbol from plugin)
busy_wait_us_32                                   .build/obj_crkbd_rev1_tensotha_helios/./lib/pico-sdk/src/rp2_common/hardware_timer/timer.o (symbol from plugin)
ch0                                               .build/obj_crkbd_rev1_tensotha_helios/lib/chibios/os/rt/src/chsys.o (symbol from plugin)
ch1                                               .build/obj_crkbd_rev1_tensotha_helios/lib/chibios/os/rt/src/chsys.o (symbol from plugin)
chCoreAllocFromBase                               .build/obj_crkbd_rev1_tensotha_helios/lib/chibios/os/oslib/src/chmemcore.o (symbol from plugin)
                                                  .build/obj_crkbd_rev1_tensotha_helios/lib/chibios/os/various/syscalls.o (symbol from plugin)
chCoreAllocFromBaseI                              .build/obj_crkbd_rev1_tensotha_helios/lib/chibios/os/oslib/src/chmemcore.o (symbol from plugin)
chCoreAllocFromTop                                .build/obj_crkbd_rev1_tensotha_helios/lib/chibios/os/oslib/src/chmemcore.o (symbol from plugin)
chCoreAllocFromTopI                               .build/obj_crkbd_rev1_tensotha_helios/lib/chibios/os/oslib/src/chmemcore.o (symbol from plugin)
chCoreGetStatusX                                  .build/obj_crkbd_rev1_tensotha_helios/lib/chibios/os/oslib/src/chmemcore.o (symbol from plugin)
chEvtAddEvents                                    .build/obj_crkbd_rev1_tensotha_helios/lib/chibios/os/rt/src/chevents.o (symbol from plugin)
chEvtBroadcastFlags                               .build/obj_crkbd_rev1_tensotha_helios/lib/chibios/os/rt/src/chevents.o (symbol from plugin)
chEvtBroadcastFlagsI                              .build/obj_crkbd_rev1_tensotha_helios/lib/chibios/os/rt/src/chevents.o (symbol from plugin)
chEvtDispatch                                     .build/obj_crkbd_rev1_tensotha_helios/lib/chibios/os/rt/src/chevents.o (symbol from plugin)
chEvtGetAndClearEvents                            .build/obj_crkbd_rev1_tensotha_helios/lib/chibios/os/rt/src/chevents.o (symbol from plugin)
chEvtGetAndClearEventsI                           .build/obj_crkbd_rev1_tensotha_helios/lib/chibios/os/rt/src/chevents.o (symbol from plugin)
chEvtGetAndClearFlags                             .build/obj_crkbd_rev1_tensotha_helios/lib/chibios/os/rt/src/chevents.o (symbol from plugin)
chEvtGetAndClearFlagsI                            .build/obj_crkbd_rev1_tensotha_helios/lib/chibios/os/rt/src/chevents.o (symbol from plugin)
chEvtRegisterMaskWithFlags                        .build/obj_crkbd_rev1_tensotha_helios/lib/chibios/os/rt/src/chevents.o (symbol from plugin)
chEvtRegisterMaskWithFlagsI                       .build/obj_crkbd_rev1_tensotha_helios/lib/chibios/os/rt/src/chevents.o (symbol from plugin)
chEvtSignal                                       .build/obj_crkbd_rev1_tensotha_helios/lib/chibios/os/rt/src/chevents.o (symbol from plugin)
chEvtSignalI                                      .build/obj_crkbd_rev1_tensotha_helios/lib/chibios/os/rt/src/chevents.o (symbol from plugin)
chEvtUnregister                                   .build/obj_crkbd_rev1_tensotha_helios/lib/chibios/os/rt/src/chevents.o (symbol from plugin)
chEvtWaitAll                                      .build/obj_crkbd_rev1_tensotha_helios/lib/chibios/os/rt/src/chevents.o (symbol from plugin)
chEvtWaitAllTimeout                               .build/obj_crkbd_rev1_tensotha_helios/lib/chibios/os/rt/src/chevents.o (symbol from plugin)
chEvtWaitAny                                      .build/obj_crkbd_rev1_tensotha_helios/lib/chibios/os/rt/src/chevents.o (symbol from plugin)
chEvtWaitAnyTimeout                               .build/obj_crkbd_rev1_tensotha_helios/lib/chibios/os/rt/src/chevents.o (symbol from plugin)
chEvtWaitOne                                      .build/obj_crkbd_rev1_tensotha_helios/lib/chibios/os/rt/src/chevents.o (symbol from plugin)
chEvtWaitOneTimeout                               .build/obj_crkbd_rev1_tensotha_helios/lib/chibios/os/rt/src/chevents.o (symbol from plugin)
chInstanceObjectInit                              .build/obj_crkbd_rev1_tensotha_helios/lib/chibios/os/rt/src/chinstances.o (symbol from plugin)
                                                  .build/obj_crkbd_rev1_tensotha_helios/lib/chibios/os/rt/src/chsys.o (symbol from plugin)
chMtxLock                                         .build/obj_crkbd_rev1_tensotha_helios/lib/chibios/os/rt/src/chmtx.o (symbol from plugin)
                                                  .build/obj_crkbd_rev1_tensotha_helios/platforms/chibios/synchronization_util.o (symbol from plugin)
                                                  .build/obj_crkbd_rev1_tensotha_helios/lib/chibios/os/hal/src/hal_spi.o (symbol from plugin)
                                                  .build/obj_crkbd_rev1_tensotha_helios/lib/chibios/os/hal/src/hal_i2c.o (symbol from plugin)
                                                  .build/obj_crkbd_rev1_tensotha_helios/lib/chibios/os/hal/src/hal_adc.o (symbol from plugin)
chMtxLockS                                        .build/obj_crkbd_rev1_tensotha_helios/lib/chibios/os/rt/src/chmtx.o (symbol from plugin)
chMtxObjectInit                                   .build/obj_crkbd_rev1_tensotha_helios/lib/chibios/os/rt/src/chmtx.o (symbol from plugin)
                                                  .build/obj_crkbd_rev1_tensotha_helios/lib/chibios/os/hal/src/hal_spi.o (symbol from plugin)
                                                  .build/obj_crkbd_rev1_tensotha_helios/lib/chibios/os/hal/src/hal_i2c.o (symbol from plugin)
                                                  .build/obj_crkbd_rev1_tensotha_helios/lib/chibios/os/hal/src/hal_adc.o (symbol from plugin)
chMtxTryLock                                      .build/obj_crkbd_rev1_tensotha_helios/lib/chibios/os/rt/src/chmtx.o (symbol from plugin)
chMtxTryLockS                                     .build/obj_crkbd_rev1_tensotha_helios/lib/chibios/os/rt/src/chmtx.o (symbol from plugin)
chMtxUnlock                                       .build/obj_crkbd_rev1_tensotha_helios/lib/chibios/os/rt/src/chmtx.o (symbol from plugin)
                                                  .build/obj_crkbd_rev1_tensotha_helios/platforms/chibios/synchronization_util.o (symbol from plugin)
                                                  .build/obj_crkbd_rev1_tensotha_helios/lib/chibios/os/hal/src/hal_spi.o (symbol from plugin)
                                                  .build/obj_crkbd_rev1_tensotha_helios/lib/chibios/os/hal/src/hal_i2c.o (symbol from plugin)
                                                  .build/obj_crkbd_rev1_tensotha_helios/lib/chibios/os/hal/src/hal_adc.o (symbol from plugin)
chMtxUnlockAll                                    .build/obj_crkbd_rev1_tensotha_helios/lib/chibios/os/rt/src/chmtx.o (symbol from plugin)
chMtxUnlockAllS                                   .build/obj_crkbd_rev1_tensotha_helios/lib/chibios/os/rt/src/chmtx.o (symbol from plugin)
chMtxUnlockS                                      .build/obj_crkbd_rev1_tensotha_helios/lib/chibios/os/rt/src/chmtx.o (symbol from plugin)
chRFCUCollectFaultsI                              .build/obj_crkbd_rev1_tensotha_helios/lib/chibios/os/rt/src/chrfcu.o (symbol from plugin)
                                                  .build/obj_crkbd_rev1_tensotha_helios/lib/chibios/os/rt/src/chvt.o (symbol from plugin)
chRFCUGetAndClearFaultsI                          .build/obj_crkbd_rev1_tensotha_helios/lib/chibios/os/rt/src/chrfcu.o (symbol from plugin)
chSchDoPreemption                                 /var/folders/01/r6qc96lx1x7c0h1529l70j5m0000gn/T//ccqg8YyW.ltrans0.ltrans.o
                                                  .build/obj_crkbd_rev1_tensotha_helios/lib/chibios/os/rt/src/chschd.o (symbol from plugin)
                                                  .build/obj_crkbd_rev1_tensotha_helios/./lib/chibios/os/common/ports/ARMv6-M-RP2/compilers/GCC/chcoreasm.o
chSchDoYieldS                                     .build/obj_crkbd_rev1_tensotha_helios/lib/chibios/os/rt/src/chschd.o (symbol from plugin)
                                                  .build/obj_crkbd_rev1_tensotha_helios/lib/chibios/os/rt/src/chthreads.o (symbol from plugin)
chSchGoSleepS                                     .build/obj_crkbd_rev1_tensotha_helios/lib/chibios/os/rt/src/chschd.o (symbol from plugin)
                                                  .build/obj_crkbd_rev1_tensotha_helios/lib/chibios/os/rt/src/chevents.o (symbol from plugin)
                                                  .build/obj_crkbd_rev1_tensotha_helios/lib/chibios/os/rt/src/chmtx.o (symbol from plugin)
                                                  .build/obj_crkbd_rev1_tensotha_helios/lib/chibios/os/rt/src/chsem.o (symbol from plugin)
                                                  .build/obj_crkbd_rev1_tensotha_helios/lib/chibios/os/rt/src/chthreads.o (symbol from plugin)
chSchGoSleepTimeoutS                              .build/obj_crkbd_rev1_tensotha_helios/lib/chibios/os/rt/src/chschd.o (symbol from plugin)
                                                  .build/obj_crkbd_rev1_tensotha_helios/lib/chibios/os/rt/src/chevents.o (symbol from plugin)
                                                  .build/obj_crkbd_rev1_tensotha_helios/lib/chibios/os/rt/src/chsem.o (symbol from plugin)
                                                  .build/obj_crkbd_rev1_tensotha_helios/lib/chibios/os/rt/src/chthreads.o (symbol from plugin)
chSchIsPreemptionRequired                         .build/obj_crkbd_rev1_tensotha_helios/lib/chibios/os/rt/src/chschd.o (symbol from plugin)
                                                  .build/obj_crkbd_rev1_tensotha_helios/lib/chibios/os/common/ports/ARMv6-M-RP2/chcore.o (symbol from plugin)
chSchPreemption                                   .build/obj_crkbd_rev1_tensotha_helios/lib/chibios/os/rt/src/chschd.o (symbol from plugin)
chSchReadyI                                       .build/obj_crkbd_rev1_tensotha_helios/lib/chibios/os/rt/src/chschd.o (symbol from plugin)
                                                  .build/obj_crkbd_rev1_tensotha_helios/lib/chibios/os/rt/src/chevents.o (symbol from plugin)
                                                  .build/obj_crkbd_rev1_tensotha_helios/lib/chibios/os/rt/src/chmtx.o (symbol from plugin)
                                                  .build/obj_crkbd_rev1_tensotha_helios/lib/chibios/os/rt/src/chsem.o (symbol from plugin)
                                                  .build/obj_crkbd_rev1_tensotha_helios/lib/chibios/os/rt/src/chthreads.o (symbol from plugin)
chSchRescheduleS                                  .build/obj_crkbd_rev1_tensotha_helios/lib/chibios/os/rt/src/chschd.o (symbol from plugin)
                                                  .build/obj_crkbd_rev1_tensotha_helios/lib/chibios/os/hal/src/hal_usb.o (symbol from plugin)
                                                  .build/obj_crkbd_rev1_tensotha_helios/lib/chibios/os/rt/src/chevents.o (symbol from plugin)
                                                  .build/obj_crkbd_rev1_tensotha_helios/lib/chibios/os/rt/src/chmtx.o (symbol from plugin)
                                                  .build/obj_crkbd_rev1_tensotha_helios/lib/chibios/os/rt/src/chsem.o (symbol from plugin)
                                                  .build/obj_crkbd_rev1_tensotha_helios/lib/chibios/os/rt/src/chthreads.o (symbol from plugin)
                                                  .build/obj_crkbd_rev1_tensotha_helios/lib/chibios/os/rt/src/chsys.o (symbol from plugin)
                                                  .build/obj_crkbd_rev1_tensotha_helios/protocol/chibios/usb_driver.o (symbol from plugin)
chSchSelectFirst                                  .build/obj_crkbd_rev1_tensotha_helios/lib/chibios/os/rt/src/chschd.o (symbol from plugin)
chSchWakeupS                                      .build/obj_crkbd_rev1_tensotha_helios/lib/chibios/os/rt/src/chschd.o (symbol from plugin)
                                                  .build/obj_crkbd_rev1_tensotha_helios/lib/chibios/os/rt/src/chsem.o (symbol from plugin)
                                                  .build/obj_crkbd_rev1_tensotha_helios/lib/chibios/os/rt/src/chthreads.o (symbol from plugin)
chSemAddCounterI                                  .build/obj_crkbd_rev1_tensotha_helios/lib/chibios/os/rt/src/chsem.o (symbol from plugin)
chSemObjectInit                                   .build/obj_crkbd_rev1_tensotha_helios/lib/chibios/os/rt/src/chsem.o (symbol from plugin)
chSemResetWithMessage                             .build/obj_crkbd_rev1_tensotha_helios/lib/chibios/os/rt/src/chsem.o (symbol from plugin)
                                                  .build/obj_crkbd_rev1_tensotha_helios/ws2812_vendor.o (symbol from plugin)
chSemResetWithMessageI                            .build/obj_crkbd_rev1_tensotha_helios/lib/chibios/os/rt/src/chsem.o (symbol from plugin)
chSemSignal                                       .build/obj_crkbd_rev1_tensotha_helios/lib/chibios/os/rt/src/chsem.o (symbol from plugin)
chSemSignalI                                      .build/obj_crkbd_rev1_tensotha_helios/lib/chibios/os/rt/src/chsem.o (symbol from plugin)
                                                  .build/obj_crkbd_rev1_tensotha_helios/ws2812_vendor.o (symbol from plugin)
chSemSignalWait                                   .build/obj_crkbd_rev1_tensotha_helios/lib/chibios/os/rt/src/chsem.o (symbol from plugin)
chSemWait                                         .build/obj_crkbd_rev1_tensotha_helios/lib/chibios/os/rt/src/chsem.o (symbol from plugin)
chSemWaitS                                        .build/obj_crkbd_rev1_tensotha_helios/lib/chibios/os/rt/src/chsem.o (symbol from plugin)
chSemWaitTimeout                                  .build/obj_crkbd_rev1_tensotha_helios/lib/chibios/os/rt/src/chsem.o (symbol from plugin)
                                                  .build/obj_crkbd_rev1_tensotha_helios/ws2812_vendor.o (symbol from plugin)
chSemWaitTimeoutS                                 .build/obj_crkbd_rev1_tensotha_helios/lib/chibios/os/rt/src/chsem.o (symbol from plugin)
chSysGetIdleThreadX                               .build/obj_crkbd_rev1_tensotha_helios/lib/chibios/os/rt/src/chsys.o (symbol from plugin)
chSysGetStatusAndLockX                            .build/obj_crkbd_rev1_tensotha_helios/lib/chibios/os/rt/src/chsys.o (symbol from plugin)
chSysHalt                                         .build/obj_crkbd_rev1_tensotha_helios/lib/chibios/os/rt/src/chsys.o (symbol from plugin)
                                                  .build/obj_crkbd_rev1_tensotha_helios/platforms/chibios/vendors/RP/pico_sdk_shims.o (symbol from plugin)
                                                  .build/obj_crkbd_rev1_tensotha_helios/lib/chibios/os/various/syscalls.o (symbol from plugin)
chSysInit                                         .build/obj_crkbd_rev1_tensotha_helios/lib/chibios/os/rt/src/chsys.o (symbol from plugin)
                                                  .build/obj_crkbd_rev1_tensotha_helios/platforms/chibios/platform.o (symbol from plugin)
chSysIntegrityCheckI                              .build/obj_crkbd_rev1_tensotha_helios/lib/chibios/os/rt/src/chsys.o (symbol from plugin)
chSysIsCounterWithinX                             .build/obj_crkbd_rev1_tensotha_helios/lib/chibios/os/rt/src/chsys.o (symbol from plugin)
chSysPolledDelayX                                 /var/folders/01/r6qc96lx1x7c0h1529l70j5m0000gn/T//ccqg8YyW.ltrans0.ltrans.o
                                                  .build/obj_crkbd_rev1_tensotha_helios/lib/chibios/os/rt/src/chsys.o (symbol from plugin)
                                                  .build/obj_crkbd_rev1_tensotha_helios/serial_vendor.a(serial_vendor.o)
                                                  .build/obj_crkbd_rev1_tensotha_helios/platforms/chibios/bootloaders/rp2040.o (symbol from plugin)
                                                  .build/obj_crkbd_rev1_tensotha_helios/protocol/usb_util.o (symbol from plugin)
                                                  .build/obj_crkbd_rev1_tensotha_helios/ws2812_vendor.o (symbol from plugin)
                                                  .build/obj_crkbd_rev1_tensotha_helios/quantum/split_common/transactions.o (symbol from plugin)
                                                  .build/obj_crkbd_rev1_tensotha_helios/quantum/matrix_common.o (symbol from plugin)
chSysRestoreStatusX                               .build/obj_crkbd_rev1_tensotha_helios/lib/chibios/os/rt/src/chsys.o (symbol from plugin)
chSysTimerHandlerI                                .build/obj_crkbd_rev1_tensotha_helios/lib/chibios/os/rt/src/chsys.o (symbol from plugin)
                                                  .build/obj_crkbd_rev1_tensotha_helios/lib/chibios/os/hal/ports/RP/LLD/TIMERv1/hal_st_lld.o (symbol from plugin)
chSysWaitSystemState                              .build/obj_crkbd_rev1_tensotha_helios/lib/chibios/os/rt/src/chsys.o (symbol from plugin)
chThdCreate                                       .build/obj_crkbd_rev1_tensotha_helios/lib/chibios/os/rt/src/chthreads.o (symbol from plugin)
chThdCreateI                                      .build/obj_crkbd_rev1_tensotha_helios/lib/chibios/os/rt/src/chthreads.o (symbol from plugin)
                                                  .build/obj_crkbd_rev1_tensotha_helios/lib/chibios/os/rt/src/chinstances.o (symbol from plugin)
chThdCreateStatic                                 /var/folders/01/r6qc96lx1x7c0h1529l70j5m0000gn/T//ccqg8YyW.ltrans0.ltrans.o
                                                  .build/obj_crkbd_rev1_tensotha_helios/lib/chibios/os/rt/src/chthreads.o (symbol from plugin)
                                                  .build/obj_crkbd_rev1_tensotha_helios/serial_protocol.a(serial_protocol.o)
chThdCreateSuspended                              .build/obj_crkbd_rev1_tensotha_helios/lib/chibios/os/rt/src/chthreads.o (symbol from plugin)
chThdCreateSuspendedI                             .build/obj_crkbd_rev1_tensotha_helios/lib/chibios/os/rt/src/chthreads.o (symbol from plugin)
chThdDequeueAllI                                  .build/obj_crkbd_rev1_tensotha_helios/lib/chibios/os/rt/src/chthreads.o (symbol from plugin)
                                                  .build/obj_crkbd_rev1_tensotha_helios/lib/chibios/os/hal/src/hal_queues.o (symbol from plugin)
                                                  .build/obj_crkbd_rev1_tensotha_helios/lib/chibios/os/hal/src/hal_buffers.o (symbol from plugin)
                                                  .build/obj_crkbd_rev1_tensotha_helios/protocol/chibios/usb_driver.o (symbol from plugin)
chThdDequeueNextI                                 .build/obj_crkbd_rev1_tensotha_helios/lib/chibios/os/rt/src/chthreads.o (symbol from plugin)
                                                  .build/obj_crkbd_rev1_tensotha_helios/lib/chibios/os/hal/src/hal_queues.o (symbol from plugin)
                                                  .build/obj_crkbd_rev1_tensotha_helios/lib/chibios/os/hal/src/hal_buffers.o (symbol from plugin)
chThdEnqueueTimeoutS                              .build/obj_crkbd_rev1_tensotha_helios/lib/chibios/os/rt/src/chthreads.o (symbol from plugin)
                                                  .build/obj_crkbd_rev1_tensotha_helios/lib/chibios/os/hal/src/hal_queues.o (symbol from plugin)
                                                  .build/obj_crkbd_rev1_tensotha_helios/lib/chibios/os/hal/src/hal_buffers.o (symbol from plugin)
chThdExit                                         /var/folders/01/r6qc96lx1x7c0h1529l70j5m0000gn/T//ccqg8YyW.ltrans0.ltrans.o
                                                  .build/obj_crkbd_rev1_tensotha_helios/lib/chibios/os/rt/src/chthreads.o (symbol from plugin)
                                                  .build/obj_crkbd_rev1_tensotha_helios/./lib/chibios/os/common/ports/ARMv6-M-RP2/compilers/GCC/chcoreasm.o
chThdExitS                                        .build/obj_crkbd_rev1_tensotha_helios/lib/chibios/os/rt/src/chthreads.o (symbol from plugin)
chThdResume                                       .build/obj_crkbd_rev1_tensotha_helios/lib/chibios/os/rt/src/chthreads.o (symbol from plugin)
chThdResumeI                                      /var/folders/01/r6qc96lx1x7c0h1529l70j5m0000gn/T//ccqg8YyW.ltrans0.ltrans.o
                                                  .build/obj_crkbd_rev1_tensotha_helios/lib/chibios/os/rt/src/chthreads.o (symbol from plugin)
                                                  .build/obj_crkbd_rev1_tensotha_helios/lib/chibios-contrib/os/hal/ports/RP/LLD/USBDv1/hal_usb_lld.o (symbol from plugin)
                                                  .build/obj_crkbd_rev1_tensotha_helios/lib/chibios-contrib/os/hal/ports/RP/LLD/ADCv1/hal_adc_lld.o (symbol from plugin)
                                                  .build/obj_crkbd_rev1_tensotha_helios/lib/chibios-contrib/os/hal/ports/RP/LLD/I2Cv1/hal_i2c_lld.o (symbol from plugin)
                                                  .build/obj_crkbd_rev1_tensotha_helios/lib/chibios/os/hal/ports/RP/LLD/SPIv1/hal_spi_lld.o (symbol from plugin)
                                                  .build/obj_crkbd_rev1_tensotha_helios/lib/chibios/os/hal/src/hal_usb.o (symbol from plugin)
                                                  .build/obj_crkbd_rev1_tensotha_helios/lib/chibios/os/hal/src/hal_adc.o (symbol from plugin)
                                                  .build/obj_crkbd_rev1_tensotha_helios/serial_vendor.a(serial_vendor.o)
chThdResumeS                                      .build/obj_crkbd_rev1_tensotha_helios/lib/chibios/os/rt/src/chthreads.o (symbol from plugin)
                                                  .build/obj_crkbd_rev1_tensotha_helios/lib/chibios/os/hal/src/hal_adc.o (symbol from plugin)
chThdSetPriority                                  .build/obj_crkbd_rev1_tensotha_helios/lib/chibios/os/rt/src/chthreads.o (symbol from plugin)
chThdSleep                                        /var/folders/01/r6qc96lx1x7c0h1529l70j5m0000gn/T//ccqg8YyW.ltrans0.ltrans.o
                                                  .build/obj_crkbd_rev1_tensotha_helios/lib/chibios/os/rt/src/chthreads.o (symbol from plugin)
                                                  .build/obj_crkbd_rev1_tensotha_helios/lib/chibios/os/hal/src/hal_flash.o (symbol from plugin)
                                                  .build/obj_crkbd_rev1_tensotha_helios/protocol/chibios/chibios.o (symbol from plugin)
                                                  .build/obj_crkbd_rev1_tensotha_helios/protocol/chibios/usb_main.o (symbol from plugin)
                                                  .build/obj_crkbd_rev1_tensotha_helios/i2c_master.a(i2c_master.o)
                                                  .build/obj_crkbd_rev1_tensotha_helios/platforms/chibios/suspend.o (symbol from plugin)
                                                  .build/obj_crkbd_rev1_tensotha_helios/quantum/send_string/send_string.o (symbol from plugin)
                                                  .build/obj_crkbd_rev1_tensotha_helios/quantum/bootmagic/bootmagic.o (symbol from plugin)
                                                  .build/obj_crkbd_rev1_tensotha_helios/quantum/action.o (symbol from plugin)
                                                  .build/obj_crkbd_rev1_tensotha_helios/quantum/quantum.o (symbol from plugin)
chThdSleepUntil                                   .build/obj_crkbd_rev1_tensotha_helios/lib/chibios/os/rt/src/chthreads.o (symbol from plugin)
chThdSleepUntilWindowed                           .build/obj_crkbd_rev1_tensotha_helios/lib/chibios/os/rt/src/chthreads.o (symbol from plugin)
chThdStart                                        .build/obj_crkbd_rev1_tensotha_helios/lib/chibios/os/rt/src/chthreads.o (symbol from plugin)
chThdSuspendS                                     .build/obj_crkbd_rev1_tensotha_helios/lib/chibios/os/rt/src/chthreads.o (symbol from plugin)
chThdSuspendTimeoutS                              /var/folders/01/r6qc96lx1x7c0h1529l70j5m0000gn/T//ccqg8YyW.ltrans0.ltrans.o
                                                  .build/obj_crkbd_rev1_tensotha_helios/lib/chibios/os/rt/src/chthreads.o (symbol from plugin)
                                                  .build/obj_crkbd_rev1_tensotha_helios/lib/chibios-contrib/os/hal/ports/RP/LLD/I2Cv1/hal_i2c_lld.o (symbol from plugin)
                                                  .build/obj_crkbd_rev1_tensotha_helios/lib/chibios/os/hal/src/hal_usb.o (symbol from plugin)
                                                  .build/obj_crkbd_rev1_tensotha_helios/lib/chibios/os/hal/src/hal_spi.o (symbol from plugin)
                                                  .build/obj_crkbd_rev1_tensotha_helios/lib/chibios/os/hal/src/hal_adc.o (symbol from plugin)
                                                  .build/obj_crkbd_rev1_tensotha_helios/serial_vendor.a(serial_vendor.o)
chThdTerminate                                    .build/obj_crkbd_rev1_tensotha_helios/lib/chibios/os/rt/src/chthreads.o (symbol from plugin)
chThdYield                                        .build/obj_crkbd_rev1_tensotha_helios/lib/chibios/os/rt/src/chthreads.o (symbol from plugin)
chVTDoResetI                                      .build/obj_crkbd_rev1_tensotha_helios/lib/chibios/os/rt/src/chvt.o (symbol from plugin)
                                                  .build/obj_crkbd_rev1_tensotha_helios/lib/chibios/os/rt/src/chschd.o (symbol from plugin)
chVTDoSetContinuousI                              .build/obj_crkbd_rev1_tensotha_helios/lib/chibios/os/rt/src/chvt.o (symbol from plugin)
chVTDoSetI                                        .build/obj_crkbd_rev1_tensotha_helios/lib/chibios/os/rt/src/chvt.o (symbol from plugin)
                                                  .build/obj_crkbd_rev1_tensotha_helios/lib/chibios/os/rt/src/chschd.o (symbol from plugin)
chVTDoTickI                                       .build/obj_crkbd_rev1_tensotha_helios/lib/chibios/os/rt/src/chvt.o (symbol from plugin)
                                                  .build/obj_crkbd_rev1_tensotha_helios/lib/chibios/os/rt/src/chsys.o (symbol from plugin)
chVTGetRemainingIntervalI                         .build/obj_crkbd_rev1_tensotha_helios/lib/chibios/os/rt/src/chvt.o (symbol from plugin)
chVTGetTimeStampI                                 .build/obj_crkbd_rev1_tensotha_helios/lib/chibios/os/rt/src/chvt.o (symbol from plugin)
chVTResetTimeStampI                               .build/obj_crkbd_rev1_tensotha_helios/lib/chibios/os/rt/src/chvt.o (symbol from plugin)
ch_core0_cfg                                      .build/obj_crkbd_rev1_tensotha_helios/lib/chibios/os/rt/src/chsys.o (symbol from plugin)
ch_core1_cfg                                      .build/obj_crkbd_rev1_tensotha_helios/lib/chibios/os/rt/src/chsys.o (symbol from plugin)
ch_memcore                                        .build/obj_crkbd_rev1_tensotha_helios/lib/chibios/os/oslib/src/chmemcore.o (symbol from plugin)
ch_system                                         .build/obj_crkbd_rev1_tensotha_helios/lib/chibios/os/rt/src/chsys.o (symbol from plugin)
                                                  .build/obj_crkbd_rev1_tensotha_helios/lib/chibios/os/common/ports/ARMv6-M-RP2/chcore.o (symbol from plugin)
                                                  .build/obj_crkbd_rev1_tensotha_helios/lib/chibios/os/rt/src/chevents.o (symbol from plugin)
                                                  .build/obj_crkbd_rev1_tensotha_helios/lib/chibios/os/rt/src/chmtx.o (symbol from plugin)
                                                  .build/obj_crkbd_rev1_tensotha_helios/lib/chibios/os/rt/src/chsem.o (symbol from plugin)
                                                  .build/obj_crkbd_rev1_tensotha_helios/lib/chibios/os/rt/src/chthreads.o (symbol from plugin)
                                                  .build/obj_crkbd_rev1_tensotha_helios/lib/chibios/os/rt/src/chinstances.o (symbol from plugin)
                                                  .build/obj_crkbd_rev1_tensotha_helios/lib/chibios/os/rt/src/chschd.o (symbol from plugin)
                                                  .build/obj_crkbd_rev1_tensotha_helios/lib/chibios/os/rt/src/chvt.o (symbol from plugin)
                                                  .build/obj_crkbd_rev1_tensotha_helios/lib/chibios/os/rt/src/chrfcu.o (symbol from plugin)
chcond.c.c3fafa58                                 /var/folders/01/r6qc96lx1x7c0h1529l70j5m0000gn/T//ccZ3h3t9debugobj
chcore.c.9f4fa5be                                 /var/folders/01/r6qc96lx1x7c0h1529l70j5m0000gn/T//ccZ3h3t9debugobj
                                                  /var/folders/01/r6qc96lx1x7c0h1529l70j5m0000gn/T//ccqg8YyW.ltrans0.ltrans.o
chdebug.c.f67ee0bd                                /var/folders/01/r6qc96lx1x7c0h1529l70j5m0000gn/T//ccZ3h3t9debugobj
chdelegates.c.b27479b3                            /var/folders/01/r6qc96lx1x7c0h1529l70j5m0000gn/T//ccZ3h3t9debugobj
chdynamic.c.795d1db6                              /var/folders/01/r6qc96lx1x7c0h1529l70j5m0000gn/T//ccZ3h3t9debugobj
chevents.c.c02e2b6b                               /var/folders/01/r6qc96lx1x7c0h1529l70j5m0000gn/T//ccZ3h3t9debugobj
chfactory.c.5c425d56                              /var/folders/01/r6qc96lx1x7c0h1529l70j5m0000gn/T//ccZ3h3t9debugobj
chibios.c.31fbd071                                /var/folders/01/r6qc96lx1x7c0h1529l70j5m0000gn/T//ccZ3h3t9debugobj
                                                  /var/folders/01/r6qc96lx1x7c0h1529l70j5m0000gn/T//ccqg8YyW.ltrans0.ltrans.o
chibios_driver                                    .build/obj_crkbd_rev1_tensotha_helios/protocol/chibios/chibios.o (symbol from plugin)
chinstances.c.8c2028fb                            /var/folders/01/r6qc96lx1x7c0h1529l70j5m0000gn/T//ccZ3h3t9debugobj
                                                  /var/folders/01/r6qc96lx1x7c0h1529l70j5m0000gn/T//ccqg8YyW.ltrans0.ltrans.o
chmboxes.c.1ab2e336                               /var/folders/01/r6qc96lx1x7c0h1529l70j5m0000gn/T//ccZ3h3t9debugobj
chmemcore.c.a511a762                              /var/folders/01/r6qc96lx1x7c0h1529l70j5m0000gn/T//ccZ3h3t9debugobj
                                                  /var/folders/01/r6qc96lx1x7c0h1529l70j5m0000gn/T//ccqg8YyW.ltrans0.ltrans.o
chmemheaps.c.c87283b4                             /var/folders/01/r6qc96lx1x7c0h1529l70j5m0000gn/T//ccZ3h3t9debugobj
chmempools.c.385e8c70                             /var/folders/01/r6qc96lx1x7c0h1529l70j5m0000gn/T//ccZ3h3t9debugobj
chmsg.c.c44cbcce                                  /var/folders/01/r6qc96lx1x7c0h1529l70j5m0000gn/T//ccZ3h3t9debugobj
chmtx.c.916de098                                  /var/folders/01/r6qc96lx1x7c0h1529l70j5m0000gn/T//ccZ3h3t9debugobj
                                                  /var/folders/01/r6qc96lx1x7c0h1529l70j5m0000gn/T//ccqg8YyW.ltrans0.ltrans.o
chobjcaches.c.ed2c91a4                            /var/folders/01/r6qc96lx1x7c0h1529l70j5m0000gn/T//ccZ3h3t9debugobj
chpipes.c.a726220b                                /var/folders/01/r6qc96lx1x7c0h1529l70j5m0000gn/T//ccZ3h3t9debugobj
chprintf                                          .build/obj_crkbd_rev1_tensotha_helios/lib/chibios/os/hal/lib/streams/chprintf.o (symbol from plugin)
chprintf.c.f9975d6a                               /var/folders/01/r6qc96lx1x7c0h1529l70j5m0000gn/T//ccZ3h3t9debugobj
chregistry.c.ce0aabb2                             /var/folders/01/r6qc96lx1x7c0h1529l70j5m0000gn/T//ccZ3h3t9debugobj
chrfcu.c.95e6864c                                 /var/folders/01/r6qc96lx1x7c0h1529l70j5m0000gn/T//ccZ3h3t9debugobj
                                                  /var/folders/01/r6qc96lx1x7c0h1529l70j5m0000gn/T//ccqg8YyW.ltrans0.ltrans.o
chscanf                                           .build/obj_crkbd_rev1_tensotha_helios/lib/chibios/os/hal/lib/streams/chscanf.o (symbol from plugin)
chscanf.c.e9cce590                                /var/folders/01/r6qc96lx1x7c0h1529l70j5m0000gn/T//ccZ3h3t9debugobj
chschd.c.ee5b44a0                                 /var/folders/01/r6qc96lx1x7c0h1529l70j5m0000gn/T//ccZ3h3t9debugobj
                                                  /var/folders/01/r6qc96lx1x7c0h1529l70j5m0000gn/T//ccqg8YyW.ltrans0.ltrans.o
chsem.c.ff72c1fb                                  /var/folders/01/r6qc96lx1x7c0h1529l70j5m0000gn/T//ccZ3h3t9debugobj
                                                  /var/folders/01/r6qc96lx1x7c0h1529l70j5m0000gn/T//ccqg8YyW.ltrans0.ltrans.o
chsnprintf                                        .build/obj_crkbd_rev1_tensotha_helios/lib/chibios/os/hal/lib/streams/chprintf.o (symbol from plugin)
chsnscanf                                         .build/obj_crkbd_rev1_tensotha_helios/lib/chibios/os/hal/lib/streams/chscanf.o (symbol from plugin)
chstats.c.6d6524ef                                /var/folders/01/r6qc96lx1x7c0h1529l70j5m0000gn/T//ccZ3h3t9debugobj
chsys.c.58343748                                  /var/folders/01/r6qc96lx1x7c0h1529l70j5m0000gn/T//ccZ3h3t9debugobj
                                                  /var/folders/01/r6qc96lx1x7c0h1529l70j5m0000gn/T//ccqg8YyW.ltrans0.ltrans.o
chthreads.c.241f785a                              /var/folders/01/r6qc96lx1x7c0h1529l70j5m0000gn/T//ccZ3h3t9debugobj
                                                  /var/folders/01/r6qc96lx1x7c0h1529l70j5m0000gn/T//ccqg8YyW.ltrans0.ltrans.o
chtm.c.fd692984                                   /var/folders/01/r6qc96lx1x7c0h1529l70j5m0000gn/T//ccZ3h3t9debugobj
chtrace.c.51d32a7b                                /var/folders/01/r6qc96lx1x7c0h1529l70j5m0000gn/T//ccZ3h3t9debugobj
chvprintf                                         .build/obj_crkbd_rev1_tensotha_helios/lib/chibios/os/hal/lib/streams/chprintf.o (symbol from plugin)
chvscanf                                          .build/obj_crkbd_rev1_tensotha_helios/lib/chibios/os/hal/lib/streams/chscanf.o (symbol from plugin)
chvsnprintf                                       .build/obj_crkbd_rev1_tensotha_helios/lib/chibios/os/hal/lib/streams/chprintf.o (symbol from plugin)
chvsnscanf                                        .build/obj_crkbd_rev1_tensotha_helios/lib/chibios/os/hal/lib/streams/chscanf.o (symbol from plugin)
chvt.c.58b09daa                                   /var/folders/01/r6qc96lx1x7c0h1529l70j5m0000gn/T//ccZ3h3t9debugobj
                                                  /var/folders/01/r6qc96lx1x7c0h1529l70j5m0000gn/T//ccqg8YyW.ltrans0.ltrans.o
claim.c.c8aa4981                                  /var/folders/01/r6qc96lx1x7c0h1529l70j5m0000gn/T//ccZ3h3t9debugobj
                                                  /var/folders/01/r6qc96lx1x7c0h1529l70j5m0000gn/T//ccqg8YyW.ltrans0.ltrans.o
cleanup_glue                                      /opt/homebrew/Cellar/arm-none-eabi-gcc@8/8.5.0_2/lib/arm-none-eabi-gcc/8/gcc/arm-none-eabi/8.5.0/../../../../../../arm-none-eabi/lib/thumb/v6-m/nofp/libg_nano.a(lib_a-reent.o)
clear_keyboard                                    .build/obj_crkbd_rev1_tensotha_helios/quantum/action.o (symbol from plugin)
                                                  .build/obj_crkbd_rev1_tensotha_helios/quantum/process_keycode/process_magic.o (symbol from plugin)
                                                  .build/obj_crkbd_rev1_tensotha_helios/quantum/action_tapping.o (symbol from plugin)
                                                  .build/obj_crkbd_rev1_tensotha_helios/quantum/quantum.o (symbol from plugin)
clear_keyboard_but_mods                           .build/obj_crkbd_rev1_tensotha_helios/quantum/action.o (symbol from plugin)
clear_keyboard_but_mods_and_keys                  .build/obj_crkbd_rev1_tensotha_helios/quantum/action.o (symbol from plugin)
clear_keys                                        .build/obj_crkbd_rev1_tensotha_helios/quantum/action_util.o (symbol from plugin)
clear_keys_from_report                            .build/obj_crkbd_rev1_tensotha_helios/protocol/report.o (symbol from plugin)
                                                  .build/obj_crkbd_rev1_tensotha_helios/platforms/chibios/suspend.o (symbol from plugin)
                                                  .build/obj_crkbd_rev1_tensotha_helios/quantum/action_util.o (symbol from plugin)
                                                  .build/obj_crkbd_rev1_tensotha_helios/quantum/action.o (symbol from plugin)
clear_mods                                        .build/obj_crkbd_rev1_tensotha_helios/quantum/action_util.o (symbol from plugin)
                                                  .build/obj_crkbd_rev1_tensotha_helios/platforms/chibios/suspend.o (symbol from plugin)
                                                  .build/obj_crkbd_rev1_tensotha_helios/quantum/action.o (symbol from plugin)
clear_oneshot_layer_state                         .build/obj_crkbd_rev1_tensotha_helios/quantum/action_util.o (symbol from plugin)
                                                  .build/obj_crkbd_rev1_tensotha_helios/quantum/action.o (symbol from plugin)
clear_oneshot_locked_mods                         .build/obj_crkbd_rev1_tensotha_helios/quantum/action_util.o (symbol from plugin)
clear_oneshot_mods                                .build/obj_crkbd_rev1_tensotha_helios/quantum/action_util.o (symbol from plugin)
clear_weak_mods                                   .build/obj_crkbd_rev1_tensotha_helios/quantum/action_util.o (symbol from plugin)
                                                  .build/obj_crkbd_rev1_tensotha_helios/platforms/chibios/suspend.o (symbol from plugin)
                                                  .build/obj_crkbd_rev1_tensotha_helios/quantum/action.o (symbol from plugin)
clock_configure                                   .build/obj_crkbd_rev1_tensotha_helios/./lib/pico-sdk/src/rp2_common/hardware_clocks/clocks.o (symbol from plugin)
clock_configure_gpin                              .build/obj_crkbd_rev1_tensotha_helios/./lib/pico-sdk/src/rp2_common/hardware_clocks/clocks.o (symbol from plugin)
clock_get_hz                                      /var/folders/01/r6qc96lx1x7c0h1529l70j5m0000gn/T//ccqg8YyW.ltrans0.ltrans.o
                                                  .build/obj_crkbd_rev1_tensotha_helios/./lib/pico-sdk/src/rp2_common/hardware_clocks/clocks.o (symbol from plugin)
                                                  .build/obj_crkbd_rev1_tensotha_helios/lib/chibios-contrib/os/hal/ports/RP/LLD/I2Cv1/hal_i2c_lld.o (symbol from plugin)
                                                  .build/obj_crkbd_rev1_tensotha_helios/lib/chibios/os/hal/ports/RP/RP2040/hal_lld.o (symbol from plugin)
                                                  .build/obj_crkbd_rev1_tensotha_helios/serial_vendor.a(serial_vendor.o)
                                                  .build/obj_crkbd_rev1_tensotha_helios/ws2812_vendor.o (symbol from plugin)
                                                  .build/obj_crkbd_rev1_tensotha_helios/quantum/matrix_common.o (symbol from plugin)
clock_gpio_init_int_frac                          .build/obj_crkbd_rev1_tensotha_helios/./lib/pico-sdk/src/rp2_common/hardware_clocks/clocks.o (symbol from plugin)
clock_set_reported_hz                             .build/obj_crkbd_rev1_tensotha_helios/./lib/pico-sdk/src/rp2_common/hardware_clocks/clocks.o (symbol from plugin)
clock_stop                                        .build/obj_crkbd_rev1_tensotha_helios/./lib/pico-sdk/src/rp2_common/hardware_clocks/clocks.o (symbol from plugin)
clocks.c.e498acad                                 /var/folders/01/r6qc96lx1x7c0h1529l70j5m0000gn/T//ccZ3h3t9debugobj
                                                  /var/folders/01/r6qc96lx1x7c0h1529l70j5m0000gn/T//ccqg8YyW.ltrans0.ltrans.o
clocks_enable_resus                               .build/obj_crkbd_rev1_tensotha_helios/./lib/pico-sdk/src/rp2_common/hardware_clocks/clocks.o (symbol from plugin)
clocks_init                                       .build/obj_crkbd_rev1_tensotha_helios/./lib/pico-sdk/src/rp2_common/hardware_clocks/clocks.o (symbol from plugin)
                                                  .build/obj_crkbd_rev1_tensotha_helios/lib/chibios/os/hal/ports/RP/RP2040/hal_lld.o (symbol from plugin)
                                                  .build/obj_crkbd_rev1_tensotha_helios/platforms/chibios/bootloaders/rp2040.o (symbol from plugin)
color.c.8752c8d5                                  /var/folders/01/r6qc96lx1x7c0h1529l70j5m0000gn/T//ccZ3h3t9debugobj
                                                  /var/folders/01/r6qc96lx1x7c0h1529l70j5m0000gn/T//ccqg8YyW.ltrans0.ltrans.o
crc.c.6a6dea3d                                    /var/folders/01/r6qc96lx1x7c0h1529l70j5m0000gn/T//ccZ3h3t9debugobj
                                                  /var/folders/01/r6qc96lx1x7c0h1529l70j5m0000gn/T//ccqg8YyW.ltrans0.ltrans.o
crc8                                              .build/obj_crkbd_rev1_tensotha_helios/quantum/crc.o (symbol from plugin)
                                                  .build/obj_crkbd_rev1_tensotha_helios/quantum/split_common/transactions.o (symbol from plugin)
crc_init                                          .build/obj_crkbd_rev1_tensotha_helios/quantum/crc.o (symbol from plugin)
                                                  .build/obj_crkbd_rev1_tensotha_helios/quantum/keyboard.o (symbol from plugin)
crkbd.c.67fa16a6                                  /var/folders/01/r6qc96lx1x7c0h1529l70j5m0000gn/T//ccZ3h3t9debugobj
                                                  /var/folders/01/r6qc96lx1x7c0h1529l70j5m0000gn/T//ccqg8YyW.ltrans0.ltrans.o
crot                                              .build/obj_crkbd_rev1_tensotha_helios/oled_driver.o (symbol from plugin)
crt1.c.dd45f1b7                                   /var/folders/01/r6qc96lx1x7c0h1529l70j5m0000gn/T//ccZ3h3t9debugobj
                                                  /var/folders/01/r6qc96lx1x7c0h1529l70j5m0000gn/T//ccqg8YyW.ltrans0.ltrans.o
debounce                                          .build/obj_crkbd_rev1_tensotha_helios/quantum/debounce/sym_defer_g.o (symbol from plugin)
                                                  .build/obj_crkbd_rev1_tensotha_helios/quantum/matrix.o (symbol from plugin)
                                                  .build/obj_crkbd_rev1_tensotha_helios/quantum/matrix_common.o (symbol from plugin)
debounce_free                                     .build/obj_crkbd_rev1_tensotha_helios/quantum/debounce/sym_defer_g.o (symbol from plugin)
debounce_init                                     .build/obj_crkbd_rev1_tensotha_helios/quantum/debounce/sym_defer_g.o (symbol from plugin)
                                                  .build/obj_crkbd_rev1_tensotha_helios/quantum/matrix.o (symbol from plugin)
                                                  .build/obj_crkbd_rev1_tensotha_helios/quantum/matrix_common.o (symbol from plugin)
debug.c.4231bca4                                  /var/folders/01/r6qc96lx1x7c0h1529l70j5m0000gn/T//ccZ3h3t9debugobj
                                                  /var/folders/01/r6qc96lx1x7c0h1529l70j5m0000gn/T//ccqg8YyW.ltrans0.ltrans.o
debug_action                                      .build/obj_crkbd_rev1_tensotha_helios/quantum/action.o (symbol from plugin)
debug_config                                      .build/obj_crkbd_rev1_tensotha_helios/quantum/logging/debug.o (symbol from plugin)
                                                  .build/obj_crkbd_rev1_tensotha_helios/quantum/keyboard.o (symbol from plugin)
debug_event                                       .build/obj_crkbd_rev1_tensotha_helios/quantum/action.o (symbol from plugin)
                                                  .build/obj_crkbd_rev1_tensotha_helios/quantum/action_tapping.o (symbol from plugin)
debug_record                                      .build/obj_crkbd_rev1_tensotha_helios/quantum/action.o (symbol from plugin)
                                                  .build/obj_crkbd_rev1_tensotha_helios/quantum/action_tapping.o (symbol from plugin)
default_keyboard.c.86606eb7                       /var/folders/01/r6qc96lx1x7c0h1529l70j5m0000gn/T//ccZ3h3t9debugobj
default_layer_and                                 .build/obj_crkbd_rev1_tensotha_helios/quantum/action_layer.o (symbol from plugin)
                                                  .build/obj_crkbd_rev1_tensotha_helios/quantum/action.o (symbol from plugin)
default_layer_debug                               .build/obj_crkbd_rev1_tensotha_helios/quantum/action_layer.o (symbol from plugin)
                                                  .build/obj_crkbd_rev1_tensotha_helios/quantum/action.o (symbol from plugin)
default_layer_or                                  .build/obj_crkbd_rev1_tensotha_helios/quantum/action_layer.o (symbol from plugin)
                                                  .build/obj_crkbd_rev1_tensotha_helios/quantum/action.o (symbol from plugin)
default_layer_set                                 .build/obj_crkbd_rev1_tensotha_helios/quantum/action_layer.o (symbol from plugin)
                                                  .build/obj_crkbd_rev1_tensotha_helios/quantum/keyboard.o (symbol from plugin)
                                                  .build/obj_crkbd_rev1_tensotha_helios/quantum/action.o (symbol from plugin)
                                                  .build/obj_crkbd_rev1_tensotha_helios/quantum/quantum.o (symbol from plugin)
default_layer_state                               .build/obj_crkbd_rev1_tensotha_helios/quantum/action_layer.o (symbol from plugin)
                                                  .build/obj_crkbd_rev1_tensotha_helios/quantum/eeconfig.o (symbol from plugin)
default_layer_state_set_kb                        .build/obj_crkbd_rev1_tensotha_helios/quantum/action_layer.o (symbol from plugin)
default_layer_state_set_user                      .build/obj_crkbd_rev1_tensotha_helios/quantum/action_layer.o (symbol from plugin)
default_layer_xor                                 .build/obj_crkbd_rev1_tensotha_helios/quantum/action_layer.o (symbol from plugin)
                                                  .build/obj_crkbd_rev1_tensotha_helios/quantum/action.o (symbol from plugin)
del_key                                           .build/obj_crkbd_rev1_tensotha_helios/quantum/action_util.o (symbol from plugin)
del_key_bit                                       .build/obj_crkbd_rev1_tensotha_helios/protocol/report.o (symbol from plugin)
del_key_byte                                      .build/obj_crkbd_rev1_tensotha_helios/protocol/report.o (symbol from plugin)
del_key_from_report                               .build/obj_crkbd_rev1_tensotha_helios/protocol/report.o (symbol from plugin)
                                                  .build/obj_crkbd_rev1_tensotha_helios/quantum/process_keycode/process_grave_esc.o (symbol from plugin)
                                                  .build/obj_crkbd_rev1_tensotha_helios/quantum/action_util.o (symbol from plugin)
                                                  .build/obj_crkbd_rev1_tensotha_helios/quantum/action.o (symbol from plugin)
del_mods                                          .build/obj_crkbd_rev1_tensotha_helios/quantum/action_util.o (symbol from plugin)
                                                  .build/obj_crkbd_rev1_tensotha_helios/quantum/action.o (symbol from plugin)
del_oneshot_locked_mods                           .build/obj_crkbd_rev1_tensotha_helios/quantum/action_util.o (symbol from plugin)
                                                  .build/obj_crkbd_rev1_tensotha_helios/quantum/action.o (symbol from plugin)
del_oneshot_mods                                  .build/obj_crkbd_rev1_tensotha_helios/quantum/action_util.o (symbol from plugin)
                                                  .build/obj_crkbd_rev1_tensotha_helios/quantum/action.o (symbol from plugin)
del_weak_mods                                     .build/obj_crkbd_rev1_tensotha_helios/quantum/action_util.o (symbol from plugin)
                                                  .build/obj_crkbd_rev1_tensotha_helios/quantum/action.o (symbol from plugin)
disable_action_cache                              .build/obj_crkbd_rev1_tensotha_helios/quantum/action.o (symbol from plugin)
                                                  .build/obj_crkbd_rev1_tensotha_helios/quantum/action_layer.o (symbol from plugin)
                                                  .build/obj_crkbd_rev1_tensotha_helios/quantum/quantum.o (symbol from plugin)
div_s32s32                                        .build/obj_crkbd_rev1_tensotha_helios/./lib/pico-sdk/src/rp2_common/pico_divider/divider.o
div_s64s64                                        .build/obj_crkbd_rev1_tensotha_helios/./lib/pico-sdk/src/rp2_common/pico_divider/divider.o
div_u32u32                                        .build/obj_crkbd_rev1_tensotha_helios/./lib/pico-sdk/src/rp2_common/pico_divider/divider.o
div_u64u64                                        .build/obj_crkbd_rev1_tensotha_helios/./lib/pico-sdk/src/rp2_common/pico_divider/divider.o
divmod_s32s32                                     .build/obj_crkbd_rev1_tensotha_helios/./lib/pico-sdk/src/rp2_common/pico_divider/divider.o
divmod_s32s32_unsafe                              .build/obj_crkbd_rev1_tensotha_helios/./lib/pico-sdk/src/rp2_common/pico_divider/divider.o
divmod_s64s64                                     .build/obj_crkbd_rev1_tensotha_helios/./lib/pico-sdk/src/rp2_common/pico_divider/divider.o
divmod_s64s64_rem                                 .build/obj_crkbd_rev1_tensotha_helios/./lib/pico-sdk/src/rp2_common/pico_divider/divider.o
divmod_s64s64_unsafe                              .build/obj_crkbd_rev1_tensotha_helios/./lib/pico-sdk/src/rp2_common/pico_divider/divider.o
divmod_u32u32                                     .build/obj_crkbd_rev1_tensotha_helios/./lib/pico-sdk/src/rp2_common/pico_divider/divider.o
divmod_u32u32_unsafe                              .build/obj_crkbd_rev1_tensotha_helios/./lib/pico-sdk/src/rp2_common/pico_divider/divider.o
divmod_u64u64                                     .build/obj_crkbd_rev1_tensotha_helios/./lib/pico-sdk/src/rp2_common/pico_divider/divider.o
divmod_u64u64_rem                                 .build/obj_crkbd_rev1_tensotha_helios/./lib/pico-sdk/src/rp2_common/pico_divider/divider.o
divmod_u64u64_unsafe                              .build/obj_crkbd_rev1_tensotha_helios/./lib/pico-sdk/src/rp2_common/pico_divider/divider.o
dmaChannelAlloc                                   .build/obj_crkbd_rev1_tensotha_helios/lib/chibios/os/hal/ports/RP/LLD/DMAv1/rp_dma.o (symbol from plugin)
                                                  .build/obj_crkbd_rev1_tensotha_helios/ws2812_vendor.o (symbol from plugin)
dmaChannelAllocI                                  .build/obj_crkbd_rev1_tensotha_helios/lib/chibios/os/hal/ports/RP/LLD/DMAv1/rp_dma.o (symbol from plugin)
                                                  .build/obj_crkbd_rev1_tensotha_helios/lib/chibios/os/hal/ports/RP/LLD/SPIv1/hal_spi_lld.o (symbol from plugin)
dmaChannelFree                                    .build/obj_crkbd_rev1_tensotha_helios/lib/chibios/os/hal/ports/RP/LLD/DMAv1/rp_dma.o (symbol from plugin)
dmaChannelFreeI                                   .build/obj_crkbd_rev1_tensotha_helios/lib/chibios/os/hal/ports/RP/LLD/DMAv1/rp_dma.o (symbol from plugin)
                                                  .build/obj_crkbd_rev1_tensotha_helios/lib/chibios/os/hal/ports/RP/LLD/SPIv1/hal_spi_lld.o (symbol from plugin)
dmaInit                                           .build/obj_crkbd_rev1_tensotha_helios/lib/chibios/os/hal/ports/RP/LLD/DMAv1/rp_dma.o (symbol from plugin)
                                                  .build/obj_crkbd_rev1_tensotha_helios/lib/chibios/os/hal/ports/RP/RP2040/hal_lld.o (symbol from plugin)
do_code16                                         .build/obj_crkbd_rev1_tensotha_helios/quantum/quantum.o (symbol from plugin)
early_hardware_init_post                          .build/obj_crkbd_rev1_tensotha_helios/protocol/chibios/chibios.o (symbol from plugin)
early_hardware_init_pre                           .build/obj_crkbd_rev1_tensotha_helios/protocol/chibios/chibios.o (symbol from plugin)
eeconfig.c.17891fdf                               /var/folders/01/r6qc96lx1x7c0h1529l70j5m0000gn/T//ccZ3h3t9debugobj
                                                  /var/folders/01/r6qc96lx1x7c0h1529l70j5m0000gn/T//ccqg8YyW.ltrans0.ltrans.o
eeconfig_debug_rgblight                           .build/obj_crkbd_rev1_tensotha_helios/quantum/rgblight/rgblight.o (symbol from plugin)
eeconfig_disable                                  .build/obj_crkbd_rev1_tensotha_helios/quantum/eeconfig.o (symbol from plugin)
                                                  .build/obj_crkbd_rev1_tensotha_helios/quantum/bootmagic/bootmagic.o (symbol from plugin)
                                                  .build/obj_crkbd_rev1_tensotha_helios/quantum/quantum.o (symbol from plugin)
eeconfig_enable                                   .build/obj_crkbd_rev1_tensotha_helios/quantum/eeconfig.o (symbol from plugin)
eeconfig_init                                     .build/obj_crkbd_rev1_tensotha_helios/quantum/eeconfig.o (symbol from plugin)
                                                  .build/obj_crkbd_rev1_tensotha_helios/quantum/keyboard.o (symbol from plugin)
eeconfig_init_kb                                  .build/obj_crkbd_rev1_tensotha_helios/quantum/eeconfig.o (symbol from plugin)
eeconfig_init_quantum                             .build/obj_crkbd_rev1_tensotha_helios/quantum/eeconfig.o (symbol from plugin)
eeconfig_init_user                                .build/obj_crkbd_rev1_tensotha_helios/quantum/eeconfig.o (symbol from plugin)
eeconfig_is_disabled                              .build/obj_crkbd_rev1_tensotha_helios/quantum/eeconfig.o (symbol from plugin)
eeconfig_is_enabled                               .build/obj_crkbd_rev1_tensotha_helios/quantum/eeconfig.o (symbol from plugin)
                                                  .build/obj_crkbd_rev1_tensotha_helios/quantum/keyboard.o (symbol from plugin)
eeconfig_read_audio                               .build/obj_crkbd_rev1_tensotha_helios/quantum/eeconfig.o (symbol from plugin)
eeconfig_read_debug                               .build/obj_crkbd_rev1_tensotha_helios/quantum/eeconfig.o (symbol from plugin)
                                                  .build/obj_crkbd_rev1_tensotha_helios/quantum/keyboard.o (symbol from plugin)
eeconfig_read_default_layer                       .build/obj_crkbd_rev1_tensotha_helios/quantum/eeconfig.o (symbol from plugin)
                                                  .build/obj_crkbd_rev1_tensotha_helios/quantum/keyboard.o (symbol from plugin)
eeconfig_read_handedness                          .build/obj_crkbd_rev1_tensotha_helios/quantum/eeconfig.o (symbol from plugin)
eeconfig_read_haptic                              .build/obj_crkbd_rev1_tensotha_helios/quantum/eeconfig.o (symbol from plugin)
eeconfig_read_kb                                  .build/obj_crkbd_rev1_tensotha_helios/quantum/eeconfig.o (symbol from plugin)
eeconfig_read_keymap                              .build/obj_crkbd_rev1_tensotha_helios/quantum/eeconfig.o (symbol from plugin)
                                                  .build/obj_crkbd_rev1_tensotha_helios/quantum/process_keycode/process_magic.o (symbol from plugin)
                                                  .build/obj_crkbd_rev1_tensotha_helios/quantum/keyboard.o (symbol from plugin)
eeconfig_read_rgblight                            .build/obj_crkbd_rev1_tensotha_helios/quantum/rgblight/rgblight.o (symbol from plugin)
eeconfig_read_user                                .build/obj_crkbd_rev1_tensotha_helios/quantum/eeconfig.o (symbol from plugin)
eeconfig_update_audio                             .build/obj_crkbd_rev1_tensotha_helios/quantum/eeconfig.o (symbol from plugin)
eeconfig_update_debug                             .build/obj_crkbd_rev1_tensotha_helios/quantum/eeconfig.o (symbol from plugin)
eeconfig_update_default_layer                     .build/obj_crkbd_rev1_tensotha_helios/quantum/eeconfig.o (symbol from plugin)
                                                  .build/obj_crkbd_rev1_tensotha_helios/quantum/quantum.o (symbol from plugin)
eeconfig_update_handedness                        .build/obj_crkbd_rev1_tensotha_helios/quantum/eeconfig.o (symbol from plugin)
                                                  .build/obj_crkbd_rev1_tensotha_helios/quantum/process_keycode/process_magic.o (symbol from plugin)
eeconfig_update_haptic                            .build/obj_crkbd_rev1_tensotha_helios/quantum/eeconfig.o (symbol from plugin)
eeconfig_update_kb                                .build/obj_crkbd_rev1_tensotha_helios/quantum/eeconfig.o (symbol from plugin)
eeconfig_update_keymap                            .build/obj_crkbd_rev1_tensotha_helios/quantum/eeconfig.o (symbol from plugin)
                                                  .build/obj_crkbd_rev1_tensotha_helios/quantum/process_keycode/process_magic.o (symbol from plugin)
                                                  .build/obj_crkbd_rev1_tensotha_helios/quantum/action_util.o (symbol from plugin)
eeconfig_update_rgblight                          .build/obj_crkbd_rev1_tensotha_helios/quantum/rgblight/rgblight.o (symbol from plugin)
eeconfig_update_rgblight_current                  .build/obj_crkbd_rev1_tensotha_helios/quantum/rgblight/rgblight.o (symbol from plugin)
eeconfig_update_rgblight_default                  .build/obj_crkbd_rev1_tensotha_helios/quantum/rgblight/rgblight.o (symbol from plugin)
eeconfig_update_user                              .build/obj_crkbd_rev1_tensotha_helios/quantum/eeconfig.o (symbol from plugin)
eeprom_driver.c.16724f40                          /var/folders/01/r6qc96lx1x7c0h1529l70j5m0000gn/T//ccZ3h3t9debugobj
                                                  /var/folders/01/r6qc96lx1x7c0h1529l70j5m0000gn/T//ccqg8YyW.ltrans0.ltrans.o
eeprom_driver_erase                               .build/obj_crkbd_rev1_tensotha_helios/eeprom_wear_leveling.o (symbol from plugin)
                                                  .build/obj_crkbd_rev1_tensotha_helios/eeprom_driver.o (symbol from plugin)
eeprom_driver_format                              .build/obj_crkbd_rev1_tensotha_helios/eeprom_wear_leveling.o (symbol from plugin)
                                                  .build/obj_crkbd_rev1_tensotha_helios/eeprom_driver.o (symbol from plugin)
                                                  .build/obj_crkbd_rev1_tensotha_helios/quantum/eeconfig.o (symbol from plugin)
eeprom_driver_init                                .build/obj_crkbd_rev1_tensotha_helios/eeprom_wear_leveling.o (symbol from plugin)
                                                  .build/obj_crkbd_rev1_tensotha_helios/quantum/keyboard.o (symbol from plugin)
eeprom_read_block                                 .build/obj_crkbd_rev1_tensotha_helios/eeprom_wear_leveling.o (symbol from plugin)
                                                  .build/obj_crkbd_rev1_tensotha_helios/eeprom_driver.o (symbol from plugin)
eeprom_read_byte                                  .build/obj_crkbd_rev1_tensotha_helios/eeprom_driver.o (symbol from plugin)
                                                  .build/obj_crkbd_rev1_tensotha_helios/quantum/rgblight/rgblight.o (symbol from plugin)
                                                  .build/obj_crkbd_rev1_tensotha_helios/quantum/eeconfig.o (symbol from plugin)
eeprom_read_dword                                 .build/obj_crkbd_rev1_tensotha_helios/eeprom_driver.o (symbol from plugin)
                                                  .build/obj_crkbd_rev1_tensotha_helios/quantum/rgblight/rgblight.o (symbol from plugin)
                                                  .build/obj_crkbd_rev1_tensotha_helios/quantum/eeconfig.o (symbol from plugin)
eeprom_read_word                                  .build/obj_crkbd_rev1_tensotha_helios/eeprom_driver.o (symbol from plugin)
                                                  .build/obj_crkbd_rev1_tensotha_helios/quantum/eeconfig.o (symbol from plugin)
eeprom_update_block                               .build/obj_crkbd_rev1_tensotha_helios/eeprom_driver.o (symbol from plugin)
                                                  .build/obj_crkbd_rev1_tensotha_helios/quantum/eeconfig.o (symbol from plugin)
eeprom_update_byte                                .build/obj_crkbd_rev1_tensotha_helios/eeprom_driver.o (symbol from plugin)
                                                  .build/obj_crkbd_rev1_tensotha_helios/quantum/rgblight/rgblight.o (symbol from plugin)
                                                  .build/obj_crkbd_rev1_tensotha_helios/quantum/eeconfig.o (symbol from plugin)
eeprom_update_dword                               .build/obj_crkbd_rev1_tensotha_helios/eeprom_driver.o (symbol from plugin)
                                                  .build/obj_crkbd_rev1_tensotha_helios/quantum/rgblight/rgblight.o (symbol from plugin)
                                                  .build/obj_crkbd_rev1_tensotha_helios/quantum/eeconfig.o (symbol from plugin)
eeprom_update_word                                .build/obj_crkbd_rev1_tensotha_helios/eeprom_driver.o (symbol from plugin)
                                                  .build/obj_crkbd_rev1_tensotha_helios/quantum/eeconfig.o (symbol from plugin)
eeprom_wear_leveling.c.151a2d8f                   /var/folders/01/r6qc96lx1x7c0h1529l70j5m0000gn/T//ccZ3h3t9debugobj
                                                  /var/folders/01/r6qc96lx1x7c0h1529l70j5m0000gn/T//ccqg8YyW.ltrans0.ltrans.o
eeprom_write_block                                .build/obj_crkbd_rev1_tensotha_helios/eeprom_wear_leveling.o (symbol from plugin)
                                                  .build/obj_crkbd_rev1_tensotha_helios/eeprom_driver.o (symbol from plugin)
eeprom_write_byte                                 .build/obj_crkbd_rev1_tensotha_helios/eeprom_driver.o (symbol from plugin)
eeprom_write_dword                                .build/obj_crkbd_rev1_tensotha_helios/eeprom_driver.o (symbol from plugin)
eeprom_write_word                                 .build/obj_crkbd_rev1_tensotha_helios/eeprom_driver.o (symbol from plugin)
enter_bootloader_mode_if_requested                .build/obj_crkbd_rev1_tensotha_helios/platforms/chibios/bootloaders/rp2040.o (symbol from plugin)
errno                                             /opt/homebrew/Cellar/arm-none-eabi-gcc@8/8.5.0_2/lib/arm-none-eabi-gcc/8/gcc/arm-none-eabi/8.5.0/../../../../../../arm-none-eabi/lib/thumb/v6-m/nofp/libg_nano.a(lib_a-reent.o)
                                                  /opt/homebrew/Cellar/arm-none-eabi-gcc@8/8.5.0_2/lib/arm-none-eabi-gcc/8/gcc/arm-none-eabi/8.5.0/../../../../../../arm-none-eabi/lib/thumb/v6-m/nofp/libg_nano.a(lib_a-signalr.o)
event_queue                                       .build/obj_crkbd_rev1_tensotha_helios/protocol/chibios/usb_main.o (symbol from plugin)
event_queue_head                                  .build/obj_crkbd_rev1_tensotha_helios/protocol/chibios/usb_main.o (symbol from plugin)
event_queue_tail                                  .build/obj_crkbd_rev1_tensotha_helios/protocol/chibios/usb_main.o (symbol from plugin)
extract_mod_bits                                  .build/obj_crkbd_rev1_tensotha_helios/quantum/quantum.o (symbol from plugin)
fctprintf                                         .build/obj_crkbd_rev1_tensotha_helios/printf.o (symbol from plugin)
fflush                                            /opt/homebrew/Cellar/arm-none-eabi-gcc@8/8.5.0_2/lib/arm-none-eabi-gcc/8/gcc/arm-none-eabi/8.5.0/../../../../../../arm-none-eabi/lib/thumb/v6-m/nofp/libg_nano.a(lib_a-fflush.o)
fiprintf                                          /opt/homebrew/Cellar/arm-none-eabi-gcc@8/8.5.0_2/lib/arm-none-eabi-gcc/8/gcc/arm-none-eabi/8.5.0/../../../../../../arm-none-eabi/lib/thumb/v6-m/nofp/libg_nano.a(lib_a-fprintf.o)
                                                  /opt/homebrew/Cellar/arm-none-eabi-gcc@8/8.5.0_2/lib/arm-none-eabi-gcc/8/gcc/arm-none-eabi/8.5.0/../../../../../../arm-none-eabi/lib/thumb/v6-m/nofp/libg_nano.a(lib_a-assert.o)
flash.c.fb2e32e9                                  /var/folders/01/r6qc96lx1x7c0h1529l70j5m0000gn/T//ccZ3h3t9debugobj
                                                  /var/folders/01/r6qc96lx1x7c0h1529l70j5m0000gn/T//ccqg8YyW.ltrans0.ltrans.o
flashGetAddressOffset                             .build/obj_crkbd_rev1_tensotha_helios/lib/chibios/os/hal/src/hal_flash.o (symbol from plugin)
flashGetOffsetAddress                             .build/obj_crkbd_rev1_tensotha_helios/lib/chibios/os/hal/src/hal_flash.o (symbol from plugin)
flashGetOffsetSector                              .build/obj_crkbd_rev1_tensotha_helios/lib/chibios/os/hal/src/hal_flash.o (symbol from plugin)
flashGetSectorOffset                              .build/obj_crkbd_rev1_tensotha_helios/lib/chibios/os/hal/src/hal_flash.o (symbol from plugin)
flashGetSectorSize                                .build/obj_crkbd_rev1_tensotha_helios/lib/chibios/os/hal/src/hal_flash.o (symbol from plugin)
flashWaitErase                                    .build/obj_crkbd_rev1_tensotha_helios/lib/chibios/os/hal/src/hal_flash.o (symbol from plugin)
flash_do_cmd                                      .build/obj_crkbd_rev1_tensotha_helios/./lib/pico-sdk/src/rp2_common/hardware_flash/flash.o (symbol from plugin)
flash_get_unique_id                               .build/obj_crkbd_rev1_tensotha_helios/./lib/pico-sdk/src/rp2_common/hardware_flash/flash.o (symbol from plugin)
                                                  .build/obj_crkbd_rev1_tensotha_helios/platforms/chibios/hardware_id.o (symbol from plugin)
flash_range_erase                                 .build/obj_crkbd_rev1_tensotha_helios/./lib/pico-sdk/src/rp2_common/hardware_flash/flash.o (symbol from plugin)
                                                  .build/obj_crkbd_rev1_tensotha_helios/wear_leveling_rp2040_flash.o (symbol from plugin)
flash_range_program                               .build/obj_crkbd_rev1_tensotha_helios/./lib/pico-sdk/src/rp2_common/hardware_flash/flash.o (symbol from plugin)
fnv_32a_buf                                       .build/obj_crkbd_rev1_tensotha_helios/hash_32a.o (symbol from plugin)
fnv_32a_str                                       .build/obj_crkbd_rev1_tensotha_helios/hash_32a.o (symbol from plugin)
fnv_64a_buf                                       .build/obj_crkbd_rev1_tensotha_helios/hash_64a.o (symbol from plugin)
                                                  .build/obj_crkbd_rev1_tensotha_helios/wear_leveling.o (symbol from plugin)
fnv_64a_str                                       .build/obj_crkbd_rev1_tensotha_helios/hash_64a.o (symbol from plugin)
font                                              .build/obj_crkbd_rev1_tensotha_helios/oled_driver.o (symbol from plugin)
fprintf                                           /opt/homebrew/Cellar/arm-none-eabi-gcc@8/8.5.0_2/lib/arm-none-eabi-gcc/8/gcc/arm-none-eabi/8.5.0/../../../../../../arm-none-eabi/lib/thumb/v6-m/nofp/libg_nano.a(lib_a-fprintf.o)
free                                              /opt/homebrew/Cellar/arm-none-eabi-gcc@8/8.5.0_2/lib/arm-none-eabi-gcc/8/gcc/arm-none-eabi/8.5.0/../../../../../../arm-none-eabi/lib/thumb/v6-m/nofp/libg_nano.a(lib_a-malloc.o)
frequency_count_khz                               .build/obj_crkbd_rev1_tensotha_helios/./lib/pico-sdk/src/rp2_common/hardware_clocks/clocks.o (symbol from plugin)
get_event_keycode                                 .build/obj_crkbd_rev1_tensotha_helios/quantum/quantum.o (symbol from plugin)
get_first_key                                     .build/obj_crkbd_rev1_tensotha_helios/protocol/report.o (symbol from plugin)
get_hardware_id                                   .build/obj_crkbd_rev1_tensotha_helios/platforms/chibios/hardware_id.o (symbol from plugin)
get_mods                                          .build/obj_crkbd_rev1_tensotha_helios/quantum/action_util.o (symbol from plugin)
                                                  .build/obj_crkbd_rev1_tensotha_helios/quantum/process_keycode/process_grave_esc.o (symbol from plugin)
                                                  .build/obj_crkbd_rev1_tensotha_helios/quantum/process_keycode/process_rgb.o (symbol from plugin)
get_numeric_str                                   .build/obj_crkbd_rev1_tensotha_helios/quantum/quantum.o (symbol from plugin)
get_oneshot_layer                                 .build/obj_crkbd_rev1_tensotha_helios/quantum/action_util.o (symbol from plugin)
                                                  .build/obj_crkbd_rev1_tensotha_helios/quantum/action.o (symbol from plugin)
get_oneshot_layer_state                           .build/obj_crkbd_rev1_tensotha_helios/quantum/action_util.o (symbol from plugin)
                                                  .build/obj_crkbd_rev1_tensotha_helios/quantum/action.o (symbol from plugin)
get_oneshot_locked_mods                           .build/obj_crkbd_rev1_tensotha_helios/quantum/action_util.o (symbol from plugin)
get_oneshot_mods                                  .build/obj_crkbd_rev1_tensotha_helios/quantum/action_util.o (symbol from plugin)
get_record_keycode                                .build/obj_crkbd_rev1_tensotha_helios/quantum/quantum.o (symbol from plugin)
get_u16_str                                       .build/obj_crkbd_rev1_tensotha_helios/quantum/quantum.o (symbol from plugin)
                                                  .build/obj_crkbd_rev1_tensotha_helios/keyboards/crkbd/crkbd.o (symbol from plugin)
get_u8_str                                        .build/obj_crkbd_rev1_tensotha_helios/quantum/quantum.o (symbol from plugin)
get_usb_descriptor                                .build/obj_crkbd_rev1_tensotha_helios/usb_descriptor.o (symbol from plugin)
                                                  .build/obj_crkbd_rev1_tensotha_helios/protocol/chibios/usb_main.o (symbol from plugin)
get_weak_mods                                     .build/obj_crkbd_rev1_tensotha_helios/quantum/action_util.o (symbol from plugin)
gnu_lto_v1                                        /var/folders/01/r6qc96lx1x7c0h1529l70j5m0000gn/T//ccZ3h3t9debugobj
gpio.c.91615e61                                   /var/folders/01/r6qc96lx1x7c0h1529l70j5m0000gn/T//ccZ3h3t9debugobj
                                                  /var/folders/01/r6qc96lx1x7c0h1529l70j5m0000gn/T//ccqg8YyW.ltrans0.ltrans.o
gpio_acknowledge_irq                              .build/obj_crkbd_rev1_tensotha_helios/./lib/pico-sdk/src/rp2_common/hardware_gpio/gpio.o (symbol from plugin)
gpio_add_raw_irq_handler_masked                   .build/obj_crkbd_rev1_tensotha_helios/./lib/pico-sdk/src/rp2_common/hardware_gpio/gpio.o (symbol from plugin)
gpio_add_raw_irq_handler_with_order_priority_masked .build/obj_crkbd_rev1_tensotha_helios/./lib/pico-sdk/src/rp2_common/hardware_gpio/gpio.o (symbol from plugin)
gpio_debug_pins_init                              .build/obj_crkbd_rev1_tensotha_helios/./lib/pico-sdk/src/rp2_common/hardware_gpio/gpio.o (symbol from plugin)
gpio_deinit                                       .build/obj_crkbd_rev1_tensotha_helios/./lib/pico-sdk/src/rp2_common/hardware_gpio/gpio.o (symbol from plugin)
gpio_get_drive_strength                           .build/obj_crkbd_rev1_tensotha_helios/./lib/pico-sdk/src/rp2_common/hardware_gpio/gpio.o (symbol from plugin)
gpio_get_function                                 .build/obj_crkbd_rev1_tensotha_helios/./lib/pico-sdk/src/rp2_common/hardware_gpio/gpio.o (symbol from plugin)
gpio_get_pad                                      .build/obj_crkbd_rev1_tensotha_helios/./lib/pico-sdk/src/rp2_common/hardware_gpio/gpio.o (symbol from plugin)
gpio_get_slew_rate                                .build/obj_crkbd_rev1_tensotha_helios/./lib/pico-sdk/src/rp2_common/hardware_gpio/gpio.o (symbol from plugin)
gpio_init                                         .build/obj_crkbd_rev1_tensotha_helios/./lib/pico-sdk/src/rp2_common/hardware_gpio/gpio.o (symbol from plugin)
gpio_init_mask                                    .build/obj_crkbd_rev1_tensotha_helios/./lib/pico-sdk/src/rp2_common/hardware_gpio/gpio.o (symbol from plugin)
gpio_is_input_hysteresis_enabled                  .build/obj_crkbd_rev1_tensotha_helios/./lib/pico-sdk/src/rp2_common/hardware_gpio/gpio.o (symbol from plugin)
gpio_remove_raw_irq_handler_masked                .build/obj_crkbd_rev1_tensotha_helios/./lib/pico-sdk/src/rp2_common/hardware_gpio/gpio.o (symbol from plugin)
gpio_set_dormant_irq_enabled                      .build/obj_crkbd_rev1_tensotha_helios/./lib/pico-sdk/src/rp2_common/hardware_gpio/gpio.o (symbol from plugin)
gpio_set_drive_strength                           /var/folders/01/r6qc96lx1x7c0h1529l70j5m0000gn/T//ccqg8YyW.ltrans0.ltrans.o
                                                  .build/obj_crkbd_rev1_tensotha_helios/./lib/pico-sdk/src/rp2_common/hardware_gpio/gpio.o (symbol from plugin)
                                                  .build/obj_crkbd_rev1_tensotha_helios/serial_vendor.a(serial_vendor.o)
gpio_set_function                                 .build/obj_crkbd_rev1_tensotha_helios/./lib/pico-sdk/src/rp2_common/hardware_gpio/gpio.o (symbol from plugin)
                                                  .build/obj_crkbd_rev1_tensotha_helios/./lib/pico-sdk/src/rp2_common/hardware_clocks/clocks.o (symbol from plugin)
gpio_set_inover                                   .build/obj_crkbd_rev1_tensotha_helios/./lib/pico-sdk/src/rp2_common/hardware_gpio/gpio.o (symbol from plugin)
gpio_set_input_enabled                            .build/obj_crkbd_rev1_tensotha_helios/./lib/pico-sdk/src/rp2_common/hardware_gpio/gpio.o (symbol from plugin)
gpio_set_input_hysteresis_enabled                 .build/obj_crkbd_rev1_tensotha_helios/./lib/pico-sdk/src/rp2_common/hardware_gpio/gpio.o (symbol from plugin)
gpio_set_irq_callback                             .build/obj_crkbd_rev1_tensotha_helios/./lib/pico-sdk/src/rp2_common/hardware_gpio/gpio.o (symbol from plugin)
gpio_set_irq_enabled                              .build/obj_crkbd_rev1_tensotha_helios/./lib/pico-sdk/src/rp2_common/hardware_gpio/gpio.o (symbol from plugin)
gpio_set_irq_enabled_with_callback                .build/obj_crkbd_rev1_tensotha_helios/./lib/pico-sdk/src/rp2_common/hardware_gpio/gpio.o (symbol from plugin)
gpio_set_irqover                                  .build/obj_crkbd_rev1_tensotha_helios/./lib/pico-sdk/src/rp2_common/hardware_gpio/gpio.o (symbol from plugin)
gpio_set_oeover                                   .build/obj_crkbd_rev1_tensotha_helios/./lib/pico-sdk/src/rp2_common/hardware_gpio/gpio.o (symbol from plugin)
gpio_set_outover                                  .build/obj_crkbd_rev1_tensotha_helios/./lib/pico-sdk/src/rp2_common/hardware_gpio/gpio.o (symbol from plugin)
gpio_set_pulls                                    .build/obj_crkbd_rev1_tensotha_helios/./lib/pico-sdk/src/rp2_common/hardware_gpio/gpio.o (symbol from plugin)
gpio_set_slew_rate                                .build/obj_crkbd_rev1_tensotha_helios/./lib/pico-sdk/src/rp2_common/hardware_gpio/gpio.o (symbol from plugin)
hal.c.625ca6bc                                    /var/folders/01/r6qc96lx1x7c0h1529l70j5m0000gn/T//ccZ3h3t9debugobj
                                                  /var/folders/01/r6qc96lx1x7c0h1529l70j5m0000gn/T//ccqg8YyW.ltrans0.ltrans.o
halInit                                           .build/obj_crkbd_rev1_tensotha_helios/lib/chibios/os/hal/src/hal.o (symbol from plugin)
                                                  .build/obj_crkbd_rev1_tensotha_helios/platforms/chibios/platform.o (symbol from plugin)
hal_adc.c.acb82b1f                                /var/folders/01/r6qc96lx1x7c0h1529l70j5m0000gn/T//ccZ3h3t9debugobj
                                                  /var/folders/01/r6qc96lx1x7c0h1529l70j5m0000gn/T//ccqg8YyW.ltrans0.ltrans.o
hal_adc_lld.c.100b0957                            /var/folders/01/r6qc96lx1x7c0h1529l70j5m0000gn/T//ccZ3h3t9debugobj
                                                  /var/folders/01/r6qc96lx1x7c0h1529l70j5m0000gn/T//ccqg8YyW.ltrans0.ltrans.o
hal_buffers.c.29828aea                            /var/folders/01/r6qc96lx1x7c0h1529l70j5m0000gn/T//ccZ3h3t9debugobj
                                                  /var/folders/01/r6qc96lx1x7c0h1529l70j5m0000gn/T//ccqg8YyW.ltrans0.ltrans.o
hal_can.c.8e68540e                                /var/folders/01/r6qc96lx1x7c0h1529l70j5m0000gn/T//ccZ3h3t9debugobj
hal_crypto.c.42d02558                             /var/folders/01/r6qc96lx1x7c0h1529l70j5m0000gn/T//ccZ3h3t9debugobj
hal_dac.c.8db84e73                                /var/folders/01/r6qc96lx1x7c0h1529l70j5m0000gn/T//ccZ3h3t9debugobj
hal_efl.c.24ab20bf                                /var/folders/01/r6qc96lx1x7c0h1529l70j5m0000gn/T//ccZ3h3t9debugobj
hal_flash.c.52f4dddf                              /var/folders/01/r6qc96lx1x7c0h1529l70j5m0000gn/T//ccZ3h3t9debugobj
hal_gpt.c.53ece448                                /var/folders/01/r6qc96lx1x7c0h1529l70j5m0000gn/T//ccZ3h3t9debugobj
hal_i2c.c.fed4aaaf                                /var/folders/01/r6qc96lx1x7c0h1529l70j5m0000gn/T//ccZ3h3t9debugobj
                                                  /var/folders/01/r6qc96lx1x7c0h1529l70j5m0000gn/T//ccqg8YyW.ltrans0.ltrans.o
hal_i2c_lld.c.73635c84                            /var/folders/01/r6qc96lx1x7c0h1529l70j5m0000gn/T//ccZ3h3t9debugobj
                                                  /var/folders/01/r6qc96lx1x7c0h1529l70j5m0000gn/T//ccqg8YyW.ltrans0.ltrans.o
hal_i2s.c.0ba96cfd                                /var/folders/01/r6qc96lx1x7c0h1529l70j5m0000gn/T//ccZ3h3t9debugobj
hal_icu.c.40610ec3                                /var/folders/01/r6qc96lx1x7c0h1529l70j5m0000gn/T//ccZ3h3t9debugobj
hal_lld.c.9629d7c9                                /var/folders/01/r6qc96lx1x7c0h1529l70j5m0000gn/T//ccZ3h3t9debugobj
                                                  /var/folders/01/r6qc96lx1x7c0h1529l70j5m0000gn/T//ccqg8YyW.ltrans0.ltrans.o
hal_lld_init                                      .build/obj_crkbd_rev1_tensotha_helios/lib/chibios/os/hal/ports/RP/RP2040/hal_lld.o (symbol from plugin)
                                                  .build/obj_crkbd_rev1_tensotha_helios/lib/chibios/os/hal/src/hal.o (symbol from plugin)
hal_mac.c.a61854d7                                /var/folders/01/r6qc96lx1x7c0h1529l70j5m0000gn/T//ccZ3h3t9debugobj
hal_mmc_spi.c.a38b2f35                            /var/folders/01/r6qc96lx1x7c0h1529l70j5m0000gn/T//ccZ3h3t9debugobj
hal_mmcsd.c.e317a049                              /var/folders/01/r6qc96lx1x7c0h1529l70j5m0000gn/T//ccZ3h3t9debugobj
hal_pal.c.db925787                                /var/folders/01/r6qc96lx1x7c0h1529l70j5m0000gn/T//ccZ3h3t9debugobj
                                                  /var/folders/01/r6qc96lx1x7c0h1529l70j5m0000gn/T//ccqg8YyW.ltrans0.ltrans.o
hal_pal_lld.c.787e79c7                            /var/folders/01/r6qc96lx1x7c0h1529l70j5m0000gn/T//ccZ3h3t9debugobj
                                                  /var/folders/01/r6qc96lx1x7c0h1529l70j5m0000gn/T//ccqg8YyW.ltrans0.ltrans.o
hal_pwm.c.30081182                                /var/folders/01/r6qc96lx1x7c0h1529l70j5m0000gn/T//ccZ3h3t9debugobj
hal_pwm_lld.c.fcf3ced8                            /var/folders/01/r6qc96lx1x7c0h1529l70j5m0000gn/T//ccZ3h3t9debugobj
hal_queues.c.5467607c                             /var/folders/01/r6qc96lx1x7c0h1529l70j5m0000gn/T//ccZ3h3t9debugobj
hal_rtc.c.ce6c78b7                                /var/folders/01/r6qc96lx1x7c0h1529l70j5m0000gn/T//ccZ3h3t9debugobj
hal_rtc_lld.c.48dda4b7                            /var/folders/01/r6qc96lx1x7c0h1529l70j5m0000gn/T//ccZ3h3t9debugobj
hal_sdc.c.f5f0ec59                                /var/folders/01/r6qc96lx1x7c0h1529l70j5m0000gn/T//ccZ3h3t9debugobj
hal_serial.c.0caaa773                             /var/folders/01/r6qc96lx1x7c0h1529l70j5m0000gn/T//ccZ3h3t9debugobj
hal_serial_usb.c.7f215dd5                         /var/folders/01/r6qc96lx1x7c0h1529l70j5m0000gn/T//ccZ3h3t9debugobj
hal_sio.c.f0ee10a7                                /var/folders/01/r6qc96lx1x7c0h1529l70j5m0000gn/T//ccZ3h3t9debugobj
hal_sio_lld.c.eb157434                            /var/folders/01/r6qc96lx1x7c0h1529l70j5m0000gn/T//ccZ3h3t9debugobj
hal_spi.c.290e7b7a                                /var/folders/01/r6qc96lx1x7c0h1529l70j5m0000gn/T//ccZ3h3t9debugobj
                                                  /var/folders/01/r6qc96lx1x7c0h1529l70j5m0000gn/T//ccqg8YyW.ltrans0.ltrans.o
hal_spi_lld.c.420398a5                            /var/folders/01/r6qc96lx1x7c0h1529l70j5m0000gn/T//ccZ3h3t9debugobj
                                                  /var/folders/01/r6qc96lx1x7c0h1529l70j5m0000gn/T//ccqg8YyW.ltrans0.ltrans.o
hal_st.c.829931c0                                 /var/folders/01/r6qc96lx1x7c0h1529l70j5m0000gn/T//ccZ3h3t9debugobj
                                                  /var/folders/01/r6qc96lx1x7c0h1529l70j5m0000gn/T//ccqg8YyW.ltrans0.ltrans.o
hal_st_lld.c.c5fdbbe2                             /var/folders/01/r6qc96lx1x7c0h1529l70j5m0000gn/T//ccZ3h3t9debugobj
                                                  /var/folders/01/r6qc96lx1x7c0h1529l70j5m0000gn/T//ccqg8YyW.ltrans0.ltrans.o
hal_trng.c.991ac94f                               /var/folders/01/r6qc96lx1x7c0h1529l70j5m0000gn/T//ccZ3h3t9debugobj
hal_uart.c.f5414218                               /var/folders/01/r6qc96lx1x7c0h1529l70j5m0000gn/T//ccZ3h3t9debugobj
hal_usb.c.60a64493                                /var/folders/01/r6qc96lx1x7c0h1529l70j5m0000gn/T//ccZ3h3t9debugobj
                                                  /var/folders/01/r6qc96lx1x7c0h1529l70j5m0000gn/T//ccqg8YyW.ltrans0.ltrans.o
hal_usb_lld.c.9f85f64e                            /var/folders/01/r6qc96lx1x7c0h1529l70j5m0000gn/T//ccZ3h3t9debugobj
                                                  /var/folders/01/r6qc96lx1x7c0h1529l70j5m0000gn/T//ccqg8YyW.ltrans0.ltrans.o
hal_wdg.c.cf23e185                                /var/folders/01/r6qc96lx1x7c0h1529l70j5m0000gn/T//ccZ3h3t9debugobj
hal_wdg_lld.c.9d91aded                            /var/folders/01/r6qc96lx1x7c0h1529l70j5m0000gn/T//ccZ3h3t9debugobj
hal_wspi.c.b5d3671a                               /var/folders/01/r6qc96lx1x7c0h1529l70j5m0000gn/T//ccZ3h3t9debugobj
hard_assertion_failure                            .build/obj_crkbd_rev1_tensotha_helios/platforms/chibios/vendors/RP/pico_sdk_shims.o (symbol from plugin)
                                                  .build/obj_crkbd_rev1_tensotha_helios/./lib/pico-sdk/src/rp2_common/hardware_gpio/gpio.o (symbol from plugin)
                                                  .build/obj_crkbd_rev1_tensotha_helios/./lib/pico-sdk/src/rp2_common/hardware_flash/flash.o (symbol from plugin)
hardware_alarm_cancel                             .build/obj_crkbd_rev1_tensotha_helios/./lib/pico-sdk/src/rp2_common/hardware_timer/timer.o (symbol from plugin)
hardware_alarm_claim                              .build/obj_crkbd_rev1_tensotha_helios/./lib/pico-sdk/src/rp2_common/hardware_timer/timer.o (symbol from plugin)
hardware_alarm_claim_unused                       .build/obj_crkbd_rev1_tensotha_helios/./lib/pico-sdk/src/rp2_common/hardware_timer/timer.o (symbol from plugin)
hardware_alarm_force_irq                          .build/obj_crkbd_rev1_tensotha_helios/./lib/pico-sdk/src/rp2_common/hardware_timer/timer.o (symbol from plugin)
hardware_alarm_is_claimed                         .build/obj_crkbd_rev1_tensotha_helios/./lib/pico-sdk/src/rp2_common/hardware_timer/timer.o (symbol from plugin)
hardware_alarm_set_callback                       .build/obj_crkbd_rev1_tensotha_helios/./lib/pico-sdk/src/rp2_common/hardware_timer/timer.o (symbol from plugin)
hardware_alarm_set_target                         .build/obj_crkbd_rev1_tensotha_helios/./lib/pico-sdk/src/rp2_common/hardware_timer/timer.o (symbol from plugin)
hardware_alarm_unclaim                            .build/obj_crkbd_rev1_tensotha_helios/./lib/pico-sdk/src/rp2_common/hardware_timer/timer.o (symbol from plugin)
hardware_id.c.c74404d1                            /var/folders/01/r6qc96lx1x7c0h1529l70j5m0000gn/T//ccZ3h3t9debugobj
has_anykey                                        .build/obj_crkbd_rev1_tensotha_helios/protocol/report.o (symbol from plugin)
                                                  .build/obj_crkbd_rev1_tensotha_helios/quantum/action_util.o (symbol from plugin)
has_anymod                                        .build/obj_crkbd_rev1_tensotha_helios/quantum/action_util.o (symbol from plugin)
has_mouse_report_changed                          .build/obj_crkbd_rev1_tensotha_helios/protocol/report.o (symbol from plugin)
                                                  .build/obj_crkbd_rev1_tensotha_helios/quantum/mousekey.o (symbol from plugin)
has_oneshot_mods_timed_out                        .build/obj_crkbd_rev1_tensotha_helios/quantum/action_util.o (symbol from plugin)
hash_32a.c.e5ce85d5                               /var/folders/01/r6qc96lx1x7c0h1529l70j5m0000gn/T//ccZ3h3t9debugobj
hash_64a.c.3c6ae467                               /var/folders/01/r6qc96lx1x7c0h1529l70j5m0000gn/T//ccZ3h3t9debugobj
                                                  /var/folders/01/r6qc96lx1x7c0h1529l70j5m0000gn/T//ccqg8YyW.ltrans0.ltrans.o
host.c.50c85ce0                                   /var/folders/01/r6qc96lx1x7c0h1529l70j5m0000gn/T//ccZ3h3t9debugobj
                                                  /var/folders/01/r6qc96lx1x7c0h1529l70j5m0000gn/T//ccqg8YyW.ltrans0.ltrans.o
host_consumer_send                                .build/obj_crkbd_rev1_tensotha_helios/protocol/host.o (symbol from plugin)
                                                  .build/obj_crkbd_rev1_tensotha_helios/platforms/chibios/suspend.o (symbol from plugin)
                                                  .build/obj_crkbd_rev1_tensotha_helios/quantum/action.o (symbol from plugin)
host_get_driver                                   .build/obj_crkbd_rev1_tensotha_helios/protocol/host.o (symbol from plugin)
host_keyboard_led_state                           .build/obj_crkbd_rev1_tensotha_helios/protocol/host.o (symbol from plugin)
host_keyboard_leds                                .build/obj_crkbd_rev1_tensotha_helios/protocol/host.o (symbol from plugin)
                                                  .build/obj_crkbd_rev1_tensotha_helios/quantum/action.o (symbol from plugin)
                                                  .build/obj_crkbd_rev1_tensotha_helios/quantum/led.o (symbol from plugin)
host_keyboard_send                                .build/obj_crkbd_rev1_tensotha_helios/protocol/host.o (symbol from plugin)
                                                  .build/obj_crkbd_rev1_tensotha_helios/quantum/action_util.o (symbol from plugin)
host_last_consumer_usage                          .build/obj_crkbd_rev1_tensotha_helios/protocol/host.o (symbol from plugin)
host_last_system_usage                            .build/obj_crkbd_rev1_tensotha_helios/protocol/host.o (symbol from plugin)
host_mouse_send                                   .build/obj_crkbd_rev1_tensotha_helios/protocol/host.o (symbol from plugin)
                                                  .build/obj_crkbd_rev1_tensotha_helios/quantum/mousekey.o (symbol from plugin)
host_nkro_send                                    .build/obj_crkbd_rev1_tensotha_helios/protocol/host.o (symbol from plugin)
                                                  .build/obj_crkbd_rev1_tensotha_helios/quantum/action_util.o (symbol from plugin)
host_set_driver                                   .build/obj_crkbd_rev1_tensotha_helios/protocol/host.o (symbol from plugin)
                                                  .build/obj_crkbd_rev1_tensotha_helios/protocol/chibios/chibios.o (symbol from plugin)
host_system_send                                  .build/obj_crkbd_rev1_tensotha_helios/protocol/host.o (symbol from plugin)
                                                  .build/obj_crkbd_rev1_tensotha_helios/platforms/chibios/suspend.o (symbol from plugin)
                                                  .build/obj_crkbd_rev1_tensotha_helios/quantum/action.o (symbol from plugin)
housekeeping_task                                 .build/obj_crkbd_rev1_tensotha_helios/quantum/keyboard.o (symbol from plugin)
                                                  .build/obj_crkbd_rev1_tensotha_helios/quantum/main.o (symbol from plugin)
housekeeping_task_kb                              .build/obj_crkbd_rev1_tensotha_helios/quantum/keyboard.o (symbol from plugin)
housekeeping_task_user                            .build/obj_crkbd_rev1_tensotha_helios/quantum/keyboard.o (symbol from plugin)
hsv_to_rgb                                        .build/obj_crkbd_rev1_tensotha_helios/quantum/color.o (symbol from plugin)
                                                  .build/obj_crkbd_rev1_tensotha_helios/quantum/rgblight/rgblight.o (symbol from plugin)
hsv_to_rgb_impl                                   .build/obj_crkbd_rev1_tensotha_helios/quantum/color.o (symbol from plugin)
hsv_to_rgb_nocie                                  .build/obj_crkbd_rev1_tensotha_helios/quantum/color.o (symbol from plugin)
hw_claim_clear                                    .build/obj_crkbd_rev1_tensotha_helios/./lib/pico-sdk/src/rp2_common/hardware_claim/claim.o (symbol from plugin)
                                                  .build/obj_crkbd_rev1_tensotha_helios/./lib/pico-sdk/src/rp2_common/hardware_timer/timer.o (symbol from plugin)
                                                  .build/obj_crkbd_rev1_tensotha_helios/./lib/pico-sdk/src/rp2_common/hardware_pio/pio.o (symbol from plugin)
hw_claim_lock                                     .build/obj_crkbd_rev1_tensotha_helios/./lib/pico-sdk/src/rp2_common/hardware_claim/claim.o (symbol from plugin)
                                                  .build/obj_crkbd_rev1_tensotha_helios/./lib/pico-sdk/src/rp2_common/hardware_pio/pio.o (symbol from plugin)
hw_claim_or_assert                                .build/obj_crkbd_rev1_tensotha_helios/./lib/pico-sdk/src/rp2_common/hardware_claim/claim.o (symbol from plugin)
                                                  .build/obj_crkbd_rev1_tensotha_helios/./lib/pico-sdk/src/rp2_common/hardware_timer/timer.o (symbol from plugin)
                                                  .build/obj_crkbd_rev1_tensotha_helios/./lib/pico-sdk/src/rp2_common/hardware_pio/pio.o (symbol from plugin)
hw_claim_unlock                                   .build/obj_crkbd_rev1_tensotha_helios/./lib/pico-sdk/src/rp2_common/hardware_claim/claim.o (symbol from plugin)
                                                  .build/obj_crkbd_rev1_tensotha_helios/./lib/pico-sdk/src/rp2_common/hardware_pio/pio.o (symbol from plugin)
hw_claim_unused_from_range                        .build/obj_crkbd_rev1_tensotha_helios/./lib/pico-sdk/src/rp2_common/hardware_claim/claim.o (symbol from plugin)
                                                  .build/obj_crkbd_rev1_tensotha_helios/./lib/pico-sdk/src/rp2_common/hardware_timer/timer.o (symbol from plugin)
                                                  .build/obj_crkbd_rev1_tensotha_helios/./lib/pico-sdk/src/rp2_common/hardware_pio/pio.o (symbol from plugin)
hw_is_claimed                                     .build/obj_crkbd_rev1_tensotha_helios/./lib/pico-sdk/src/rp2_common/hardware_claim/claim.o (symbol from plugin)
                                                  .build/obj_crkbd_rev1_tensotha_helios/./lib/pico-sdk/src/rp2_common/hardware_timer/timer.o (symbol from plugin)
                                                  .build/obj_crkbd_rev1_tensotha_helios/./lib/pico-sdk/src/rp2_common/hardware_pio/pio.o (symbol from plugin)
i2cAcquireBus                                     .build/obj_crkbd_rev1_tensotha_helios/lib/chibios/os/hal/src/hal_i2c.o (symbol from plugin)
i2cGetErrors                                      .build/obj_crkbd_rev1_tensotha_helios/lib/chibios/os/hal/src/hal_i2c.o (symbol from plugin)
i2cInit                                           .build/obj_crkbd_rev1_tensotha_helios/lib/chibios/os/hal/src/hal_i2c.o (symbol from plugin)
                                                  .build/obj_crkbd_rev1_tensotha_helios/lib/chibios/os/hal/src/hal.o (symbol from plugin)
i2cMasterReceiveTimeout                           /var/folders/01/r6qc96lx1x7c0h1529l70j5m0000gn/T//ccqg8YyW.ltrans0.ltrans.o
                                                  .build/obj_crkbd_rev1_tensotha_helios/lib/chibios/os/hal/src/hal_i2c.o (symbol from plugin)
                                                  .build/obj_crkbd_rev1_tensotha_helios/i2c_master.a(i2c_master.o)
i2cMasterTransmitTimeout                          /var/folders/01/r6qc96lx1x7c0h1529l70j5m0000gn/T//ccqg8YyW.ltrans0.ltrans.o
                                                  .build/obj_crkbd_rev1_tensotha_helios/lib/chibios/os/hal/src/hal_i2c.o (symbol from plugin)
                                                  .build/obj_crkbd_rev1_tensotha_helios/i2c_master.a(i2c_master.o)
i2cObjectInit                                     .build/obj_crkbd_rev1_tensotha_helios/lib/chibios/os/hal/src/hal_i2c.o (symbol from plugin)
                                                  .build/obj_crkbd_rev1_tensotha_helios/lib/chibios-contrib/os/hal/ports/RP/LLD/I2Cv1/hal_i2c_lld.o (symbol from plugin)
i2cReleaseBus                                     .build/obj_crkbd_rev1_tensotha_helios/lib/chibios/os/hal/src/hal_i2c.o (symbol from plugin)
i2cStart                                          /var/folders/01/r6qc96lx1x7c0h1529l70j5m0000gn/T//ccqg8YyW.ltrans0.ltrans.o
                                                  .build/obj_crkbd_rev1_tensotha_helios/lib/chibios/os/hal/src/hal_i2c.o (symbol from plugin)
                                                  .build/obj_crkbd_rev1_tensotha_helios/i2c_master.a(i2c_master.o)
i2cStop                                           /var/folders/01/r6qc96lx1x7c0h1529l70j5m0000gn/T//ccqg8YyW.ltrans0.ltrans.o
                                                  .build/obj_crkbd_rev1_tensotha_helios/lib/chibios/os/hal/src/hal_i2c.o (symbol from plugin)
                                                  .build/obj_crkbd_rev1_tensotha_helios/i2c_master.a(i2c_master.o)
i2c_init                                          .build/obj_crkbd_rev1_tensotha_helios/i2c_master.a(i2c_master.o)
                                                  /var/folders/01/r6qc96lx1x7c0h1529l70j5m0000gn/T//ccqg8YyW.ltrans0.ltrans.o
                                                  .build/obj_crkbd_rev1_tensotha_helios/oled_driver.o (symbol from plugin)
i2c_lld_handle_errors                             .build/obj_crkbd_rev1_tensotha_helios/lib/chibios-contrib/os/hal/ports/RP/LLD/I2Cv1/hal_i2c_lld.o (symbol from plugin)
i2c_lld_init                                      .build/obj_crkbd_rev1_tensotha_helios/lib/chibios-contrib/os/hal/ports/RP/LLD/I2Cv1/hal_i2c_lld.o (symbol from plugin)
                                                  .build/obj_crkbd_rev1_tensotha_helios/lib/chibios/os/hal/src/hal_i2c.o (symbol from plugin)
i2c_lld_master_receive_timeout                    .build/obj_crkbd_rev1_tensotha_helios/lib/chibios-contrib/os/hal/ports/RP/LLD/I2Cv1/hal_i2c_lld.o (symbol from plugin)
                                                  .build/obj_crkbd_rev1_tensotha_helios/lib/chibios/os/hal/src/hal_i2c.o (symbol from plugin)
i2c_lld_master_transmit_timeout                   .build/obj_crkbd_rev1_tensotha_helios/lib/chibios-contrib/os/hal/ports/RP/LLD/I2Cv1/hal_i2c_lld.o (symbol from plugin)
                                                  .build/obj_crkbd_rev1_tensotha_helios/lib/chibios/os/hal/src/hal_i2c.o (symbol from plugin)
i2c_lld_start                                     .build/obj_crkbd_rev1_tensotha_helios/lib/chibios-contrib/os/hal/ports/RP/LLD/I2Cv1/hal_i2c_lld.o (symbol from plugin)
                                                  .build/obj_crkbd_rev1_tensotha_helios/lib/chibios/os/hal/src/hal_i2c.o (symbol from plugin)
i2c_lld_stop                                      .build/obj_crkbd_rev1_tensotha_helios/lib/chibios-contrib/os/hal/ports/RP/LLD/I2Cv1/hal_i2c_lld.o (symbol from plugin)
                                                  .build/obj_crkbd_rev1_tensotha_helios/lib/chibios/os/hal/src/hal_i2c.o (symbol from plugin)
i2c_ping_address                                  .build/obj_crkbd_rev1_tensotha_helios/i2c_master.a(i2c_master.o)
i2c_read_register                                 .build/obj_crkbd_rev1_tensotha_helios/i2c_master.a(i2c_master.o)
i2c_read_register16                               .build/obj_crkbd_rev1_tensotha_helios/i2c_master.a(i2c_master.o)
i2c_receive                                       .build/obj_crkbd_rev1_tensotha_helios/i2c_master.a(i2c_master.o)
i2c_transmit                                      .build/obj_crkbd_rev1_tensotha_helios/i2c_master.a(i2c_master.o)
                                                  /var/folders/01/r6qc96lx1x7c0h1529l70j5m0000gn/T//ccqg8YyW.ltrans0.ltrans.o
                                                  .build/obj_crkbd_rev1_tensotha_helios/oled_driver.o (symbol from plugin)
i2c_write_register                                .build/obj_crkbd_rev1_tensotha_helios/i2c_master.a(i2c_master.o)
                                                  /var/folders/01/r6qc96lx1x7c0h1529l70j5m0000gn/T//ccqg8YyW.ltrans0.ltrans.o
                                                  .build/obj_crkbd_rev1_tensotha_helios/oled_driver.o (symbol from plugin)
i2c_write_register16                              .build/obj_crkbd_rev1_tensotha_helios/i2c_master.a(i2c_master.o)
ibqGetEmptyBufferI                                .build/obj_crkbd_rev1_tensotha_helios/lib/chibios/os/hal/src/hal_buffers.o (symbol from plugin)
                                                  .build/obj_crkbd_rev1_tensotha_helios/protocol/chibios/usb_driver.o (symbol from plugin)
ibqGetFullBufferTimeout                           .build/obj_crkbd_rev1_tensotha_helios/lib/chibios/os/hal/src/hal_buffers.o (symbol from plugin)
ibqGetFullBufferTimeoutS                          .build/obj_crkbd_rev1_tensotha_helios/lib/chibios/os/hal/src/hal_buffers.o (symbol from plugin)
ibqGetTimeout                                     .build/obj_crkbd_rev1_tensotha_helios/lib/chibios/os/hal/src/hal_buffers.o (symbol from plugin)
ibqObjectInit                                     .build/obj_crkbd_rev1_tensotha_helios/lib/chibios/os/hal/src/hal_buffers.o (symbol from plugin)
                                                  .build/obj_crkbd_rev1_tensotha_helios/protocol/chibios/usb_driver.o (symbol from plugin)
ibqPostFullBufferI                                .build/obj_crkbd_rev1_tensotha_helios/lib/chibios/os/hal/src/hal_buffers.o (symbol from plugin)
                                                  .build/obj_crkbd_rev1_tensotha_helios/protocol/chibios/usb_driver.o (symbol from plugin)
ibqReadTimeout                                    .build/obj_crkbd_rev1_tensotha_helios/lib/chibios/os/hal/src/hal_buffers.o (symbol from plugin)
                                                  .build/obj_crkbd_rev1_tensotha_helios/protocol/chibios/usb_driver.o (symbol from plugin)
ibqReleaseEmptyBuffer                             .build/obj_crkbd_rev1_tensotha_helios/lib/chibios/os/hal/src/hal_buffers.o (symbol from plugin)
ibqReleaseEmptyBufferS                            .build/obj_crkbd_rev1_tensotha_helios/lib/chibios/os/hal/src/hal_buffers.o (symbol from plugin)
ibqResetI                                         .build/obj_crkbd_rev1_tensotha_helios/lib/chibios/os/hal/src/hal_buffers.o (symbol from plugin)
                                                  .build/obj_crkbd_rev1_tensotha_helios/protocol/chibios/usb_driver.o (symbol from plugin)
init_usb_driver                                   .build/obj_crkbd_rev1_tensotha_helios/protocol/chibios/usb_main.o (symbol from plugin)
                                                  .build/obj_crkbd_rev1_tensotha_helios/protocol/chibios/chibios.o (symbol from plugin)
interrupt_handlers.c.cad07ea9                     /var/folders/01/r6qc96lx1x7c0h1529l70j5m0000gn/T//ccZ3h3t9debugobj
iqGetI                                            .build/obj_crkbd_rev1_tensotha_helios/lib/chibios/os/hal/src/hal_queues.o (symbol from plugin)
iqGetTimeout                                      .build/obj_crkbd_rev1_tensotha_helios/lib/chibios/os/hal/src/hal_queues.o (symbol from plugin)
iqObjectInit                                      .build/obj_crkbd_rev1_tensotha_helios/lib/chibios/os/hal/src/hal_queues.o (symbol from plugin)
iqPutI                                            .build/obj_crkbd_rev1_tensotha_helios/lib/chibios/os/hal/src/hal_queues.o (symbol from plugin)
iqReadI                                           .build/obj_crkbd_rev1_tensotha_helios/lib/chibios/os/hal/src/hal_queues.o (symbol from plugin)
iqReadTimeout                                     .build/obj_crkbd_rev1_tensotha_helios/lib/chibios/os/hal/src/hal_queues.o (symbol from plugin)
iqResetI                                          .build/obj_crkbd_rev1_tensotha_helios/lib/chibios/os/hal/src/hal_queues.o (symbol from plugin)
irqDeinit                                         .build/obj_crkbd_rev1_tensotha_helios/lib/chibios/os/hal/ports/RP/RP2040/rp_isr.o (symbol from plugin)
irqInit                                           .build/obj_crkbd_rev1_tensotha_helios/lib/chibios/os/hal/ports/RP/RP2040/rp_isr.o (symbol from plugin)
                                                  .build/obj_crkbd_rev1_tensotha_helios/lib/chibios/os/hal/ports/RP/RP2040/hal_lld.o (symbol from plugin)
irq_add_shared_handler                            .build/obj_crkbd_rev1_tensotha_helios/./lib/pico-sdk/src/rp2_common/hardware_gpio/gpio.o (symbol from plugin)
irq_get_vtable_handler                            .build/obj_crkbd_rev1_tensotha_helios/./lib/pico-sdk/src/rp2_common/hardware_timer/timer.o (symbol from plugin)
irq_remove_handler                                .build/obj_crkbd_rev1_tensotha_helios/./lib/pico-sdk/src/rp2_common/hardware_gpio/gpio.o (symbol from plugin)
                                                  .build/obj_crkbd_rev1_tensotha_helios/./lib/pico-sdk/src/rp2_common/hardware_timer/timer.o (symbol from plugin)
irq_set_enabled                                   .build/obj_crkbd_rev1_tensotha_helios/./lib/pico-sdk/src/rp2_common/hardware_gpio/gpio.o (symbol from plugin)
                                                  .build/obj_crkbd_rev1_tensotha_helios/./lib/pico-sdk/src/rp2_common/hardware_timer/timer.o (symbol from plugin)
                                                  .build/obj_crkbd_rev1_tensotha_helios/./lib/pico-sdk/src/rp2_common/hardware_clocks/clocks.o (symbol from plugin)
irq_set_exclusive_handler                         .build/obj_crkbd_rev1_tensotha_helios/./lib/pico-sdk/src/rp2_common/hardware_timer/timer.o (symbol from plugin)
                                                  .build/obj_crkbd_rev1_tensotha_helios/./lib/pico-sdk/src/rp2_common/hardware_clocks/clocks.o (symbol from plugin)
isLeftHand                                        .build/obj_crkbd_rev1_tensotha_helios/quantum/split_common/split_util.o (symbol from plugin)
                                                  .build/obj_crkbd_rev1_tensotha_helios/quantum/matrix.o (symbol from plugin)
                                                  .build/obj_crkbd_rev1_tensotha_helios/quantum/matrix_common.o (symbol from plugin)
is_key_pressed                                    .build/obj_crkbd_rev1_tensotha_helios/protocol/report.o (symbol from plugin)
                                                  .build/obj_crkbd_rev1_tensotha_helios/quantum/action.o (symbol from plugin)
is_keyboard_left                                  .build/obj_crkbd_rev1_tensotha_helios/quantum/split_common/split_util.o (symbol from plugin)
                                                  .build/obj_crkbd_rev1_tensotha_helios/quantum/bootmagic/bootmagic.o (symbol from plugin)
is_keyboard_left_impl                             .build/obj_crkbd_rev1_tensotha_helios/quantum/split_common/split_util.o (symbol from plugin)
is_keyboard_master                                .build/obj_crkbd_rev1_tensotha_helios/quantum/split_common/split_util.o (symbol from plugin)
                                                  .build/obj_crkbd_rev1_tensotha_helios/protocol/host.o (symbol from plugin)
                                                  .build/obj_crkbd_rev1_tensotha_helios/quantum/matrix_common.o (symbol from plugin)
                                                  .build/obj_crkbd_rev1_tensotha_helios/quantum/sync_timer.o (symbol from plugin)
                                                  .build/obj_crkbd_rev1_tensotha_helios/quantum/keyboard.o (symbol from plugin)
                                                  .build/obj_crkbd_rev1_tensotha_helios/keyboards/crkbd/crkbd.o (symbol from plugin)
is_keyboard_master_impl                           .build/obj_crkbd_rev1_tensotha_helios/quantum/split_common/split_util.o (symbol from plugin)
is_oled_on                                        .build/obj_crkbd_rev1_tensotha_helios/oled_driver.o (symbol from plugin)
is_oled_scrolling                                 .build/obj_crkbd_rev1_tensotha_helios/oled_driver.o (symbol from plugin)
is_oneshot_enabled                                .build/obj_crkbd_rev1_tensotha_helios/quantum/action_util.o (symbol from plugin)
is_oneshot_layer_active                           .build/obj_crkbd_rev1_tensotha_helios/quantum/action_util.o (symbol from plugin)
                                                  .build/obj_crkbd_rev1_tensotha_helios/quantum/action.o (symbol from plugin)
is_rgblight_initialized                           .build/obj_crkbd_rev1_tensotha_helios/quantum/rgblight/rgblight.o (symbol from plugin)
is_tap_action                                     .build/obj_crkbd_rev1_tensotha_helios/quantum/action.o (symbol from plugin)
is_tap_record                                     .build/obj_crkbd_rev1_tensotha_helios/quantum/action.o (symbol from plugin)
                                                  .build/obj_crkbd_rev1_tensotha_helios/quantum/action_tapping.o (symbol from plugin)
is_transport_connected                            .build/obj_crkbd_rev1_tensotha_helios/quantum/split_common/split_util.o (symbol from plugin)
                                                  .build/obj_crkbd_rev1_tensotha_helios/quantum/split_common/transactions.o (symbol from plugin)
key_name                                          .build/obj_crkbd_rev1_tensotha_helios/keyboards/crkbd/crkbd.o (symbol from plugin)
keyboard.c.ca0a82c4                               /var/folders/01/r6qc96lx1x7c0h1529l70j5m0000gn/T//ccZ3h3t9debugobj
                                                  /var/folders/01/r6qc96lx1x7c0h1529l70j5m0000gn/T//ccqg8YyW.ltrans0.ltrans.o
keyboard_idle                                     .build/obj_crkbd_rev1_tensotha_helios/protocol/chibios/usb_main.o (symbol from plugin)
keyboard_init                                     .build/obj_crkbd_rev1_tensotha_helios/quantum/keyboard.o (symbol from plugin)
                                                  .build/obj_crkbd_rev1_tensotha_helios/quantum/main.o (symbol from plugin)
keyboard_led_state                                .build/obj_crkbd_rev1_tensotha_helios/protocol/chibios/usb_main.o (symbol from plugin)
keyboard_leds                                     .build/obj_crkbd_rev1_tensotha_helios/protocol/chibios/usb_main.o (symbol from plugin)
                                                  .build/obj_crkbd_rev1_tensotha_helios/protocol/chibios/chibios.o (symbol from plugin)
keyboard_post_init_kb                             .build/obj_crkbd_rev1_tensotha_helios/quantum/keyboard.o (symbol from plugin)
keyboard_post_init_user                           .build/obj_crkbd_rev1_tensotha_helios/quantum/keyboard.o (symbol from plugin)
keyboard_pre_init_kb                              .build/obj_crkbd_rev1_tensotha_helios/quantum/keyboard.o (symbol from plugin)
keyboard_pre_init_user                            .build/obj_crkbd_rev1_tensotha_helios/quantum/keyboard.o (symbol from plugin)
keyboard_protocol                                 .build/obj_crkbd_rev1_tensotha_helios/protocol/chibios/usb_main.o (symbol from plugin)
                                                  .build/obj_crkbd_rev1_tensotha_helios/protocol/report.o (symbol from plugin)
                                                  .build/obj_crkbd_rev1_tensotha_helios/quantum/action_util.o (symbol from plugin)
keyboard_report                                   .build/obj_crkbd_rev1_tensotha_helios/quantum/action_util.o (symbol from plugin)
                                                  .build/obj_crkbd_rev1_tensotha_helios/protocol/report.o (symbol from plugin)
keyboard_setup                                    .build/obj_crkbd_rev1_tensotha_helios/quantum/keyboard.o (symbol from plugin)
                                                  .build/obj_crkbd_rev1_tensotha_helios/quantum/main.o (symbol from plugin)
keyboard_task                                     .build/obj_crkbd_rev1_tensotha_helios/quantum/keyboard.o (symbol from plugin)
                                                  .build/obj_crkbd_rev1_tensotha_helios/quantum/main.o (symbol from plugin)
keycode_at_keymap_location                        .build/obj_crkbd_rev1_tensotha_helios/quantum/keymap_introspection.o (symbol from plugin)
                                                  .build/obj_crkbd_rev1_tensotha_helios/quantum/keymap_common.o (symbol from plugin)
keycode_at_keymap_location_raw                    .build/obj_crkbd_rev1_tensotha_helios/quantum/keymap_introspection.o (symbol from plugin)
keycode_config                                    .build/obj_crkbd_rev1_tensotha_helios/quantum/keycode_config.o (symbol from plugin)
                                                  .build/obj_crkbd_rev1_tensotha_helios/quantum/keymap_common.o (symbol from plugin)
keycode_config.c.287005b8                         /var/folders/01/r6qc96lx1x7c0h1529l70j5m0000gn/T//ccZ3h3t9debugobj
                                                  /var/folders/01/r6qc96lx1x7c0h1529l70j5m0000gn/T//ccqg8YyW.ltrans0.ltrans.o
keymap_common.c.b4c73603                          /var/folders/01/r6qc96lx1x7c0h1529l70j5m0000gn/T//ccZ3h3t9debugobj
                                                  /var/folders/01/r6qc96lx1x7c0h1529l70j5m0000gn/T//ccqg8YyW.ltrans0.ltrans.o
keymap_config                                     .build/obj_crkbd_rev1_tensotha_helios/quantum/keycode_config.o (symbol from plugin)
                                                  .build/obj_crkbd_rev1_tensotha_helios/protocol/report.o (symbol from plugin)
                                                  .build/obj_crkbd_rev1_tensotha_helios/quantum/process_keycode/process_magic.o (symbol from plugin)
                                                  .build/obj_crkbd_rev1_tensotha_helios/quantum/keyboard.o (symbol from plugin)
                                                  .build/obj_crkbd_rev1_tensotha_helios/quantum/action_util.o (symbol from plugin)
                                                  .build/obj_crkbd_rev1_tensotha_helios/quantum/action.o (symbol from plugin)
keymap_introspection.c.61181bdb                   /var/folders/01/r6qc96lx1x7c0h1529l70j5m0000gn/T//ccZ3h3t9debugobj
                                                  /var/folders/01/r6qc96lx1x7c0h1529l70j5m0000gn/T//ccqg8YyW.ltrans0.ltrans.o
keymap_key_to_keycode                             .build/obj_crkbd_rev1_tensotha_helios/quantum/keymap_common.o (symbol from plugin)
                                                  .build/obj_crkbd_rev1_tensotha_helios/quantum/quantum.o (symbol from plugin)
keymap_layer_count                                .build/obj_crkbd_rev1_tensotha_helios/quantum/keymap_introspection.o (symbol from plugin)
keymap_layer_count_raw                            .build/obj_crkbd_rev1_tensotha_helios/quantum/keymap_introspection.o (symbol from plugin)
keymaps                                           .build/obj_crkbd_rev1_tensotha_helios/quantum/keymap_introspection.o (symbol from plugin)
last_col                                          .build/obj_crkbd_rev1_tensotha_helios/keyboards/crkbd/crkbd.o (symbol from plugin)
last_encoder_activity_elapsed                     .build/obj_crkbd_rev1_tensotha_helios/quantum/keyboard.o (symbol from plugin)
last_encoder_activity_time                        .build/obj_crkbd_rev1_tensotha_helios/quantum/keyboard.o (symbol from plugin)
last_encoder_activity_trigger                     .build/obj_crkbd_rev1_tensotha_helios/quantum/keyboard.o (symbol from plugin)
last_input_activity_elapsed                       .build/obj_crkbd_rev1_tensotha_helios/quantum/keyboard.o (symbol from plugin)
last_input_activity_time                          .build/obj_crkbd_rev1_tensotha_helios/quantum/keyboard.o (symbol from plugin)
last_keycode                                      .build/obj_crkbd_rev1_tensotha_helios/keyboards/crkbd/crkbd.o (symbol from plugin)
last_led_activity_elapsed                         .build/obj_crkbd_rev1_tensotha_helios/quantum/led.o (symbol from plugin)
last_led_activity_time                            .build/obj_crkbd_rev1_tensotha_helios/quantum/led.o (symbol from plugin)
last_matrix_activity_elapsed                      .build/obj_crkbd_rev1_tensotha_helios/quantum/keyboard.o (symbol from plugin)
last_matrix_activity_time                         .build/obj_crkbd_rev1_tensotha_helios/quantum/keyboard.o (symbol from plugin)
last_matrix_activity_trigger                      .build/obj_crkbd_rev1_tensotha_helios/quantum/keyboard.o (symbol from plugin)
last_pointing_device_activity_elapsed             .build/obj_crkbd_rev1_tensotha_helios/quantum/keyboard.o (symbol from plugin)
last_pointing_device_activity_time                .build/obj_crkbd_rev1_tensotha_helios/quantum/keyboard.o (symbol from plugin)
last_pointing_device_activity_trigger             .build/obj_crkbd_rev1_tensotha_helios/quantum/keyboard.o (symbol from plugin)
last_row                                          .build/obj_crkbd_rev1_tensotha_helios/keyboards/crkbd/crkbd.o (symbol from plugin)
last_suspend_state                                .build/obj_crkbd_rev1_tensotha_helios/protocol/chibios/usb_main.o (symbol from plugin)
layer_and                                         .build/obj_crkbd_rev1_tensotha_helios/quantum/action_layer.o (symbol from plugin)
                                                  .build/obj_crkbd_rev1_tensotha_helios/quantum/action.o (symbol from plugin)
layer_clear                                       .build/obj_crkbd_rev1_tensotha_helios/quantum/action_layer.o (symbol from plugin)
                                                  .build/obj_crkbd_rev1_tensotha_helios/quantum/action.o (symbol from plugin)
layer_debug                                       .build/obj_crkbd_rev1_tensotha_helios/quantum/action_layer.o (symbol from plugin)
                                                  .build/obj_crkbd_rev1_tensotha_helios/quantum/action.o (symbol from plugin)
layer_invert                                      .build/obj_crkbd_rev1_tensotha_helios/quantum/action_layer.o (symbol from plugin)
                                                  .build/obj_crkbd_rev1_tensotha_helios/quantum/action.o (symbol from plugin)
layer_move                                        .build/obj_crkbd_rev1_tensotha_helios/quantum/action_layer.o (symbol from plugin)
                                                  .build/obj_crkbd_rev1_tensotha_helios/quantum/action.o (symbol from plugin)
layer_off                                         .build/obj_crkbd_rev1_tensotha_helios/quantum/action_layer.o (symbol from plugin)
                                                  .build/obj_crkbd_rev1_tensotha_helios/quantum/action_util.o (symbol from plugin)
                                                  .build/obj_crkbd_rev1_tensotha_helios/quantum/action.o (symbol from plugin)
layer_on                                          .build/obj_crkbd_rev1_tensotha_helios/quantum/action_layer.o (symbol from plugin)
                                                  .build/obj_crkbd_rev1_tensotha_helios/quantum/action_util.o (symbol from plugin)
                                                  .build/obj_crkbd_rev1_tensotha_helios/quantum/action.o (symbol from plugin)
layer_or                                          .build/obj_crkbd_rev1_tensotha_helios/quantum/action_layer.o (symbol from plugin)
                                                  .build/obj_crkbd_rev1_tensotha_helios/quantum/action.o (symbol from plugin)
layer_state                                       .build/obj_crkbd_rev1_tensotha_helios/quantum/action_layer.o (symbol from plugin)
                                                  .build/obj_crkbd_rev1_tensotha_helios/quantum/keyboard.o (symbol from plugin)
                                                  .build/obj_crkbd_rev1_tensotha_helios/keyboards/crkbd/crkbd.o (symbol from plugin)
layer_state_cmp                                   .build/obj_crkbd_rev1_tensotha_helios/quantum/action_layer.o (symbol from plugin)
layer_state_is                                    .build/obj_crkbd_rev1_tensotha_helios/quantum/action_layer.o (symbol from plugin)
layer_state_set                                   .build/obj_crkbd_rev1_tensotha_helios/quantum/action_layer.o (symbol from plugin)
                                                  .build/obj_crkbd_rev1_tensotha_helios/quantum/action.o (symbol from plugin)
layer_state_set_kb                                .build/obj_crkbd_rev1_tensotha_helios/quantum/action_layer.o (symbol from plugin)
                                                  .build/obj_crkbd_rev1_tensotha_helios/quantum/keyboard.o (symbol from plugin)
layer_state_set_user                              .build/obj_crkbd_rev1_tensotha_helios/quantum/action_layer.o (symbol from plugin)
layer_switch_get_action                           .build/obj_crkbd_rev1_tensotha_helios/quantum/action_layer.o (symbol from plugin)
                                                  .build/obj_crkbd_rev1_tensotha_helios/quantum/action_tapping.o (symbol from plugin)
                                                  .build/obj_crkbd_rev1_tensotha_helios/quantum/action.o (symbol from plugin)
layer_switch_get_layer                            .build/obj_crkbd_rev1_tensotha_helios/quantum/action_layer.o (symbol from plugin)
                                                  .build/obj_crkbd_rev1_tensotha_helios/quantum/quantum.o (symbol from plugin)
layer_xor                                         .build/obj_crkbd_rev1_tensotha_helios/quantum/action_layer.o (symbol from plugin)
                                                  .build/obj_crkbd_rev1_tensotha_helios/quantum/action.o (symbol from plugin)
led                                               .build/obj_crkbd_rev1_tensotha_helios/quantum/rgblight/rgblight.o (symbol from plugin)
led.c.1a720314                                    /var/folders/01/r6qc96lx1x7c0h1529l70j5m0000gn/T//ccZ3h3t9debugobj
                                                  /var/folders/01/r6qc96lx1x7c0h1529l70j5m0000gn/T//ccqg8YyW.ltrans0.ltrans.o
led_init_ports                                    .build/obj_crkbd_rev1_tensotha_helios/quantum/led.o (symbol from plugin)
                                                  .build/obj_crkbd_rev1_tensotha_helios/quantum/keyboard.o (symbol from plugin)
led_set                                           .build/obj_crkbd_rev1_tensotha_helios/quantum/led.o (symbol from plugin)
                                                  .build/obj_crkbd_rev1_tensotha_helios/quantum/action.o (symbol from plugin)
led_suspend                                       .build/obj_crkbd_rev1_tensotha_helios/quantum/led.o (symbol from plugin)
                                                  .build/obj_crkbd_rev1_tensotha_helios/quantum/quantum.o (symbol from plugin)
led_tables.c.fa463410                             /var/folders/01/r6qc96lx1x7c0h1529l70j5m0000gn/T//ccZ3h3t9debugobj
                                                  /var/folders/01/r6qc96lx1x7c0h1529l70j5m0000gn/T//ccqg8YyW.ltrans0.ltrans.o
led_task                                          .build/obj_crkbd_rev1_tensotha_helios/quantum/led.o (symbol from plugin)
                                                  .build/obj_crkbd_rev1_tensotha_helios/quantum/keyboard.o (symbol from plugin)
led_update_kb                                     .build/obj_crkbd_rev1_tensotha_helios/quantum/led.o (symbol from plugin)
led_update_ports                                  .build/obj_crkbd_rev1_tensotha_helios/quantum/led.o (symbol from plugin)
led_update_user                                   .build/obj_crkbd_rev1_tensotha_helios/quantum/led.o (symbol from plugin)
led_wakeup                                        .build/obj_crkbd_rev1_tensotha_helios/quantum/led.o (symbol from plugin)
                                                  .build/obj_crkbd_rev1_tensotha_helios/quantum/quantum.o (symbol from plugin)
magic_token                                       .build/obj_crkbd_rev1_tensotha_helios/platforms/chibios/bootloaders/rp2040.o (symbol from plugin)
main                                              /var/folders/01/r6qc96lx1x7c0h1529l70j5m0000gn/T//ccqg8YyW.ltrans0.ltrans.o
                                                  .build/obj_crkbd_rev1_tensotha_helios/quantum/main.o (symbol from plugin)
                                                  .build/obj_crkbd_rev1_tensotha_helios/./lib/chibios/os/common/startup/ARMCMx/compilers/GCC/crt0_v6m.o
main.c.b9f68899                                   /var/folders/01/r6qc96lx1x7c0h1529l70j5m0000gn/T//ccZ3h3t9debugobj
                                                  /var/folders/01/r6qc96lx1x7c0h1529l70j5m0000gn/T//ccqg8YyW.ltrans0.ltrans.o
malloc                                            /opt/homebrew/Cellar/arm-none-eabi-gcc@8/8.5.0_2/lib/arm-none-eabi-gcc/8/gcc/arm-none-eabi/8.5.0/../../../../../../arm-none-eabi/lib/thumb/v6-m/nofp/libg_nano.a(lib_a-malloc.o)
                                                  /opt/homebrew/Cellar/arm-none-eabi-gcc@8/8.5.0_2/lib/arm-none-eabi-gcc/8/gcc/arm-none-eabi/8.5.0/../../../../../../arm-none-eabi/lib/thumb/v6-m/nofp/libg_nano.a(lib_a-rand.o)
matrix                                            .build/obj_crkbd_rev1_tensotha_helios/quantum/matrix_common.o (symbol from plugin)
                                                  .build/obj_crkbd_rev1_tensotha_helios/quantum/matrix.o (symbol from plugin)
matrix.c.b939a1af                                 /var/folders/01/r6qc96lx1x7c0h1529l70j5m0000gn/T//ccZ3h3t9debugobj
                                                  /var/folders/01/r6qc96lx1x7c0h1529l70j5m0000gn/T//ccqg8YyW.ltrans0.ltrans.o
matrix_can_read                                   .build/obj_crkbd_rev1_tensotha_helios/quantum/keyboard.o (symbol from plugin)
matrix_cols                                       .build/obj_crkbd_rev1_tensotha_helios/quantum/matrix_common.o (symbol from plugin)
matrix_common.c.6c76212e                          /var/folders/01/r6qc96lx1x7c0h1529l70j5m0000gn/T//ccZ3h3t9debugobj
                                                  /var/folders/01/r6qc96lx1x7c0h1529l70j5m0000gn/T//ccqg8YyW.ltrans0.ltrans.o
matrix_get_row                                    .build/obj_crkbd_rev1_tensotha_helios/quantum/matrix_common.o (symbol from plugin)
                                                  .build/obj_crkbd_rev1_tensotha_helios/platforms/suspend.o (symbol from plugin)
                                                  .build/obj_crkbd_rev1_tensotha_helios/quantum/bootmagic/bootmagic.o (symbol from plugin)
                                                  .build/obj_crkbd_rev1_tensotha_helios/quantum/keyboard.o (symbol from plugin)
matrix_init                                       .build/obj_crkbd_rev1_tensotha_helios/quantum/matrix.o (symbol from plugin)
                                                  .build/obj_crkbd_rev1_tensotha_helios/quantum/matrix_common.o (symbol from plugin)
                                                  .build/obj_crkbd_rev1_tensotha_helios/quantum/keyboard.o (symbol from plugin)
matrix_init_custom                                .build/obj_crkbd_rev1_tensotha_helios/quantum/matrix_common.o (symbol from plugin)
matrix_init_kb                                    .build/obj_crkbd_rev1_tensotha_helios/quantum/matrix_common.o (symbol from plugin)
                                                  .build/obj_crkbd_rev1_tensotha_helios/quantum/matrix.o (symbol from plugin)
matrix_init_pins                                  .build/obj_crkbd_rev1_tensotha_helios/quantum/matrix.o (symbol from plugin)
matrix_init_user                                  .build/obj_crkbd_rev1_tensotha_helios/quantum/matrix_common.o (symbol from plugin)
matrix_io_delay                                   .build/obj_crkbd_rev1_tensotha_helios/quantum/matrix_common.o (symbol from plugin)
matrix_is_on                                      .build/obj_crkbd_rev1_tensotha_helios/quantum/matrix_common.o (symbol from plugin)
matrix_output_select_delay                        .build/obj_crkbd_rev1_tensotha_helios/quantum/matrix_common.o (symbol from plugin)
                                                  .build/obj_crkbd_rev1_tensotha_helios/quantum/matrix.o (symbol from plugin)
matrix_output_unselect_delay                      .build/obj_crkbd_rev1_tensotha_helios/quantum/matrix_common.o (symbol from plugin)
                                                  .build/obj_crkbd_rev1_tensotha_helios/quantum/matrix.o (symbol from plugin)
matrix_post_scan                                  .build/obj_crkbd_rev1_tensotha_helios/quantum/matrix_common.o (symbol from plugin)
                                                  .build/obj_crkbd_rev1_tensotha_helios/quantum/matrix.o (symbol from plugin)
matrix_power_down                                 .build/obj_crkbd_rev1_tensotha_helios/platforms/suspend.o (symbol from plugin)
matrix_power_up                                   .build/obj_crkbd_rev1_tensotha_helios/platforms/suspend.o (symbol from plugin)
matrix_print                                      .build/obj_crkbd_rev1_tensotha_helios/quantum/matrix_common.o (symbol from plugin)
                                                  .build/obj_crkbd_rev1_tensotha_helios/quantum/keyboard.o (symbol from plugin)
matrix_read_cols_on_row                           .build/obj_crkbd_rev1_tensotha_helios/quantum/matrix.o (symbol from plugin)
matrix_rows                                       .build/obj_crkbd_rev1_tensotha_helios/quantum/matrix_common.o (symbol from plugin)
matrix_scan                                       .build/obj_crkbd_rev1_tensotha_helios/quantum/matrix.o (symbol from plugin)
                                                  .build/obj_crkbd_rev1_tensotha_helios/quantum/matrix_common.o (symbol from plugin)
                                                  .build/obj_crkbd_rev1_tensotha_helios/platforms/suspend.o (symbol from plugin)
                                                  .build/obj_crkbd_rev1_tensotha_helios/quantum/bootmagic/bootmagic.o (symbol from plugin)
                                                  .build/obj_crkbd_rev1_tensotha_helios/quantum/keyboard.o (symbol from plugin)
matrix_scan_custom                                .build/obj_crkbd_rev1_tensotha_helios/quantum/matrix_common.o (symbol from plugin)
matrix_scan_kb                                    .build/obj_crkbd_rev1_tensotha_helios/quantum/matrix_common.o (symbol from plugin)
matrix_scan_user                                  .build/obj_crkbd_rev1_tensotha_helios/quantum/matrix_common.o (symbol from plugin)
matrix_setup                                      .build/obj_crkbd_rev1_tensotha_helios/quantum/keyboard.o (symbol from plugin)
matrix_slave_scan_kb                              .build/obj_crkbd_rev1_tensotha_helios/quantum/matrix_common.o (symbol from plugin)
matrix_slave_scan_user                            .build/obj_crkbd_rev1_tensotha_helios/quantum/matrix_common.o (symbol from plugin)
mcu_reset                                         .build/obj_crkbd_rev1_tensotha_helios/platforms/chibios/bootloaders/rp2040.o (symbol from plugin)
                                                  .build/obj_crkbd_rev1_tensotha_helios/quantum/quantum.o (symbol from plugin)
memchr                                            /opt/homebrew/Cellar/arm-none-eabi-gcc@8/8.5.0_2/lib/arm-none-eabi-gcc/8/gcc/arm-none-eabi/8.5.0/../../../../../../arm-none-eabi/lib/thumb/v6-m/nofp/libg_nano.a(lib_a-memchr-stub.o)
                                                  /var/folders/01/r6qc96lx1x7c0h1529l70j5m0000gn/T//ccqg8YyW.ltrans0.ltrans.o
                                                  /opt/homebrew/Cellar/arm-none-eabi-gcc@8/8.5.0_2/lib/arm-none-eabi-gcc/8/gcc/arm-none-eabi/8.5.0/../../../../../../arm-none-eabi/lib/thumb/v6-m/nofp/libg_nano.a(lib_a-fvwrite.o)
                                                  /opt/homebrew/Cellar/arm-none-eabi-gcc@8/8.5.0_2/lib/arm-none-eabi-gcc/8/gcc/arm-none-eabi/8.5.0/../../../../../../arm-none-eabi/lib/thumb/v6-m/nofp/libg_nano.a(lib_a-nano-vfprintf_i.o)
                                                  /opt/homebrew/Cellar/arm-none-eabi-gcc@8/8.5.0_2/lib/arm-none-eabi-gcc/8/gcc/arm-none-eabi/8.5.0/../../../../../../arm-none-eabi/lib/thumb/v6-m/nofp/libg_nano.a(lib_a-nano-vfprintf.o)
memcmp                                            /opt/homebrew/Cellar/arm-none-eabi-gcc@8/8.5.0_2/lib/arm-none-eabi-gcc/8/gcc/arm-none-eabi/8.5.0/../../../../../../arm-none-eabi/lib/thumb/v6-m/nofp/libg_nano.a(lib_a-memcmp.o)
                                                  /var/folders/01/r6qc96lx1x7c0h1529l70j5m0000gn/T//ccqg8YyW.ltrans0.ltrans.o
memcpy                                            /opt/homebrew/Cellar/arm-none-eabi-gcc@8/8.5.0_2/lib/arm-none-eabi-gcc/8/gcc/arm-none-eabi/8.5.0/../../../../../../arm-none-eabi/lib/thumb/v6-m/nofp/libg_nano.a(lib_a-memcpy-stub.o)
                                                  /var/folders/01/r6qc96lx1x7c0h1529l70j5m0000gn/T//ccqg8YyW.ltrans0.ltrans.o
                                                  /opt/homebrew/Cellar/arm-none-eabi-gcc@8/8.5.0_2/lib/arm-none-eabi-gcc/8/gcc/arm-none-eabi/8.5.0/../../../../../../arm-none-eabi/lib/thumb/v6-m/nofp/libg_nano.a(lib_a-nano-reallocr.o)
                                                  /opt/homebrew/Cellar/arm-none-eabi-gcc@8/8.5.0_2/lib/arm-none-eabi-gcc/8/gcc/arm-none-eabi/8.5.0/../../../../../../arm-none-eabi/lib/thumb/v6-m/nofp/libg_nano.a(lib_a-fvwrite.o)
                                                  .build/obj_crkbd_rev1_tensotha_helios/serial_vendor.a(serial_vendor.o)
memmove                                           /opt/homebrew/Cellar/arm-none-eabi-gcc@8/8.5.0_2/lib/arm-none-eabi-gcc/8/gcc/arm-none-eabi/8.5.0/../../../../../../arm-none-eabi/lib/thumb/v6-m/nofp/libg_nano.a(lib_a-memmove.o)
                                                  /opt/homebrew/Cellar/arm-none-eabi-gcc@8/8.5.0_2/lib/arm-none-eabi-gcc/8/gcc/arm-none-eabi/8.5.0/../../../../../../arm-none-eabi/lib/thumb/v6-m/nofp/libg_nano.a(lib_a-fvwrite.o)
memset                                            /opt/homebrew/Cellar/arm-none-eabi-gcc@8/8.5.0_2/lib/arm-none-eabi-gcc/8/gcc/arm-none-eabi/8.5.0/../../../../../../arm-none-eabi/lib/thumb/v6-m/nofp/libg_nano.a(lib_a-memset.o)
                                                  /var/folders/01/r6qc96lx1x7c0h1529l70j5m0000gn/T//ccqg8YyW.ltrans0.ltrans.o
                                                  /opt/homebrew/Cellar/arm-none-eabi-gcc@8/8.5.0_2/lib/arm-none-eabi-gcc/8/gcc/arm-none-eabi/8.5.0/../../../../../../arm-none-eabi/lib/thumb/v6-m/nofp/libg_nano.a(lib_a-findfp.o)
memstreams.c.34de8c95                             /var/folders/01/r6qc96lx1x7c0h1529l70j5m0000gn/T//ccZ3h3t9debugobj
mk_delay                                          .build/obj_crkbd_rev1_tensotha_helios/quantum/mousekey.o (symbol from plugin)
mk_interval                                       .build/obj_crkbd_rev1_tensotha_helios/quantum/mousekey.o (symbol from plugin)
mk_max_speed                                      .build/obj_crkbd_rev1_tensotha_helios/quantum/mousekey.o (symbol from plugin)
mk_time_to_max                                    .build/obj_crkbd_rev1_tensotha_helios/quantum/mousekey.o (symbol from plugin)
mk_wheel_delay                                    .build/obj_crkbd_rev1_tensotha_helios/quantum/mousekey.o (symbol from plugin)
mk_wheel_interval                                 .build/obj_crkbd_rev1_tensotha_helios/quantum/mousekey.o (symbol from plugin)
mk_wheel_max_speed                                .build/obj_crkbd_rev1_tensotha_helios/quantum/mousekey.o (symbol from plugin)
mk_wheel_time_to_max                              .build/obj_crkbd_rev1_tensotha_helios/quantum/mousekey.o (symbol from plugin)
mod_config                                        .build/obj_crkbd_rev1_tensotha_helios/quantum/keycode_config.o (symbol from plugin)
                                                  .build/obj_crkbd_rev1_tensotha_helios/quantum/keymap_common.o (symbol from plugin)
mousekey.c.1e574e29                               /var/folders/01/r6qc96lx1x7c0h1529l70j5m0000gn/T//ccZ3h3t9debugobj
                                                  /var/folders/01/r6qc96lx1x7c0h1529l70j5m0000gn/T//ccqg8YyW.ltrans0.ltrans.o
mousekey_clear                                    .build/obj_crkbd_rev1_tensotha_helios/quantum/mousekey.o (symbol from plugin)
                                                  .build/obj_crkbd_rev1_tensotha_helios/platforms/chibios/suspend.o (symbol from plugin)
                                                  .build/obj_crkbd_rev1_tensotha_helios/quantum/action.o (symbol from plugin)
mousekey_get_report                               .build/obj_crkbd_rev1_tensotha_helios/quantum/mousekey.o (symbol from plugin)
mousekey_off                                      .build/obj_crkbd_rev1_tensotha_helios/quantum/mousekey.o (symbol from plugin)
                                                  .build/obj_crkbd_rev1_tensotha_helios/quantum/action.o (symbol from plugin)
mousekey_on                                       .build/obj_crkbd_rev1_tensotha_helios/quantum/mousekey.o (symbol from plugin)
                                                  .build/obj_crkbd_rev1_tensotha_helios/quantum/action.o (symbol from plugin)
mousekey_send                                     .build/obj_crkbd_rev1_tensotha_helios/quantum/mousekey.o (symbol from plugin)
                                                  .build/obj_crkbd_rev1_tensotha_helios/quantum/action.o (symbol from plugin)
mousekey_task                                     .build/obj_crkbd_rev1_tensotha_helios/quantum/mousekey.o (symbol from plugin)
                                                  .build/obj_crkbd_rev1_tensotha_helios/quantum/keyboard.o (symbol from plugin)
msObjectInit                                      .build/obj_crkbd_rev1_tensotha_helios/lib/chibios/os/hal/lib/streams/memstreams.o (symbol from plugin)
                                                  .build/obj_crkbd_rev1_tensotha_helios/lib/chibios/os/hal/lib/streams/chscanf.o (symbol from plugin)
                                                  .build/obj_crkbd_rev1_tensotha_helios/lib/chibios/os/hal/lib/streams/chprintf.o (symbol from plugin)
nkro_report                                       .build/obj_crkbd_rev1_tensotha_helios/quantum/action_util.o (symbol from plugin)
                                                  .build/obj_crkbd_rev1_tensotha_helios/protocol/report.o (symbol from plugin)
notify_usb_device_state_change_kb                 .build/obj_crkbd_rev1_tensotha_helios/protocol/usb_device_state.o (symbol from plugin)
notify_usb_device_state_change_user               .build/obj_crkbd_rev1_tensotha_helios/protocol/usb_device_state.o (symbol from plugin)
nullObjectInit                                    .build/obj_crkbd_rev1_tensotha_helios/lib/chibios/os/hal/lib/streams/nullstreams.o (symbol from plugin)
nullstreams.c.44790e31                            /var/folders/01/r6qc96lx1x7c0h1529l70j5m0000gn/T//ccZ3h3t9debugobj
nvic.c.cdd05a37                                   /var/folders/01/r6qc96lx1x7c0h1529l70j5m0000gn/T//ccZ3h3t9debugobj
                                                  /var/folders/01/r6qc96lx1x7c0h1529l70j5m0000gn/T//ccqg8YyW.ltrans0.ltrans.o
nvicClearPending                                  .build/obj_crkbd_rev1_tensotha_helios/lib/chibios/os/hal/ports/common/ARMCMx/nvic.o (symbol from plugin)
nvicDisableVector                                 .build/obj_crkbd_rev1_tensotha_helios/lib/chibios/os/hal/ports/common/ARMCMx/nvic.o (symbol from plugin)
                                                  .build/obj_crkbd_rev1_tensotha_helios/lib/chibios-contrib/os/hal/ports/RP/LLD/USBDv1/hal_usb_lld.o (symbol from plugin)
                                                  .build/obj_crkbd_rev1_tensotha_helios/lib/chibios-contrib/os/hal/ports/RP/LLD/I2Cv1/hal_i2c_lld.o (symbol from plugin)
                                                  .build/obj_crkbd_rev1_tensotha_helios/lib/chibios/os/hal/ports/RP/LLD/DMAv1/rp_dma.o (symbol from plugin)
nvicEnableVector                                  /var/folders/01/r6qc96lx1x7c0h1529l70j5m0000gn/T//ccqg8YyW.ltrans0.ltrans.o
                                                  .build/obj_crkbd_rev1_tensotha_helios/lib/chibios/os/hal/ports/common/ARMCMx/nvic.o (symbol from plugin)
                                                  .build/obj_crkbd_rev1_tensotha_helios/lib/chibios-contrib/os/hal/ports/RP/LLD/USBDv1/hal_usb_lld.o (symbol from plugin)
                                                  .build/obj_crkbd_rev1_tensotha_helios/lib/chibios-contrib/os/hal/ports/RP/LLD/ADCv1/hal_adc_lld.o (symbol from plugin)
                                                  .build/obj_crkbd_rev1_tensotha_helios/lib/chibios-contrib/os/hal/ports/RP/LLD/I2Cv1/hal_i2c_lld.o (symbol from plugin)
                                                  .build/obj_crkbd_rev1_tensotha_helios/lib/chibios/os/hal/ports/RP/LLD/TIMERv1/hal_st_lld.o (symbol from plugin)
                                                  .build/obj_crkbd_rev1_tensotha_helios/lib/chibios/os/hal/ports/RP/LLD/DMAv1/rp_dma.o (symbol from plugin)
                                                  .build/obj_crkbd_rev1_tensotha_helios/serial_vendor.a(serial_vendor.o)
nvicInit                                          .build/obj_crkbd_rev1_tensotha_helios/lib/chibios/os/hal/ports/common/ARMCMx/nvic.o (symbol from plugin)
nvicSetPending                                    .build/obj_crkbd_rev1_tensotha_helios/lib/chibios/os/hal/ports/common/ARMCMx/nvic.o (symbol from plugin)
nvicSetSystemHandlerPriority                      .build/obj_crkbd_rev1_tensotha_helios/lib/chibios/os/hal/ports/common/ARMCMx/nvic.o (symbol from plugin)
obqFlush                                          .build/obj_crkbd_rev1_tensotha_helios/lib/chibios/os/hal/src/hal_buffers.o (symbol from plugin)
                                                  .build/obj_crkbd_rev1_tensotha_helios/protocol/chibios/usb_driver.o (symbol from plugin)
obqGetEmptyBufferTimeout                          .build/obj_crkbd_rev1_tensotha_helios/lib/chibios/os/hal/src/hal_buffers.o (symbol from plugin)
obqGetEmptyBufferTimeoutS                         .build/obj_crkbd_rev1_tensotha_helios/lib/chibios/os/hal/src/hal_buffers.o (symbol from plugin)
obqGetFullBufferI                                 .build/obj_crkbd_rev1_tensotha_helios/lib/chibios/os/hal/src/hal_buffers.o (symbol from plugin)
                                                  .build/obj_crkbd_rev1_tensotha_helios/protocol/chibios/usb_driver.o (symbol from plugin)
obqObjectInit                                     .build/obj_crkbd_rev1_tensotha_helios/lib/chibios/os/hal/src/hal_buffers.o (symbol from plugin)
                                                  .build/obj_crkbd_rev1_tensotha_helios/protocol/chibios/usb_driver.o (symbol from plugin)
obqPostFullBuffer                                 .build/obj_crkbd_rev1_tensotha_helios/lib/chibios/os/hal/src/hal_buffers.o (symbol from plugin)
obqPostFullBufferS                                .build/obj_crkbd_rev1_tensotha_helios/lib/chibios/os/hal/src/hal_buffers.o (symbol from plugin)
obqPutTimeout                                     .build/obj_crkbd_rev1_tensotha_helios/lib/chibios/os/hal/src/hal_buffers.o (symbol from plugin)
                                                  .build/obj_crkbd_rev1_tensotha_helios/protocol/chibios/usb_driver.o (symbol from plugin)
obqReleaseEmptyBufferI                            .build/obj_crkbd_rev1_tensotha_helios/lib/chibios/os/hal/src/hal_buffers.o (symbol from plugin)
                                                  .build/obj_crkbd_rev1_tensotha_helios/protocol/chibios/usb_driver.o (symbol from plugin)
obqResetI                                         .build/obj_crkbd_rev1_tensotha_helios/lib/chibios/os/hal/src/hal_buffers.o (symbol from plugin)
                                                  .build/obj_crkbd_rev1_tensotha_helios/protocol/chibios/usb_driver.o (symbol from plugin)
obqTryFlushI                                      .build/obj_crkbd_rev1_tensotha_helios/lib/chibios/os/hal/src/hal_buffers.o (symbol from plugin)
obqWriteTimeout                                   .build/obj_crkbd_rev1_tensotha_helios/lib/chibios/os/hal/src/hal_buffers.o (symbol from plugin)
                                                  .build/obj_crkbd_rev1_tensotha_helios/protocol/chibios/usb_driver.o (symbol from plugin)
oled_active                                       .build/obj_crkbd_rev1_tensotha_helios/oled_driver.o (symbol from plugin)
oled_advance_char                                 .build/obj_crkbd_rev1_tensotha_helios/oled_driver.o (symbol from plugin)
oled_advance_page                                 .build/obj_crkbd_rev1_tensotha_helios/oled_driver.o (symbol from plugin)
oled_brightness                                   .build/obj_crkbd_rev1_tensotha_helios/oled_driver.o (symbol from plugin)
oled_buffer                                       .build/obj_crkbd_rev1_tensotha_helios/oled_driver.o (symbol from plugin)
oled_clear                                        .build/obj_crkbd_rev1_tensotha_helios/oled_driver.o (symbol from plugin)
oled_cursor                                       .build/obj_crkbd_rev1_tensotha_helios/oled_driver.o (symbol from plugin)
oled_dirty                                        .build/obj_crkbd_rev1_tensotha_helios/oled_driver.o (symbol from plugin)
oled_driver.c.13627ea2                            /var/folders/01/r6qc96lx1x7c0h1529l70j5m0000gn/T//ccZ3h3t9debugobj
                                                  /var/folders/01/r6qc96lx1x7c0h1529l70j5m0000gn/T//ccqg8YyW.ltrans0.ltrans.o
oled_driver_init                                  .build/obj_crkbd_rev1_tensotha_helios/oled_driver.o (symbol from plugin)
oled_get_brightness                               .build/obj_crkbd_rev1_tensotha_helios/oled_driver.o (symbol from plugin)
oled_init                                         .build/obj_crkbd_rev1_tensotha_helios/oled_driver.o (symbol from plugin)
                                                  .build/obj_crkbd_rev1_tensotha_helios/quantum/keyboard.o (symbol from plugin)
oled_init_kb                                      .build/obj_crkbd_rev1_tensotha_helios/keyboards/crkbd/crkbd.o (symbol from plugin)
oled_init_user                                    .build/obj_crkbd_rev1_tensotha_helios/oled_driver.o (symbol from plugin)
oled_initialized                                  .build/obj_crkbd_rev1_tensotha_helios/oled_driver.o (symbol from plugin)
oled_invert                                       .build/obj_crkbd_rev1_tensotha_helios/oled_driver.o (symbol from plugin)
oled_inverted                                     .build/obj_crkbd_rev1_tensotha_helios/oled_driver.o (symbol from plugin)
oled_max_chars                                    .build/obj_crkbd_rev1_tensotha_helios/oled_driver.o (symbol from plugin)
oled_max_lines                                    .build/obj_crkbd_rev1_tensotha_helios/oled_driver.o (symbol from plugin)
oled_off                                          .build/obj_crkbd_rev1_tensotha_helios/oled_driver.o (symbol from plugin)
                                                  .build/obj_crkbd_rev1_tensotha_helios/quantum/quantum.o (symbol from plugin)
oled_on                                           .build/obj_crkbd_rev1_tensotha_helios/oled_driver.o (symbol from plugin)
                                                  .build/obj_crkbd_rev1_tensotha_helios/quantum/keyboard.o (symbol from plugin)
oled_pan                                          .build/obj_crkbd_rev1_tensotha_helios/oled_driver.o (symbol from plugin)
oled_read_raw                                     .build/obj_crkbd_rev1_tensotha_helios/oled_driver.o (symbol from plugin)
oled_render_dirty                                 .build/obj_crkbd_rev1_tensotha_helios/oled_driver.o (symbol from plugin)
oled_render_logo                                  .build/obj_crkbd_rev1_tensotha_helios/keyboards/crkbd/crkbd.o (symbol from plugin)
oled_rotation                                     .build/obj_crkbd_rev1_tensotha_helios/oled_driver.o (symbol from plugin)
oled_rotation_width                               .build/obj_crkbd_rev1_tensotha_helios/oled_driver.o (symbol from plugin)
oled_scroll_end                                   .build/obj_crkbd_rev1_tensotha_helios/oled_driver.o (symbol from plugin)
oled_scroll_left                                  .build/obj_crkbd_rev1_tensotha_helios/oled_driver.o (symbol from plugin)
oled_scroll_off                                   .build/obj_crkbd_rev1_tensotha_helios/oled_driver.o (symbol from plugin)
oled_scroll_right                                 .build/obj_crkbd_rev1_tensotha_helios/oled_driver.o (symbol from plugin)
oled_scroll_set_area                              .build/obj_crkbd_rev1_tensotha_helios/oled_driver.o (symbol from plugin)
oled_scroll_set_speed                             .build/obj_crkbd_rev1_tensotha_helios/oled_driver.o (symbol from plugin)
oled_scroll_speed                                 .build/obj_crkbd_rev1_tensotha_helios/oled_driver.o (symbol from plugin)
oled_scroll_start                                 .build/obj_crkbd_rev1_tensotha_helios/oled_driver.o (symbol from plugin)
oled_scrolling                                    .build/obj_crkbd_rev1_tensotha_helios/oled_driver.o (symbol from plugin)
oled_send_cmd                                     .build/obj_crkbd_rev1_tensotha_helios/oled_driver.o (symbol from plugin)
oled_send_cmd_P                                   .build/obj_crkbd_rev1_tensotha_helios/oled_driver.o (symbol from plugin)
oled_send_data                                    .build/obj_crkbd_rev1_tensotha_helios/oled_driver.o (symbol from plugin)
oled_set_brightness                               .build/obj_crkbd_rev1_tensotha_helios/oled_driver.o (symbol from plugin)
oled_set_cursor                                   .build/obj_crkbd_rev1_tensotha_helios/oled_driver.o (symbol from plugin)
oled_task                                         .build/obj_crkbd_rev1_tensotha_helios/oled_driver.o (symbol from plugin)
                                                  .build/obj_crkbd_rev1_tensotha_helios/quantum/keyboard.o (symbol from plugin)
oled_task_kb                                      .build/obj_crkbd_rev1_tensotha_helios/keyboards/crkbd/crkbd.o (symbol from plugin)
oled_task_user                                    .build/obj_crkbd_rev1_tensotha_helios/oled_driver.o (symbol from plugin)
                                                  .build/obj_crkbd_rev1_tensotha_helios/keyboards/crkbd/crkbd.o (symbol from plugin)
oled_timeout                                      .build/obj_crkbd_rev1_tensotha_helios/oled_driver.o (symbol from plugin)
oled_update_timeout                               .build/obj_crkbd_rev1_tensotha_helios/oled_driver.o (symbol from plugin)
oled_write                                        .build/obj_crkbd_rev1_tensotha_helios/oled_driver.o (symbol from plugin)
                                                  .build/obj_crkbd_rev1_tensotha_helios/keyboards/crkbd/crkbd.o (symbol from plugin)
oled_write_char                                   .build/obj_crkbd_rev1_tensotha_helios/oled_driver.o (symbol from plugin)
                                                  .build/obj_crkbd_rev1_tensotha_helios/keyboards/crkbd/crkbd.o (symbol from plugin)
oled_write_ln                                     .build/obj_crkbd_rev1_tensotha_helios/oled_driver.o (symbol from plugin)
                                                  .build/obj_crkbd_rev1_tensotha_helios/keyboards/crkbd/crkbd.o (symbol from plugin)
oled_write_pixel                                  .build/obj_crkbd_rev1_tensotha_helios/oled_driver.o (symbol from plugin)
oled_write_raw                                    .build/obj_crkbd_rev1_tensotha_helios/oled_driver.o (symbol from plugin)
oled_write_raw_byte                               .build/obj_crkbd_rev1_tensotha_helios/oled_driver.o (symbol from plugin)
oneshot_disable                                   .build/obj_crkbd_rev1_tensotha_helios/quantum/action_util.o (symbol from plugin)
                                                  .build/obj_crkbd_rev1_tensotha_helios/quantum/quantum.o (symbol from plugin)
oneshot_enable                                    .build/obj_crkbd_rev1_tensotha_helios/quantum/action_util.o (symbol from plugin)
                                                  .build/obj_crkbd_rev1_tensotha_helios/quantum/quantum.o (symbol from plugin)
oneshot_layer_changed_kb                          .build/obj_crkbd_rev1_tensotha_helios/quantum/action_util.o (symbol from plugin)
oneshot_layer_changed_user                        .build/obj_crkbd_rev1_tensotha_helios/quantum/action_util.o (symbol from plugin)
oneshot_locked_mods_changed_kb                    .build/obj_crkbd_rev1_tensotha_helios/quantum/action_util.o (symbol from plugin)
oneshot_locked_mods_changed_user                  .build/obj_crkbd_rev1_tensotha_helios/quantum/action_util.o (symbol from plugin)
oneshot_mods_changed_kb                           .build/obj_crkbd_rev1_tensotha_helios/quantum/action_util.o (symbol from plugin)
oneshot_mods_changed_user                         .build/obj_crkbd_rev1_tensotha_helios/quantum/action_util.o (symbol from plugin)
oneshot_set                                       .build/obj_crkbd_rev1_tensotha_helios/quantum/action_util.o (symbol from plugin)
oneshot_toggle                                    .build/obj_crkbd_rev1_tensotha_helios/quantum/action_util.o (symbol from plugin)
                                                  .build/obj_crkbd_rev1_tensotha_helios/quantum/quantum.o (symbol from plugin)
oqGetI                                            .build/obj_crkbd_rev1_tensotha_helios/lib/chibios/os/hal/src/hal_queues.o (symbol from plugin)
oqObjectInit                                      .build/obj_crkbd_rev1_tensotha_helios/lib/chibios/os/hal/src/hal_queues.o (symbol from plugin)
oqPutI                                            .build/obj_crkbd_rev1_tensotha_helios/lib/chibios/os/hal/src/hal_queues.o (symbol from plugin)
oqPutTimeout                                      .build/obj_crkbd_rev1_tensotha_helios/lib/chibios/os/hal/src/hal_queues.o (symbol from plugin)
oqResetI                                          .build/obj_crkbd_rev1_tensotha_helios/lib/chibios/os/hal/src/hal_queues.o (symbol from plugin)
oqWriteI                                          .build/obj_crkbd_rev1_tensotha_helios/lib/chibios/os/hal/src/hal_queues.o (symbol from plugin)
oqWriteTimeout                                    .build/obj_crkbd_rev1_tensotha_helios/lib/chibios/os/hal/src/hal_queues.o (symbol from plugin)
osal.c.a6b6f1b4                                   /var/folders/01/r6qc96lx1x7c0h1529l70j5m0000gn/T//ccZ3h3t9debugobj
palReadBus                                        .build/obj_crkbd_rev1_tensotha_helios/lib/chibios/os/hal/src/hal_pal.o (symbol from plugin)
palSetBusMode                                     .build/obj_crkbd_rev1_tensotha_helios/lib/chibios/os/hal/src/hal_pal.o (symbol from plugin)
palWriteBus                                       .build/obj_crkbd_rev1_tensotha_helios/lib/chibios/os/hal/src/hal_pal.o (symbol from plugin)
panic                                             .build/obj_crkbd_rev1_tensotha_helios/platforms/chibios/vendors/RP/pico_sdk_shims.o (symbol from plugin)
                                                  .build/obj_crkbd_rev1_tensotha_helios/./lib/pico-sdk/src/rp2_common/hardware_claim/claim.o (symbol from plugin)
                                                  .build/obj_crkbd_rev1_tensotha_helios/./lib/pico-sdk/src/rp2_common/hardware_pio/pio.o (symbol from plugin)
peek_matrix                                       .build/obj_crkbd_rev1_tensotha_helios/quantum/matrix_common.o (symbol from plugin)
perform_space_cadet                               .build/obj_crkbd_rev1_tensotha_helios/quantum/process_keycode/process_space_cadet.o (symbol from plugin)
pico_sdk_shims.c.06b7c007                         /var/folders/01/r6qc96lx1x7c0h1529l70j5m0000gn/T//ccZ3h3t9debugobj
                                                  /var/folders/01/r6qc96lx1x7c0h1529l70j5m0000gn/T//ccqg8YyW.ltrans0.ltrans.o
pio.c.822413a1                                    /var/folders/01/r6qc96lx1x7c0h1529l70j5m0000gn/T//ccZ3h3t9debugobj
                                                  /var/folders/01/r6qc96lx1x7c0h1529l70j5m0000gn/T//ccqg8YyW.ltrans0.ltrans.o
pio_add_program                                   /var/folders/01/r6qc96lx1x7c0h1529l70j5m0000gn/T//ccqg8YyW.ltrans0.ltrans.o
                                                  .build/obj_crkbd_rev1_tensotha_helios/./lib/pico-sdk/src/rp2_common/hardware_pio/pio.o (symbol from plugin)
                                                  .build/obj_crkbd_rev1_tensotha_helios/serial_vendor.a(serial_vendor.o)
                                                  .build/obj_crkbd_rev1_tensotha_helios/ws2812_vendor.o (symbol from plugin)
pio_add_program_at_offset                         .build/obj_crkbd_rev1_tensotha_helios/./lib/pico-sdk/src/rp2_common/hardware_pio/pio.o (symbol from plugin)
pio_can_add_program                               .build/obj_crkbd_rev1_tensotha_helios/./lib/pico-sdk/src/rp2_common/hardware_pio/pio.o (symbol from plugin)
pio_can_add_program_at_offset                     .build/obj_crkbd_rev1_tensotha_helios/./lib/pico-sdk/src/rp2_common/hardware_pio/pio.o (symbol from plugin)
pio_claim_sm_mask                                 .build/obj_crkbd_rev1_tensotha_helios/./lib/pico-sdk/src/rp2_common/hardware_pio/pio.o (symbol from plugin)
pio_claim_unused_sm                               /var/folders/01/r6qc96lx1x7c0h1529l70j5m0000gn/T//ccqg8YyW.ltrans0.ltrans.o
                                                  .build/obj_crkbd_rev1_tensotha_helios/./lib/pico-sdk/src/rp2_common/hardware_pio/pio.o (symbol from plugin)
                                                  .build/obj_crkbd_rev1_tensotha_helios/serial_vendor.a(serial_vendor.o)
                                                  .build/obj_crkbd_rev1_tensotha_helios/ws2812_vendor.o (symbol from plugin)
pio_clear_instruction_memory                      .build/obj_crkbd_rev1_tensotha_helios/./lib/pico-sdk/src/rp2_common/hardware_pio/pio.o (symbol from plugin)
pio_remove_program                                .build/obj_crkbd_rev1_tensotha_helios/./lib/pico-sdk/src/rp2_common/hardware_pio/pio.o (symbol from plugin)
pio_sm_claim                                      .build/obj_crkbd_rev1_tensotha_helios/./lib/pico-sdk/src/rp2_common/hardware_pio/pio.o (symbol from plugin)
pio_sm_drain_tx_fifo                              .build/obj_crkbd_rev1_tensotha_helios/./lib/pico-sdk/src/rp2_common/hardware_pio/pio.o (symbol from plugin)
pio_sm_init                                       /var/folders/01/r6qc96lx1x7c0h1529l70j5m0000gn/T//ccqg8YyW.ltrans0.ltrans.o
                                                  .build/obj_crkbd_rev1_tensotha_helios/./lib/pico-sdk/src/rp2_common/hardware_pio/pio.o (symbol from plugin)
                                                  .build/obj_crkbd_rev1_tensotha_helios/serial_vendor.a(serial_vendor.o)
                                                  .build/obj_crkbd_rev1_tensotha_helios/ws2812_vendor.o (symbol from plugin)
pio_sm_is_claimed                                 .build/obj_crkbd_rev1_tensotha_helios/./lib/pico-sdk/src/rp2_common/hardware_pio/pio.o (symbol from plugin)
pio_sm_set_consecutive_pindirs                    /var/folders/01/r6qc96lx1x7c0h1529l70j5m0000gn/T//ccqg8YyW.ltrans0.ltrans.o
                                                  .build/obj_crkbd_rev1_tensotha_helios/./lib/pico-sdk/src/rp2_common/hardware_pio/pio.o (symbol from plugin)
                                                  .build/obj_crkbd_rev1_tensotha_helios/serial_vendor.a(serial_vendor.o)
                                                  .build/obj_crkbd_rev1_tensotha_helios/ws2812_vendor.o (symbol from plugin)
pio_sm_set_pindirs_with_mask                      .build/obj_crkbd_rev1_tensotha_helios/./lib/pico-sdk/src/rp2_common/hardware_pio/pio.o (symbol from plugin)
pio_sm_set_pins                                   .build/obj_crkbd_rev1_tensotha_helios/./lib/pico-sdk/src/rp2_common/hardware_pio/pio.o (symbol from plugin)
pio_sm_set_pins_with_mask                         /var/folders/01/r6qc96lx1x7c0h1529l70j5m0000gn/T//ccqg8YyW.ltrans0.ltrans.o
                                                  .build/obj_crkbd_rev1_tensotha_helios/./lib/pico-sdk/src/rp2_common/hardware_pio/pio.o (symbol from plugin)
                                                  .build/obj_crkbd_rev1_tensotha_helios/serial_vendor.a(serial_vendor.o)
pio_sm_unclaim                                    .build/obj_crkbd_rev1_tensotha_helios/./lib/pico-sdk/src/rp2_common/hardware_pio/pio.o (symbol from plugin)
platform.c.5aebd77e                               /var/folders/01/r6qc96lx1x7c0h1529l70j5m0000gn/T//ccZ3h3t9debugobj
                                                  /var/folders/01/r6qc96lx1x7c0h1529l70j5m0000gn/T//ccqg8YyW.ltrans0.ltrans.o
platform_setup                                    .build/obj_crkbd_rev1_tensotha_helios/platforms/chibios/platform.o (symbol from plugin)
                                                  .build/obj_crkbd_rev1_tensotha_helios/quantum/main.o (symbol from plugin)
pll.c.58ed1329                                    /var/folders/01/r6qc96lx1x7c0h1529l70j5m0000gn/T//ccZ3h3t9debugobj
                                                  /var/folders/01/r6qc96lx1x7c0h1529l70j5m0000gn/T//ccqg8YyW.ltrans0.ltrans.o
pll_deinit                                        .build/obj_crkbd_rev1_tensotha_helios/./lib/pico-sdk/src/rp2_common/hardware_pll/pll.o (symbol from plugin)
pll_init                                          .build/obj_crkbd_rev1_tensotha_helios/./lib/pico-sdk/src/rp2_common/hardware_pll/pll.o (symbol from plugin)
                                                  .build/obj_crkbd_rev1_tensotha_helios/./lib/pico-sdk/src/rp2_common/hardware_clocks/clocks.o (symbol from plugin)
port_init                                         .build/obj_crkbd_rev1_tensotha_helios/lib/chibios/os/common/ports/ARMv6-M-RP2/chcore.o (symbol from plugin)
                                                  .build/obj_crkbd_rev1_tensotha_helios/lib/chibios/os/rt/src/chinstances.o (symbol from plugin)
port_local_halt                                   .build/obj_crkbd_rev1_tensotha_helios/lib/chibios/os/common/ports/ARMv6-M-RP2/chcore.o (symbol from plugin)
post_process_record_kb                            .build/obj_crkbd_rev1_tensotha_helios/quantum/quantum.o (symbol from plugin)
post_process_record_quantum                       .build/obj_crkbd_rev1_tensotha_helios/quantum/quantum.o (symbol from plugin)
post_process_record_user                          .build/obj_crkbd_rev1_tensotha_helios/quantum/quantum.o (symbol from plugin)
pre_process_record_kb                             .build/obj_crkbd_rev1_tensotha_helios/quantum/quantum.o (symbol from plugin)
pre_process_record_quantum                        .build/obj_crkbd_rev1_tensotha_helios/quantum/quantum.o (symbol from plugin)
                                                  .build/obj_crkbd_rev1_tensotha_helios/quantum/action.o (symbol from plugin)
pre_process_record_user                           .build/obj_crkbd_rev1_tensotha_helios/quantum/quantum.o (symbol from plugin)
preprocess_rgblight                               .build/obj_crkbd_rev1_tensotha_helios/quantum/rgblight/rgblight.o (symbol from plugin)
                                                  .build/obj_crkbd_rev1_tensotha_helios/quantum/quantum.o (symbol from plugin)
print.c.a98b0034                                  /var/folders/01/r6qc96lx1x7c0h1529l70j5m0000gn/T//ccZ3h3t9debugobj
                                                  /var/folders/01/r6qc96lx1x7c0h1529l70j5m0000gn/T//ccqg8YyW.ltrans0.ltrans.o
print_set_sendchar                                .build/obj_crkbd_rev1_tensotha_helios/quantum/logging/print.o (symbol from plugin)
                                                  .build/obj_crkbd_rev1_tensotha_helios/quantum/keyboard.o (symbol from plugin)
printf                                            .build/obj_crkbd_rev1_tensotha_helios/printf.o (symbol from plugin)
printf.c.6ef2a39d                                 /var/folders/01/r6qc96lx1x7c0h1529l70j5m0000gn/T//ccZ3h3t9debugobj
                                                  /var/folders/01/r6qc96lx1x7c0h1529l70j5m0000gn/T//ccqg8YyW.ltrans0.ltrans.o
process_action                                    .build/obj_crkbd_rev1_tensotha_helios/quantum/action.o (symbol from plugin)
process_action_kb                                 .build/obj_crkbd_rev1_tensotha_helios/quantum/quantum.o (symbol from plugin)
process_grave_esc                                 .build/obj_crkbd_rev1_tensotha_helios/quantum/process_keycode/process_grave_esc.o (symbol from plugin)
                                                  .build/obj_crkbd_rev1_tensotha_helios/quantum/quantum.o (symbol from plugin)
process_grave_esc.c.0697cb4d                      /var/folders/01/r6qc96lx1x7c0h1529l70j5m0000gn/T//ccZ3h3t9debugobj
                                                  /var/folders/01/r6qc96lx1x7c0h1529l70j5m0000gn/T//ccqg8YyW.ltrans0.ltrans.o
process_magic                                     .build/obj_crkbd_rev1_tensotha_helios/quantum/process_keycode/process_magic.o (symbol from plugin)
                                                  .build/obj_crkbd_rev1_tensotha_helios/quantum/quantum.o (symbol from plugin)
process_magic.c.e812e073                          /var/folders/01/r6qc96lx1x7c0h1529l70j5m0000gn/T//ccZ3h3t9debugobj
                                                  /var/folders/01/r6qc96lx1x7c0h1529l70j5m0000gn/T//ccqg8YyW.ltrans0.ltrans.o
process_record                                    .build/obj_crkbd_rev1_tensotha_helios/quantum/action.o (symbol from plugin)
                                                  .build/obj_crkbd_rev1_tensotha_helios/quantum/action_tapping.o (symbol from plugin)
process_record_handler                            .build/obj_crkbd_rev1_tensotha_helios/quantum/action.o (symbol from plugin)
process_record_kb                                 .build/obj_crkbd_rev1_tensotha_helios/keyboards/crkbd/crkbd.o (symbol from plugin)
process_record_nocache                            .build/obj_crkbd_rev1_tensotha_helios/quantum/action.o (symbol from plugin)
process_record_quantum                            .build/obj_crkbd_rev1_tensotha_helios/quantum/quantum.o (symbol from plugin)
process_record_tap_hint                           .build/obj_crkbd_rev1_tensotha_helios/quantum/action.o (symbol from plugin)
                                                  .build/obj_crkbd_rev1_tensotha_helios/quantum/action_tapping.o (symbol from plugin)
process_record_user                               .build/obj_crkbd_rev1_tensotha_helios/quantum/quantum.o (symbol from plugin)
                                                  .build/obj_crkbd_rev1_tensotha_helios/keyboards/crkbd/crkbd.o (symbol from plugin)
process_rgb                                       .build/obj_crkbd_rev1_tensotha_helios/quantum/process_keycode/process_rgb.o (symbol from plugin)
                                                  .build/obj_crkbd_rev1_tensotha_helios/quantum/quantum.o (symbol from plugin)
process_rgb.c.dbd21ecc                            /var/folders/01/r6qc96lx1x7c0h1529l70j5m0000gn/T//ccZ3h3t9debugobj
                                                  /var/folders/01/r6qc96lx1x7c0h1529l70j5m0000gn/T//ccqg8YyW.ltrans0.ltrans.o
process_space_cadet                               .build/obj_crkbd_rev1_tensotha_helios/quantum/process_keycode/process_space_cadet.o (symbol from plugin)
                                                  .build/obj_crkbd_rev1_tensotha_helios/quantum/quantum.o (symbol from plugin)
process_space_cadet.c.0a4c1db8                    /var/folders/01/r6qc96lx1x7c0h1529l70j5m0000gn/T//ccZ3h3t9debugobj
                                                  /var/folders/01/r6qc96lx1x7c0h1529l70j5m0000gn/T//ccqg8YyW.ltrans0.ltrans.o
protocol_keyboard_task                            .build/obj_crkbd_rev1_tensotha_helios/quantum/main.o (symbol from plugin)
protocol_post_init                                .build/obj_crkbd_rev1_tensotha_helios/protocol/chibios/chibios.o (symbol from plugin)
                                                  .build/obj_crkbd_rev1_tensotha_helios/quantum/main.o (symbol from plugin)
protocol_post_task                                .build/obj_crkbd_rev1_tensotha_helios/protocol/chibios/chibios.o (symbol from plugin)
                                                  .build/obj_crkbd_rev1_tensotha_helios/quantum/main.o (symbol from plugin)
protocol_pre_init                                 .build/obj_crkbd_rev1_tensotha_helios/protocol/chibios/chibios.o (symbol from plugin)
                                                  .build/obj_crkbd_rev1_tensotha_helios/quantum/main.o (symbol from plugin)
protocol_pre_task                                 .build/obj_crkbd_rev1_tensotha_helios/protocol/chibios/chibios.o (symbol from plugin)
                                                  .build/obj_crkbd_rev1_tensotha_helios/quantum/main.o (symbol from plugin)
protocol_setup                                    .build/obj_crkbd_rev1_tensotha_helios/protocol/chibios/chibios.o (symbol from plugin)
                                                  .build/obj_crkbd_rev1_tensotha_helios/quantum/main.o (symbol from plugin)
putchar_                                          .build/obj_crkbd_rev1_tensotha_helios/quantum/logging/print.o (symbol from plugin)
                                                  .build/obj_crkbd_rev1_tensotha_helios/printf.o (symbol from plugin)
qmk_fnv_type_validation.c.20c9ec5c                /var/folders/01/r6qc96lx1x7c0h1529l70j5m0000gn/T//ccZ3h3t9debugobj
quantum.c.2da3dcfe                                /var/folders/01/r6qc96lx1x7c0h1529l70j5m0000gn/T//ccZ3h3t9debugobj
                                                  /var/folders/01/r6qc96lx1x7c0h1529l70j5m0000gn/T//ccqg8YyW.ltrans0.ltrans.o
quantum_init                                      .build/obj_crkbd_rev1_tensotha_helios/quantum/keyboard.o (symbol from plugin)
quantum_task                                      .build/obj_crkbd_rev1_tensotha_helios/quantum/keyboard.o (symbol from plugin)
raise                                             /opt/homebrew/Cellar/arm-none-eabi-gcc@8/8.5.0_2/lib/arm-none-eabi-gcc/8/gcc/arm-none-eabi/8.5.0/../../../../../../arm-none-eabi/lib/thumb/v6-m/nofp/libg_nano.a(lib_a-signal.o)
                                                  /opt/homebrew/Cellar/arm-none-eabi-gcc@8/8.5.0_2/lib/arm-none-eabi-gcc/8/gcc/arm-none-eabi/8.5.0/../../../../../../arm-none-eabi/lib/thumb/v6-m/nofp/libg_nano.a(lib_a-abort.o)
rand                                              /opt/homebrew/Cellar/arm-none-eabi-gcc@8/8.5.0_2/lib/arm-none-eabi-gcc/8/gcc/arm-none-eabi/8.5.0/../../../../../../arm-none-eabi/lib/thumb/v6-m/nofp/libg_nano.a(lib_a-rand.o)
                                                  /var/folders/01/r6qc96lx1x7c0h1529l70j5m0000gn/T//ccqg8YyW.ltrans0.ltrans.o
                                                  .build/obj_crkbd_rev1_tensotha_helios/quantum/send_string/send_string.o (symbol from plugin)
                                                  .build/obj_crkbd_rev1_tensotha_helios/quantum/rgblight/rgblight.o (symbol from plugin)
raw_matrix                                        .build/obj_crkbd_rev1_tensotha_helios/quantum/matrix_common.o (symbol from plugin)
                                                  .build/obj_crkbd_rev1_tensotha_helios/quantum/matrix.o (symbol from plugin)
read_source_layers_cache                          .build/obj_crkbd_rev1_tensotha_helios/quantum/action_layer.o (symbol from plugin)
                                                  .build/obj_crkbd_rev1_tensotha_helios/quantum/quantum.o (symbol from plugin)
read_source_layers_cache_impl                     .build/obj_crkbd_rev1_tensotha_helios/quantum/action_layer.o (symbol from plugin)
register_code                                     .build/obj_crkbd_rev1_tensotha_helios/quantum/action.o (symbol from plugin)
                                                  .build/obj_crkbd_rev1_tensotha_helios/quantum/send_string/send_string.o (symbol from plugin)
                                                  .build/obj_crkbd_rev1_tensotha_helios/quantum/quantum.o (symbol from plugin)
register_code16                                   .build/obj_crkbd_rev1_tensotha_helios/quantum/quantum.o (symbol from plugin)
register_mods                                     .build/obj_crkbd_rev1_tensotha_helios/quantum/action.o (symbol from plugin)
                                                  .build/obj_crkbd_rev1_tensotha_helios/quantum/process_keycode/process_space_cadet.o (symbol from plugin)
                                                  .build/obj_crkbd_rev1_tensotha_helios/quantum/quantum.o (symbol from plugin)
register_mouse                                    .build/obj_crkbd_rev1_tensotha_helios/quantum/action.o (symbol from plugin)
register_weak_mods                                .build/obj_crkbd_rev1_tensotha_helios/quantum/action.o (symbol from plugin)
                                                  .build/obj_crkbd_rev1_tensotha_helios/quantum/quantum.o (symbol from plugin)
report.c.8588d48e                                 /var/folders/01/r6qc96lx1x7c0h1529l70j5m0000gn/T//ccZ3h3t9debugobj
                                                  /var/folders/01/r6qc96lx1x7c0h1529l70j5m0000gn/T//ccqg8YyW.ltrans0.ltrans.o
reset_keyboard                                    .build/obj_crkbd_rev1_tensotha_helios/quantum/quantum.o (symbol from plugin)
reset_oneshot_layer                               .build/obj_crkbd_rev1_tensotha_helios/quantum/action_util.o (symbol from plugin)
reset_space_cadet                                 .build/obj_crkbd_rev1_tensotha_helios/quantum/process_keycode/process_space_cadet.o (symbol from plugin)
restart_usb_driver                                .build/obj_crkbd_rev1_tensotha_helios/protocol/chibios/usb_main.o (symbol from plugin)
rgblight.c.ce590bbf                               /var/folders/01/r6qc96lx1x7c0h1529l70j5m0000gn/T//ccZ3h3t9debugobj
                                                  /var/folders/01/r6qc96lx1x7c0h1529l70j5m0000gn/T//ccqg8YyW.ltrans0.ltrans.o
rgblight_check_config                             .build/obj_crkbd_rev1_tensotha_helios/quantum/rgblight/rgblight.o (symbol from plugin)
rgblight_clear_change_flags                       .build/obj_crkbd_rev1_tensotha_helios/quantum/rgblight/rgblight.o (symbol from plugin)
                                                  .build/obj_crkbd_rev1_tensotha_helios/quantum/split_common/transactions.o (symbol from plugin)
rgblight_config                                   .build/obj_crkbd_rev1_tensotha_helios/quantum/rgblight/rgblight.o (symbol from plugin)
rgblight_decrease                                 .build/obj_crkbd_rev1_tensotha_helios/quantum/rgblight/rgblight.o (symbol from plugin)
rgblight_decrease_hue                             .build/obj_crkbd_rev1_tensotha_helios/quantum/rgblight/rgblight.o (symbol from plugin)
                                                  .build/obj_crkbd_rev1_tensotha_helios/quantum/process_keycode/process_rgb.o (symbol from plugin)
rgblight_decrease_hue_helper                      .build/obj_crkbd_rev1_tensotha_helios/quantum/rgblight/rgblight.o (symbol from plugin)
rgblight_decrease_hue_noeeprom                    .build/obj_crkbd_rev1_tensotha_helios/quantum/rgblight/rgblight.o (symbol from plugin)
rgblight_decrease_sat                             .build/obj_crkbd_rev1_tensotha_helios/quantum/rgblight/rgblight.o (symbol from plugin)
                                                  .build/obj_crkbd_rev1_tensotha_helios/quantum/process_keycode/process_rgb.o (symbol from plugin)
rgblight_decrease_sat_helper                      .build/obj_crkbd_rev1_tensotha_helios/quantum/rgblight/rgblight.o (symbol from plugin)
rgblight_decrease_sat_noeeprom                    .build/obj_crkbd_rev1_tensotha_helios/quantum/rgblight/rgblight.o (symbol from plugin)
rgblight_decrease_speed                           .build/obj_crkbd_rev1_tensotha_helios/quantum/rgblight/rgblight.o (symbol from plugin)
                                                  .build/obj_crkbd_rev1_tensotha_helios/quantum/process_keycode/process_rgb.o (symbol from plugin)
rgblight_decrease_speed_helper                    .build/obj_crkbd_rev1_tensotha_helios/quantum/rgblight/rgblight.o (symbol from plugin)
rgblight_decrease_speed_noeeprom                  .build/obj_crkbd_rev1_tensotha_helios/quantum/rgblight/rgblight.o (symbol from plugin)
rgblight_decrease_val                             .build/obj_crkbd_rev1_tensotha_helios/quantum/rgblight/rgblight.o (symbol from plugin)
                                                  .build/obj_crkbd_rev1_tensotha_helios/quantum/process_keycode/process_rgb.o (symbol from plugin)
rgblight_decrease_val_helper                      .build/obj_crkbd_rev1_tensotha_helios/quantum/rgblight/rgblight.o (symbol from plugin)
rgblight_decrease_val_noeeprom                    .build/obj_crkbd_rev1_tensotha_helios/quantum/rgblight/rgblight.o (symbol from plugin)
rgblight_disable                                  .build/obj_crkbd_rev1_tensotha_helios/quantum/rgblight/rgblight.o (symbol from plugin)
rgblight_disable_noeeprom                         .build/obj_crkbd_rev1_tensotha_helios/quantum/rgblight/rgblight.o (symbol from plugin)
rgblight_driver                                   .build/obj_crkbd_rev1_tensotha_helios/quantum/rgblight/rgblight_drivers.o (symbol from plugin)
                                                  .build/obj_crkbd_rev1_tensotha_helios/quantum/rgblight/rgblight.o (symbol from plugin)
rgblight_drivers.c.9f007a77                       /var/folders/01/r6qc96lx1x7c0h1529l70j5m0000gn/T//ccZ3h3t9debugobj
                                                  /var/folders/01/r6qc96lx1x7c0h1529l70j5m0000gn/T//ccqg8YyW.ltrans0.ltrans.o
rgblight_effect_alternating                       .build/obj_crkbd_rev1_tensotha_helios/quantum/rgblight/rgblight.o (symbol from plugin)
rgblight_effect_breathe_table                     .build/obj_crkbd_rev1_tensotha_helios/quantum/rgblight/rgblight.o (symbol from plugin)
rgblight_effect_breathing                         .build/obj_crkbd_rev1_tensotha_helios/quantum/rgblight/rgblight.o (symbol from plugin)
rgblight_effect_christmas                         .build/obj_crkbd_rev1_tensotha_helios/quantum/rgblight/rgblight.o (symbol from plugin)
rgblight_effect_knight                            .build/obj_crkbd_rev1_tensotha_helios/quantum/rgblight/rgblight.o (symbol from plugin)
rgblight_effect_rainbow_mood                      .build/obj_crkbd_rev1_tensotha_helios/quantum/rgblight/rgblight.o (symbol from plugin)
rgblight_effect_rainbow_swirl                     .build/obj_crkbd_rev1_tensotha_helios/quantum/rgblight/rgblight.o (symbol from plugin)
rgblight_effect_rgbtest                           .build/obj_crkbd_rev1_tensotha_helios/quantum/rgblight/rgblight.o (symbol from plugin)
rgblight_effect_snake                             .build/obj_crkbd_rev1_tensotha_helios/quantum/rgblight/rgblight.o (symbol from plugin)
rgblight_effect_twinkle                           .build/obj_crkbd_rev1_tensotha_helios/quantum/rgblight/rgblight.o (symbol from plugin)
rgblight_enable                                   .build/obj_crkbd_rev1_tensotha_helios/quantum/rgblight/rgblight.o (symbol from plugin)
rgblight_enable_noeeprom                          .build/obj_crkbd_rev1_tensotha_helios/quantum/rgblight/rgblight.o (symbol from plugin)
rgblight_enabled_noeeprom                         .build/obj_crkbd_rev1_tensotha_helios/quantum/rgblight/rgblight.o (symbol from plugin)
rgblight_get_change_flags                         .build/obj_crkbd_rev1_tensotha_helios/quantum/rgblight/rgblight.o (symbol from plugin)
rgblight_get_hsv                                  .build/obj_crkbd_rev1_tensotha_helios/quantum/rgblight/rgblight.o (symbol from plugin)
rgblight_get_hue                                  .build/obj_crkbd_rev1_tensotha_helios/quantum/rgblight/rgblight.o (symbol from plugin)
rgblight_get_mode                                 .build/obj_crkbd_rev1_tensotha_helios/quantum/rgblight/rgblight.o (symbol from plugin)
                                                  .build/obj_crkbd_rev1_tensotha_helios/quantum/process_keycode/process_rgb.o (symbol from plugin)
rgblight_get_sat                                  .build/obj_crkbd_rev1_tensotha_helios/quantum/rgblight/rgblight.o (symbol from plugin)
rgblight_get_speed                                .build/obj_crkbd_rev1_tensotha_helios/quantum/rgblight/rgblight.o (symbol from plugin)
rgblight_get_syncinfo                             .build/obj_crkbd_rev1_tensotha_helios/quantum/rgblight/rgblight.o (symbol from plugin)
                                                  .build/obj_crkbd_rev1_tensotha_helios/quantum/split_common/transactions.o (symbol from plugin)
rgblight_get_val                                  .build/obj_crkbd_rev1_tensotha_helios/quantum/rgblight/rgblight.o (symbol from plugin)
rgblight_hsv_to_rgb                               .build/obj_crkbd_rev1_tensotha_helios/quantum/rgblight/rgblight.o (symbol from plugin)
rgblight_increase                                 .build/obj_crkbd_rev1_tensotha_helios/quantum/rgblight/rgblight.o (symbol from plugin)
rgblight_increase_hue                             .build/obj_crkbd_rev1_tensotha_helios/quantum/rgblight/rgblight.o (symbol from plugin)
                                                  .build/obj_crkbd_rev1_tensotha_helios/quantum/process_keycode/process_rgb.o (symbol from plugin)
rgblight_increase_hue_helper                      .build/obj_crkbd_rev1_tensotha_helios/quantum/rgblight/rgblight.o (symbol from plugin)
rgblight_increase_hue_noeeprom                    .build/obj_crkbd_rev1_tensotha_helios/quantum/rgblight/rgblight.o (symbol from plugin)
rgblight_increase_sat                             .build/obj_crkbd_rev1_tensotha_helios/quantum/rgblight/rgblight.o (symbol from plugin)
                                                  .build/obj_crkbd_rev1_tensotha_helios/quantum/process_keycode/process_rgb.o (symbol from plugin)
rgblight_increase_sat_helper                      .build/obj_crkbd_rev1_tensotha_helios/quantum/rgblight/rgblight.o (symbol from plugin)
rgblight_increase_sat_noeeprom                    .build/obj_crkbd_rev1_tensotha_helios/quantum/rgblight/rgblight.o (symbol from plugin)
rgblight_increase_speed                           .build/obj_crkbd_rev1_tensotha_helios/quantum/rgblight/rgblight.o (symbol from plugin)
                                                  .build/obj_crkbd_rev1_tensotha_helios/quantum/process_keycode/process_rgb.o (symbol from plugin)
rgblight_increase_speed_helper                    .build/obj_crkbd_rev1_tensotha_helios/quantum/rgblight/rgblight.o (symbol from plugin)
rgblight_increase_speed_noeeprom                  .build/obj_crkbd_rev1_tensotha_helios/quantum/rgblight/rgblight.o (symbol from plugin)
rgblight_increase_val                             .build/obj_crkbd_rev1_tensotha_helios/quantum/rgblight/rgblight.o (symbol from plugin)
                                                  .build/obj_crkbd_rev1_tensotha_helios/quantum/process_keycode/process_rgb.o (symbol from plugin)
rgblight_increase_val_helper                      .build/obj_crkbd_rev1_tensotha_helios/quantum/rgblight/rgblight.o (symbol from plugin)
rgblight_increase_val_noeeprom                    .build/obj_crkbd_rev1_tensotha_helios/quantum/rgblight/rgblight.o (symbol from plugin)
rgblight_init                                     .build/obj_crkbd_rev1_tensotha_helios/quantum/rgblight/rgblight.o (symbol from plugin)
                                                  .build/obj_crkbd_rev1_tensotha_helios/quantum/keyboard.o (symbol from plugin)
rgblight_is_enabled                               .build/obj_crkbd_rev1_tensotha_helios/quantum/rgblight/rgblight.o (symbol from plugin)
rgblight_mode                                     .build/obj_crkbd_rev1_tensotha_helios/quantum/rgblight/rgblight.o (symbol from plugin)
                                                  .build/obj_crkbd_rev1_tensotha_helios/quantum/process_keycode/process_rgb.o (symbol from plugin)
rgblight_mode_eeprom_helper                       .build/obj_crkbd_rev1_tensotha_helios/quantum/rgblight/rgblight.o (symbol from plugin)
rgblight_mode_noeeprom                            .build/obj_crkbd_rev1_tensotha_helios/quantum/rgblight/rgblight.o (symbol from plugin)
rgblight_ranges                                   .build/obj_crkbd_rev1_tensotha_helios/quantum/rgblight/rgblight.o (symbol from plugin)
rgblight_read_qword                               .build/obj_crkbd_rev1_tensotha_helios/quantum/rgblight/rgblight.o (symbol from plugin)
rgblight_reload_from_eeprom                       .build/obj_crkbd_rev1_tensotha_helios/quantum/rgblight/rgblight.o (symbol from plugin)
rgblight_set                                      .build/obj_crkbd_rev1_tensotha_helios/quantum/rgblight/rgblight.o (symbol from plugin)
rgblight_set_clipping_range                       .build/obj_crkbd_rev1_tensotha_helios/quantum/rgblight/rgblight.o (symbol from plugin)
                                                  .build/obj_crkbd_rev1_tensotha_helios/quantum/split_common/split_util.o (symbol from plugin)
rgblight_set_effect_range                         .build/obj_crkbd_rev1_tensotha_helios/quantum/rgblight/rgblight.o (symbol from plugin)
rgblight_set_speed                                .build/obj_crkbd_rev1_tensotha_helios/quantum/rgblight/rgblight.o (symbol from plugin)
rgblight_set_speed_eeprom_helper                  .build/obj_crkbd_rev1_tensotha_helios/quantum/rgblight/rgblight.o (symbol from plugin)
rgblight_set_speed_noeeprom                       .build/obj_crkbd_rev1_tensotha_helios/quantum/rgblight/rgblight.o (symbol from plugin)
rgblight_sethsv                                   .build/obj_crkbd_rev1_tensotha_helios/quantum/rgblight/rgblight.o (symbol from plugin)
rgblight_sethsv_at                                .build/obj_crkbd_rev1_tensotha_helios/quantum/rgblight/rgblight.o (symbol from plugin)
rgblight_sethsv_eeprom_helper                     .build/obj_crkbd_rev1_tensotha_helios/quantum/rgblight/rgblight.o (symbol from plugin)
rgblight_sethsv_noeeprom                          .build/obj_crkbd_rev1_tensotha_helios/quantum/rgblight/rgblight.o (symbol from plugin)
rgblight_sethsv_noeeprom_old                      .build/obj_crkbd_rev1_tensotha_helios/quantum/rgblight/rgblight.o (symbol from plugin)
rgblight_sethsv_range                             .build/obj_crkbd_rev1_tensotha_helios/quantum/rgblight/rgblight.o (symbol from plugin)
rgblight_setrgb                                   .build/obj_crkbd_rev1_tensotha_helios/quantum/rgblight/rgblight.o (symbol from plugin)
rgblight_setrgb_at                                .build/obj_crkbd_rev1_tensotha_helios/quantum/rgblight/rgblight.o (symbol from plugin)
rgblight_setrgb_range                             .build/obj_crkbd_rev1_tensotha_helios/quantum/rgblight/rgblight.o (symbol from plugin)
rgblight_show_solid_color                         .build/obj_crkbd_rev1_tensotha_helios/quantum/rgblight/rgblight.o (symbol from plugin)
rgblight_status                                   .build/obj_crkbd_rev1_tensotha_helios/quantum/rgblight/rgblight.o (symbol from plugin)
rgblight_step                                     .build/obj_crkbd_rev1_tensotha_helios/quantum/rgblight/rgblight.o (symbol from plugin)
                                                  .build/obj_crkbd_rev1_tensotha_helios/quantum/process_keycode/process_rgb.o (symbol from plugin)
rgblight_step_helper                              .build/obj_crkbd_rev1_tensotha_helios/quantum/rgblight/rgblight.o (symbol from plugin)
rgblight_step_noeeprom                            .build/obj_crkbd_rev1_tensotha_helios/quantum/rgblight/rgblight.o (symbol from plugin)
rgblight_step_reverse                             .build/obj_crkbd_rev1_tensotha_helios/quantum/rgblight/rgblight.o (symbol from plugin)
                                                  .build/obj_crkbd_rev1_tensotha_helios/quantum/process_keycode/process_rgb.o (symbol from plugin)
rgblight_step_reverse_helper                      .build/obj_crkbd_rev1_tensotha_helios/quantum/rgblight/rgblight.o (symbol from plugin)
rgblight_step_reverse_noeeprom                    .build/obj_crkbd_rev1_tensotha_helios/quantum/rgblight/rgblight.o (symbol from plugin)
rgblight_task                                     .build/obj_crkbd_rev1_tensotha_helios/quantum/rgblight/rgblight.o (symbol from plugin)
                                                  .build/obj_crkbd_rev1_tensotha_helios/quantum/keyboard.o (symbol from plugin)
rgblight_timer_disable                            .build/obj_crkbd_rev1_tensotha_helios/quantum/rgblight/rgblight.o (symbol from plugin)
rgblight_timer_enable                             .build/obj_crkbd_rev1_tensotha_helios/quantum/rgblight/rgblight.o (symbol from plugin)
rgblight_timer_init                               .build/obj_crkbd_rev1_tensotha_helios/quantum/rgblight/rgblight.o (symbol from plugin)
rgblight_timer_task                               .build/obj_crkbd_rev1_tensotha_helios/quantum/rgblight/rgblight.o (symbol from plugin)
rgblight_timer_toggle                             .build/obj_crkbd_rev1_tensotha_helios/quantum/rgblight/rgblight.o (symbol from plugin)
rgblight_toggle                                   .build/obj_crkbd_rev1_tensotha_helios/quantum/rgblight/rgblight.o (symbol from plugin)
                                                  .build/obj_crkbd_rev1_tensotha_helios/quantum/process_keycode/process_rgb.o (symbol from plugin)
rgblight_toggle_noeeprom                          .build/obj_crkbd_rev1_tensotha_helios/quantum/rgblight/rgblight.o (symbol from plugin)
rgblight_update_qword                             .build/obj_crkbd_rev1_tensotha_helios/quantum/rgblight/rgblight.o (symbol from plugin)
rgblight_update_sync                              .build/obj_crkbd_rev1_tensotha_helios/quantum/rgblight/rgblight.o (symbol from plugin)
                                                  .build/obj_crkbd_rev1_tensotha_helios/quantum/split_common/transactions.o (symbol from plugin)
rom_data_lookup                                   .build/obj_crkbd_rev1_tensotha_helios/./lib/pico-sdk/src/rp2_common/pico_bootrom/bootrom.o (symbol from plugin)
rom_func_lookup                                   .build/obj_crkbd_rev1_tensotha_helios/./lib/pico-sdk/src/rp2_common/pico_bootrom/bootrom.o (symbol from plugin)
                                                  .build/obj_crkbd_rev1_tensotha_helios/platforms/chibios/bootloaders/rp2040.o (symbol from plugin)
rom_funcs_lookup                                  .build/obj_crkbd_rev1_tensotha_helios/./lib/pico-sdk/src/rp2_common/pico_bootrom/bootrom.o (symbol from plugin)
rp2040.c.8c275b90                                 /var/folders/01/r6qc96lx1x7c0h1529l70j5m0000gn/T//ccZ3h3t9debugobj
                                                  /var/folders/01/r6qc96lx1x7c0h1529l70j5m0000gn/T//ccqg8YyW.ltrans0.ltrans.o
rp_dma.c.59032a0d                                 /var/folders/01/r6qc96lx1x7c0h1529l70j5m0000gn/T//ccZ3h3t9debugobj
                                                  /var/folders/01/r6qc96lx1x7c0h1529l70j5m0000gn/T//ccqg8YyW.ltrans0.ltrans.o
rp_isr.c.e6b0b58c                                 /var/folders/01/r6qc96lx1x7c0h1529l70j5m0000gn/T//ccZ3h3t9debugobj
                                                  /var/folders/01/r6qc96lx1x7c0h1529l70j5m0000gn/T//ccqg8YyW.ltrans0.ltrans.o
rx_thread                                         .build/obj_crkbd_rev1_tensotha_helios/serial_vendor.a(serial_vendor.o)
send_6kro_report                                  .build/obj_crkbd_rev1_tensotha_helios/quantum/action_util.o (symbol from plugin)
send_byte                                         .build/obj_crkbd_rev1_tensotha_helios/quantum/send_string/send_string.o (symbol from plugin)
send_char                                         .build/obj_crkbd_rev1_tensotha_helios/quantum/send_string/send_string.o (symbol from plugin)
send_char_with_delay                              .build/obj_crkbd_rev1_tensotha_helios/quantum/send_string/send_string.o (symbol from plugin)
send_digitizer                                    .build/obj_crkbd_rev1_tensotha_helios/protocol/chibios/usb_main.o (symbol from plugin)
                                                  .build/obj_crkbd_rev1_tensotha_helios/protocol/host.o (symbol from plugin)
send_dword                                        .build/obj_crkbd_rev1_tensotha_helios/quantum/send_string/send_string.o (symbol from plugin)
send_extra                                        .build/obj_crkbd_rev1_tensotha_helios/protocol/chibios/usb_main.o (symbol from plugin)
                                                  .build/obj_crkbd_rev1_tensotha_helios/protocol/chibios/chibios.o (symbol from plugin)
send_joystick                                     .build/obj_crkbd_rev1_tensotha_helios/protocol/chibios/usb_main.o (symbol from plugin)
                                                  .build/obj_crkbd_rev1_tensotha_helios/protocol/host.o (symbol from plugin)
send_keyboard                                     .build/obj_crkbd_rev1_tensotha_helios/protocol/chibios/usb_main.o (symbol from plugin)
                                                  .build/obj_crkbd_rev1_tensotha_helios/protocol/chibios/chibios.o (symbol from plugin)
send_keyboard_report                              .build/obj_crkbd_rev1_tensotha_helios/quantum/action_util.o (symbol from plugin)
                                                  .build/obj_crkbd_rev1_tensotha_helios/quantum/process_keycode/process_grave_esc.o (symbol from plugin)
                                                  .build/obj_crkbd_rev1_tensotha_helios/quantum/action.o (symbol from plugin)
send_mouse                                        .build/obj_crkbd_rev1_tensotha_helios/protocol/chibios/usb_main.o (symbol from plugin)
                                                  .build/obj_crkbd_rev1_tensotha_helios/protocol/chibios/chibios.o (symbol from plugin)
send_nibble                                       .build/obj_crkbd_rev1_tensotha_helios/quantum/send_string/send_string.o (symbol from plugin)
send_nkro                                         .build/obj_crkbd_rev1_tensotha_helios/protocol/chibios/usb_main.o (symbol from plugin)
                                                  .build/obj_crkbd_rev1_tensotha_helios/protocol/chibios/chibios.o (symbol from plugin)
send_nkro_report                                  .build/obj_crkbd_rev1_tensotha_helios/quantum/action_util.o (symbol from plugin)
send_programmable_button                          .build/obj_crkbd_rev1_tensotha_helios/protocol/chibios/usb_main.o (symbol from plugin)
                                                  .build/obj_crkbd_rev1_tensotha_helios/protocol/host.o (symbol from plugin)
send_report                                       .build/obj_crkbd_rev1_tensotha_helios/protocol/chibios/usb_main.o (symbol from plugin)
                                                  .build/obj_crkbd_rev1_tensotha_helios/protocol/chibios/usb_report_handling.o (symbol from plugin)
send_string                                       .build/obj_crkbd_rev1_tensotha_helios/quantum/send_string/send_string.o (symbol from plugin)
send_string.c.ca25457e                            /var/folders/01/r6qc96lx1x7c0h1529l70j5m0000gn/T//ccZ3h3t9debugobj
send_string_with_delay                            .build/obj_crkbd_rev1_tensotha_helios/quantum/send_string/send_string.o (symbol from plugin)
send_word                                         .build/obj_crkbd_rev1_tensotha_helios/quantum/send_string/send_string.o (symbol from plugin)
sendchar                                          .build/obj_crkbd_rev1_tensotha_helios/quantum/logging/sendchar.o (symbol from plugin)
                                                  .build/obj_crkbd_rev1_tensotha_helios/quantum/keyboard.o (symbol from plugin)
sendchar.c.9f2c1ca9                               /var/folders/01/r6qc96lx1x7c0h1529l70j5m0000gn/T//ccZ3h3t9debugobj
                                                  /var/folders/01/r6qc96lx1x7c0h1529l70j5m0000gn/T//ccqg8YyW.ltrans0.ltrans.o
serial_transport_driver_clear                     .build/obj_crkbd_rev1_tensotha_helios/serial_vendor.a(serial_vendor.o)
                                                  .build/obj_crkbd_rev1_tensotha_helios/serial_protocol.a(serial_protocol.o)
serial_transport_driver_master_init               .build/obj_crkbd_rev1_tensotha_helios/serial_vendor.a(serial_vendor.o)
                                                  .build/obj_crkbd_rev1_tensotha_helios/serial_protocol.a(serial_protocol.o)
serial_transport_driver_slave_init                .build/obj_crkbd_rev1_tensotha_helios/serial_vendor.a(serial_vendor.o)
                                                  .build/obj_crkbd_rev1_tensotha_helios/serial_protocol.a(serial_protocol.o)
serial_transport_receive                          .build/obj_crkbd_rev1_tensotha_helios/serial_vendor.a(serial_vendor.o)
                                                  .build/obj_crkbd_rev1_tensotha_helios/serial_protocol.a(serial_protocol.o)
serial_transport_receive_blocking                 .build/obj_crkbd_rev1_tensotha_helios/serial_vendor.a(serial_vendor.o)
                                                  .build/obj_crkbd_rev1_tensotha_helios/serial_protocol.a(serial_protocol.o)
serial_transport_send                             .build/obj_crkbd_rev1_tensotha_helios/serial_vendor.a(serial_vendor.o)
                                                  .build/obj_crkbd_rev1_tensotha_helios/serial_protocol.a(serial_protocol.o)
set_activity_timestamps                           .build/obj_crkbd_rev1_tensotha_helios/quantum/keyboard.o (symbol from plugin)
set_mods                                          .build/obj_crkbd_rev1_tensotha_helios/quantum/action_util.o (symbol from plugin)
set_oneshot_layer                                 .build/obj_crkbd_rev1_tensotha_helios/quantum/action_util.o (symbol from plugin)
                                                  .build/obj_crkbd_rev1_tensotha_helios/quantum/action.o (symbol from plugin)
set_oneshot_locked_mods                           .build/obj_crkbd_rev1_tensotha_helios/quantum/action_util.o (symbol from plugin)
set_oneshot_mods                                  .build/obj_crkbd_rev1_tensotha_helios/quantum/action_util.o (symbol from plugin)
set_single_persistent_default_layer               .build/obj_crkbd_rev1_tensotha_helios/quantum/quantum.o (symbol from plugin)
set_split_host_keyboard_leds                      .build/obj_crkbd_rev1_tensotha_helios/protocol/host.o (symbol from plugin)
set_weak_mods                                     .build/obj_crkbd_rev1_tensotha_helios/quantum/action_util.o (symbol from plugin)
sethsv                                            .build/obj_crkbd_rev1_tensotha_helios/quantum/rgblight/rgblight.o (symbol from plugin)
sethsv_raw                                        .build/obj_crkbd_rev1_tensotha_helios/quantum/rgblight/rgblight.o (symbol from plugin)
setrgb                                            .build/obj_crkbd_rev1_tensotha_helios/quantum/rgblight/rgblight.o (symbol from plugin)
should_mousekey_report_send                       .build/obj_crkbd_rev1_tensotha_helios/quantum/mousekey.o (symbol from plugin)
should_process_keypress                           .build/obj_crkbd_rev1_tensotha_helios/quantum/keyboard.o (symbol from plugin)
shutdown_kb                                       .build/obj_crkbd_rev1_tensotha_helios/quantum/quantum.o (symbol from plugin)
shutdown_quantum                                  .build/obj_crkbd_rev1_tensotha_helios/quantum/quantum.o (symbol from plugin)
shutdown_user                                     .build/obj_crkbd_rev1_tensotha_helios/quantum/quantum.o (symbol from plugin)
signal                                            /opt/homebrew/Cellar/arm-none-eabi-gcc@8/8.5.0_2/lib/arm-none-eabi-gcc/8/gcc/arm-none-eabi/8.5.0/../../../../../../arm-none-eabi/lib/thumb/v6-m/nofp/libg_nano.a(lib_a-signal.o)
snprintf                                          /var/folders/01/r6qc96lx1x7c0h1529l70j5m0000gn/T//ccqg8YyW.ltrans0.ltrans.o
soft_reset_keyboard                               .build/obj_crkbd_rev1_tensotha_helios/quantum/quantum.o (symbol from plugin)
soft_serial_initiator_init                        .build/obj_crkbd_rev1_tensotha_helios/serial_protocol.a(serial_protocol.o)
                                                  /var/folders/01/r6qc96lx1x7c0h1529l70j5m0000gn/T//ccqg8YyW.ltrans0.ltrans.o
                                                  .build/obj_crkbd_rev1_tensotha_helios/quantum/split_common/transport.o (symbol from plugin)
soft_serial_target_init                           .build/obj_crkbd_rev1_tensotha_helios/serial_protocol.a(serial_protocol.o)
                                                  /var/folders/01/r6qc96lx1x7c0h1529l70j5m0000gn/T//ccqg8YyW.ltrans0.ltrans.o
                                                  .build/obj_crkbd_rev1_tensotha_helios/quantum/split_common/transport.o (symbol from plugin)
soft_serial_transaction                           .build/obj_crkbd_rev1_tensotha_helios/serial_protocol.a(serial_protocol.o)
                                                  /var/folders/01/r6qc96lx1x7c0h1529l70j5m0000gn/T//ccqg8YyW.ltrans0.ltrans.o
                                                  .build/obj_crkbd_rev1_tensotha_helios/quantum/split_common/transport.o (symbol from plugin)
source_layers_cache                               .build/obj_crkbd_rev1_tensotha_helios/quantum/action_layer.o (symbol from plugin)
spiAcquireBus                                     .build/obj_crkbd_rev1_tensotha_helios/lib/chibios/os/hal/src/hal_spi.o (symbol from plugin)
spiExchange                                       .build/obj_crkbd_rev1_tensotha_helios/lib/chibios/os/hal/src/hal_spi.o (symbol from plugin)
spiIgnore                                         .build/obj_crkbd_rev1_tensotha_helios/lib/chibios/os/hal/src/hal_spi.o (symbol from plugin)
spiInit                                           .build/obj_crkbd_rev1_tensotha_helios/lib/chibios/os/hal/src/hal_spi.o (symbol from plugin)
                                                  .build/obj_crkbd_rev1_tensotha_helios/lib/chibios/os/hal/src/hal.o (symbol from plugin)
spiObjectInit                                     .build/obj_crkbd_rev1_tensotha_helios/lib/chibios/os/hal/src/hal_spi.o (symbol from plugin)
                                                  .build/obj_crkbd_rev1_tensotha_helios/lib/chibios/os/hal/ports/RP/LLD/SPIv1/hal_spi_lld.o (symbol from plugin)
spiReceive                                        .build/obj_crkbd_rev1_tensotha_helios/lib/chibios/os/hal/src/hal_spi.o (symbol from plugin)
spiReleaseBus                                     .build/obj_crkbd_rev1_tensotha_helios/lib/chibios/os/hal/src/hal_spi.o (symbol from plugin)
spiSelect                                         .build/obj_crkbd_rev1_tensotha_helios/lib/chibios/os/hal/src/hal_spi.o (symbol from plugin)
spiSend                                           .build/obj_crkbd_rev1_tensotha_helios/lib/chibios/os/hal/src/hal_spi.o (symbol from plugin)
spiStart                                          .build/obj_crkbd_rev1_tensotha_helios/lib/chibios/os/hal/src/hal_spi.o (symbol from plugin)
spiStartExchange                                  .build/obj_crkbd_rev1_tensotha_helios/lib/chibios/os/hal/src/hal_spi.o (symbol from plugin)
spiStartIgnore                                    .build/obj_crkbd_rev1_tensotha_helios/lib/chibios/os/hal/src/hal_spi.o (symbol from plugin)
spiStartReceive                                   .build/obj_crkbd_rev1_tensotha_helios/lib/chibios/os/hal/src/hal_spi.o (symbol from plugin)
spiStartSend                                      .build/obj_crkbd_rev1_tensotha_helios/lib/chibios/os/hal/src/hal_spi.o (symbol from plugin)
spiStop                                           .build/obj_crkbd_rev1_tensotha_helios/lib/chibios/os/hal/src/hal_spi.o (symbol from plugin)
spiUnselect                                       .build/obj_crkbd_rev1_tensotha_helios/lib/chibios/os/hal/src/hal_spi.o (symbol from plugin)
spi_lld_exchange                                  .build/obj_crkbd_rev1_tensotha_helios/lib/chibios/os/hal/ports/RP/LLD/SPIv1/hal_spi_lld.o (symbol from plugin)
                                                  .build/obj_crkbd_rev1_tensotha_helios/lib/chibios/os/hal/src/hal_spi.o (symbol from plugin)
spi_lld_ignore                                    .build/obj_crkbd_rev1_tensotha_helios/lib/chibios/os/hal/ports/RP/LLD/SPIv1/hal_spi_lld.o (symbol from plugin)
                                                  .build/obj_crkbd_rev1_tensotha_helios/lib/chibios/os/hal/src/hal_spi.o (symbol from plugin)
spi_lld_init                                      .build/obj_crkbd_rev1_tensotha_helios/lib/chibios/os/hal/ports/RP/LLD/SPIv1/hal_spi_lld.o (symbol from plugin)
                                                  .build/obj_crkbd_rev1_tensotha_helios/lib/chibios/os/hal/src/hal_spi.o (symbol from plugin)
spi_lld_polled_exchange                           .build/obj_crkbd_rev1_tensotha_helios/lib/chibios/os/hal/ports/RP/LLD/SPIv1/hal_spi_lld.o (symbol from plugin)
spi_lld_receive                                   .build/obj_crkbd_rev1_tensotha_helios/lib/chibios/os/hal/ports/RP/LLD/SPIv1/hal_spi_lld.o (symbol from plugin)
                                                  .build/obj_crkbd_rev1_tensotha_helios/lib/chibios/os/hal/src/hal_spi.o (symbol from plugin)
spi_lld_send                                      .build/obj_crkbd_rev1_tensotha_helios/lib/chibios/os/hal/ports/RP/LLD/SPIv1/hal_spi_lld.o (symbol from plugin)
                                                  .build/obj_crkbd_rev1_tensotha_helios/lib/chibios/os/hal/src/hal_spi.o (symbol from plugin)
spi_lld_start                                     .build/obj_crkbd_rev1_tensotha_helios/lib/chibios/os/hal/ports/RP/LLD/SPIv1/hal_spi_lld.o (symbol from plugin)
                                                  .build/obj_crkbd_rev1_tensotha_helios/lib/chibios/os/hal/src/hal_spi.o (symbol from plugin)
spi_lld_stop                                      .build/obj_crkbd_rev1_tensotha_helios/lib/chibios/os/hal/ports/RP/LLD/SPIv1/hal_spi_lld.o (symbol from plugin)
                                                  .build/obj_crkbd_rev1_tensotha_helios/lib/chibios/os/hal/src/hal_spi.o (symbol from plugin)
split_led_state                                   .build/obj_crkbd_rev1_tensotha_helios/protocol/host.o (symbol from plugin)
split_post_init                                   .build/obj_crkbd_rev1_tensotha_helios/quantum/split_common/split_util.o (symbol from plugin)
                                                  .build/obj_crkbd_rev1_tensotha_helios/quantum/keyboard.o (symbol from plugin)
split_pre_init                                    .build/obj_crkbd_rev1_tensotha_helios/quantum/split_common/split_util.o (symbol from plugin)
                                                  .build/obj_crkbd_rev1_tensotha_helios/quantum/keyboard.o (symbol from plugin)
split_shared_memory_autounlock_lock_helper        .build/obj_crkbd_rev1_tensotha_helios/platforms/synchronization_util.o (symbol from plugin)
split_shared_memory_autounlock_unlock_helper      .build/obj_crkbd_rev1_tensotha_helios/platforms/synchronization_util.o (symbol from plugin)
split_shared_memory_lock                          /var/folders/01/r6qc96lx1x7c0h1529l70j5m0000gn/T//ccqg8YyW.ltrans0.ltrans.o
                                                  .build/obj_crkbd_rev1_tensotha_helios/platforms/chibios/synchronization_util.o (symbol from plugin)
                                                  .build/obj_crkbd_rev1_tensotha_helios/serial_protocol.a(serial_protocol.o)
                                                  .build/obj_crkbd_rev1_tensotha_helios/platforms/synchronization_util.o (symbol from plugin)
                                                  .build/obj_crkbd_rev1_tensotha_helios/quantum/split_common/transactions.o (symbol from plugin)
split_shared_memory_unlock                        /var/folders/01/r6qc96lx1x7c0h1529l70j5m0000gn/T//ccqg8YyW.ltrans0.ltrans.o
                                                  .build/obj_crkbd_rev1_tensotha_helios/platforms/chibios/synchronization_util.o (symbol from plugin)
                                                  .build/obj_crkbd_rev1_tensotha_helios/serial_protocol.a(serial_protocol.o)
                                                  .build/obj_crkbd_rev1_tensotha_helios/platforms/synchronization_util.o (symbol from plugin)
                                                  .build/obj_crkbd_rev1_tensotha_helios/quantum/split_common/transactions.o (symbol from plugin)
split_shmem                                       /var/folders/01/r6qc96lx1x7c0h1529l70j5m0000gn/T//ccqg8YyW.ltrans0.ltrans.o
                                                  .build/obj_crkbd_rev1_tensotha_helios/quantum/split_common/transport.o (symbol from plugin)
                                                  .build/obj_crkbd_rev1_tensotha_helios/serial_protocol.a(serial_protocol.o)
                                                  .build/obj_crkbd_rev1_tensotha_helios/quantum/split_common/transactions.o (symbol from plugin)
split_transaction_table                           /var/folders/01/r6qc96lx1x7c0h1529l70j5m0000gn/T//ccqg8YyW.ltrans0.ltrans.o
                                                  .build/obj_crkbd_rev1_tensotha_helios/quantum/split_common/transactions.o (symbol from plugin)
                                                  .build/obj_crkbd_rev1_tensotha_helios/serial_protocol.a(serial_protocol.o)
                                                  .build/obj_crkbd_rev1_tensotha_helios/quantum/split_common/transport.o (symbol from plugin)
split_util.c.df407997                             /var/folders/01/r6qc96lx1x7c0h1529l70j5m0000gn/T//ccZ3h3t9debugobj
                                                  /var/folders/01/r6qc96lx1x7c0h1529l70j5m0000gn/T//ccqg8YyW.ltrans0.ltrans.o
sprintf                                           /var/folders/01/r6qc96lx1x7c0h1529l70j5m0000gn/T//ccqg8YyW.ltrans0.ltrans.o
srand                                             /opt/homebrew/Cellar/arm-none-eabi-gcc@8/8.5.0_2/lib/arm-none-eabi-gcc/8/gcc/arm-none-eabi/8.5.0/../../../../../../arm-none-eabi/lib/thumb/v6-m/nofp/libg_nano.a(lib_a-rand.o)
stBind                                            .build/obj_crkbd_rev1_tensotha_helios/lib/chibios/os/hal/src/hal_st.o (symbol from plugin)
stBindAlarmN                                      .build/obj_crkbd_rev1_tensotha_helios/lib/chibios/os/hal/src/hal_st.o (symbol from plugin)
                                                  .build/obj_crkbd_rev1_tensotha_helios/lib/chibios/os/common/ports/ARMv6-M-RP2/chcore.o (symbol from plugin)
stGetAlarm                                        .build/obj_crkbd_rev1_tensotha_helios/lib/chibios/os/hal/src/hal_st.o (symbol from plugin)
stGetAlarmN                                       .build/obj_crkbd_rev1_tensotha_helios/lib/chibios/os/hal/src/hal_st.o (symbol from plugin)
stGetCounter                                      .build/obj_crkbd_rev1_tensotha_helios/lib/chibios/os/hal/src/hal_st.o (symbol from plugin)
                                                  .build/obj_crkbd_rev1_tensotha_helios/lib/chibios-contrib/os/hal/ports/RP/LLD/I2Cv1/hal_i2c_lld.o (symbol from plugin)
                                                  .build/obj_crkbd_rev1_tensotha_helios/lib/chibios/os/rt/src/chthreads.o (symbol from plugin)
                                                  .build/obj_crkbd_rev1_tensotha_helios/lib/chibios/os/rt/src/chinstances.o (symbol from plugin)
                                                  .build/obj_crkbd_rev1_tensotha_helios/lib/chibios/os/rt/src/chvt.o (symbol from plugin)
                                                  .build/obj_crkbd_rev1_tensotha_helios/protocol/chibios/usb_report_handling.o (symbol from plugin)
                                                  .build/obj_crkbd_rev1_tensotha_helios/platforms/chibios/timer.o (symbol from plugin)
stInit                                            .build/obj_crkbd_rev1_tensotha_helios/lib/chibios/os/hal/src/hal_st.o (symbol from plugin)
                                                  .build/obj_crkbd_rev1_tensotha_helios/lib/chibios/os/hal/src/hal.o (symbol from plugin)
stIsAlarmActive                                   .build/obj_crkbd_rev1_tensotha_helios/lib/chibios/os/hal/src/hal_st.o (symbol from plugin)
stIsAlarmActiveN                                  .build/obj_crkbd_rev1_tensotha_helios/lib/chibios/os/hal/src/hal_st.o (symbol from plugin)
stSetAlarm                                        .build/obj_crkbd_rev1_tensotha_helios/lib/chibios/os/hal/src/hal_st.o (symbol from plugin)
stSetAlarmN                                       .build/obj_crkbd_rev1_tensotha_helios/lib/chibios/os/hal/src/hal_st.o (symbol from plugin)
                                                  .build/obj_crkbd_rev1_tensotha_helios/lib/chibios/os/rt/src/chvt.o (symbol from plugin)
stSetCallback                                     .build/obj_crkbd_rev1_tensotha_helios/lib/chibios/os/hal/src/hal_st.o (symbol from plugin)
stStartAlarm                                      .build/obj_crkbd_rev1_tensotha_helios/lib/chibios/os/hal/src/hal_st.o (symbol from plugin)
stStartAlarmN                                     .build/obj_crkbd_rev1_tensotha_helios/lib/chibios/os/hal/src/hal_st.o (symbol from plugin)
                                                  .build/obj_crkbd_rev1_tensotha_helios/lib/chibios/os/rt/src/chvt.o (symbol from plugin)
stStopAlarm                                       .build/obj_crkbd_rev1_tensotha_helios/lib/chibios/os/hal/src/hal_st.o (symbol from plugin)
stStopAlarmN                                      .build/obj_crkbd_rev1_tensotha_helios/lib/chibios/os/hal/src/hal_st.o (symbol from plugin)
                                                  .build/obj_crkbd_rev1_tensotha_helios/lib/chibios/os/rt/src/chvt.o (symbol from plugin)
st_callbacks                                      .build/obj_crkbd_rev1_tensotha_helios/lib/chibios/os/hal/src/hal_st.o (symbol from plugin)
                                                  .build/obj_crkbd_rev1_tensotha_helios/lib/chibios/os/hal/ports/RP/LLD/TIMERv1/hal_st_lld.o (symbol from plugin)
st_lld_bind                                       .build/obj_crkbd_rev1_tensotha_helios/lib/chibios/os/hal/ports/RP/LLD/TIMERv1/hal_st_lld.o (symbol from plugin)
                                                  .build/obj_crkbd_rev1_tensotha_helios/lib/chibios/os/hal/src/hal_st.o (symbol from plugin)
st_lld_bind_alarm_n                               .build/obj_crkbd_rev1_tensotha_helios/lib/chibios/os/hal/ports/RP/LLD/TIMERv1/hal_st_lld.o (symbol from plugin)
                                                  .build/obj_crkbd_rev1_tensotha_helios/lib/chibios/os/hal/src/hal_st.o (symbol from plugin)
st_lld_init                                       .build/obj_crkbd_rev1_tensotha_helios/lib/chibios/os/hal/ports/RP/LLD/TIMERv1/hal_st_lld.o (symbol from plugin)
                                                  .build/obj_crkbd_rev1_tensotha_helios/lib/chibios/os/hal/src/hal_st.o (symbol from plugin)
stage2_bootloaders.c.d3c1738b                     /var/folders/01/r6qc96lx1x7c0h1529l70j5m0000gn/T//ccZ3h3t9debugobj
                                                  /var/folders/01/r6qc96lx1x7c0h1529l70j5m0000gn/T//ccqg8YyW.ltrans0.ltrans.o
store_or_get_action                               .build/obj_crkbd_rev1_tensotha_helios/quantum/action_layer.o (symbol from plugin)
                                                  .build/obj_crkbd_rev1_tensotha_helios/quantum/action.o (symbol from plugin)
strlen                                            /opt/homebrew/Cellar/arm-none-eabi-gcc@8/8.5.0_2/lib/arm-none-eabi-gcc/8/gcc/arm-none-eabi/8.5.0/../../../../../../arm-none-eabi/lib/thumb/v6-m/nofp/libg_nano.a(lib_a-strlen-stub.o)
                                                  /var/folders/01/r6qc96lx1x7c0h1529l70j5m0000gn/T//ccqg8YyW.ltrans0.ltrans.o
suspend.c.6ad8ed27                                /var/folders/01/r6qc96lx1x7c0h1529l70j5m0000gn/T//ccZ3h3t9debugobj
                                                  /var/folders/01/r6qc96lx1x7c0h1529l70j5m0000gn/T//ccqg8YyW.ltrans0.ltrans.o
suspend.c.73dc018d                                /var/folders/01/r6qc96lx1x7c0h1529l70j5m0000gn/T//ccZ3h3t9debugobj
                                                  /var/folders/01/r6qc96lx1x7c0h1529l70j5m0000gn/T//ccqg8YyW.ltrans0.ltrans.o
suspend_power_down                                .build/obj_crkbd_rev1_tensotha_helios/platforms/chibios/suspend.o (symbol from plugin)
                                                  .build/obj_crkbd_rev1_tensotha_helios/protocol/chibios/chibios.o (symbol from plugin)
suspend_power_down_kb                             .build/obj_crkbd_rev1_tensotha_helios/platforms/suspend.o (symbol from plugin)
                                                  .build/obj_crkbd_rev1_tensotha_helios/quantum/quantum.o (symbol from plugin)
suspend_power_down_quantum                        .build/obj_crkbd_rev1_tensotha_helios/quantum/quantum.o (symbol from plugin)
                                                  .build/obj_crkbd_rev1_tensotha_helios/platforms/chibios/suspend.o (symbol from plugin)
suspend_power_down_user                           .build/obj_crkbd_rev1_tensotha_helios/platforms/suspend.o (symbol from plugin)
suspend_wakeup_condition                          .build/obj_crkbd_rev1_tensotha_helios/platforms/suspend.o (symbol from plugin)
                                                  .build/obj_crkbd_rev1_tensotha_helios/protocol/chibios/chibios.o (symbol from plugin)
suspend_wakeup_init                               .build/obj_crkbd_rev1_tensotha_helios/platforms/chibios/suspend.o (symbol from plugin)
                                                  .build/obj_crkbd_rev1_tensotha_helios/protocol/chibios/usb_main.o (symbol from plugin)
suspend_wakeup_init_kb                            .build/obj_crkbd_rev1_tensotha_helios/platforms/suspend.o (symbol from plugin)
                                                  .build/obj_crkbd_rev1_tensotha_helios/quantum/quantum.o (symbol from plugin)
suspend_wakeup_init_quantum                       .build/obj_crkbd_rev1_tensotha_helios/quantum/quantum.o (symbol from plugin)
                                                  .build/obj_crkbd_rev1_tensotha_helios/platforms/chibios/suspend.o (symbol from plugin)
suspend_wakeup_init_user                          .build/obj_crkbd_rev1_tensotha_helios/platforms/suspend.o (symbol from plugin)
switch_events                                     .build/obj_crkbd_rev1_tensotha_helios/quantum/keyboard.o (symbol from plugin)
sym_defer_g.c.c0233488                            /var/folders/01/r6qc96lx1x7c0h1529l70j5m0000gn/T//ccZ3h3t9debugobj
                                                  /var/folders/01/r6qc96lx1x7c0h1529l70j5m0000gn/T//ccqg8YyW.ltrans0.ltrans.o
sync_timer.c.a0ef827a                             /var/folders/01/r6qc96lx1x7c0h1529l70j5m0000gn/T//ccZ3h3t9debugobj
                                                  /var/folders/01/r6qc96lx1x7c0h1529l70j5m0000gn/T//ccqg8YyW.ltrans0.ltrans.o
sync_timer_elapsed                                .build/obj_crkbd_rev1_tensotha_helios/quantum/sync_timer.o (symbol from plugin)
sync_timer_elapsed32                              .build/obj_crkbd_rev1_tensotha_helios/quantum/sync_timer.o (symbol from plugin)
                                                  .build/obj_crkbd_rev1_tensotha_helios/quantum/keyboard.o (symbol from plugin)
sync_timer_init                                   .build/obj_crkbd_rev1_tensotha_helios/quantum/sync_timer.o (symbol from plugin)
                                                  .build/obj_crkbd_rev1_tensotha_helios/quantum/keyboard.o (symbol from plugin)
sync_timer_ms                                     .build/obj_crkbd_rev1_tensotha_helios/quantum/sync_timer.o (symbol from plugin)
sync_timer_read                                   .build/obj_crkbd_rev1_tensotha_helios/quantum/sync_timer.o (symbol from plugin)
                                                  .build/obj_crkbd_rev1_tensotha_helios/quantum/rgblight/rgblight.o (symbol from plugin)
sync_timer_read32                                 .build/obj_crkbd_rev1_tensotha_helios/quantum/sync_timer.o (symbol from plugin)
                                                  .build/obj_crkbd_rev1_tensotha_helios/quantum/split_common/transactions.o (symbol from plugin)
                                                  .build/obj_crkbd_rev1_tensotha_helios/quantum/keyboard.o (symbol from plugin)
sync_timer_update                                 .build/obj_crkbd_rev1_tensotha_helios/quantum/sync_timer.o (symbol from plugin)
                                                  .build/obj_crkbd_rev1_tensotha_helios/quantum/split_common/transactions.o (symbol from plugin)
synchronization_util.c.16d49f5c                   /var/folders/01/r6qc96lx1x7c0h1529l70j5m0000gn/T//ccZ3h3t9debugobj
                                                  /var/folders/01/r6qc96lx1x7c0h1529l70j5m0000gn/T//ccqg8YyW.ltrans0.ltrans.o
synchronization_util.c.6eafab58                   /var/folders/01/r6qc96lx1x7c0h1529l70j5m0000gn/T//ccZ3h3t9debugobj
syscall_fallbacks.c.0e93c8f4                      /var/folders/01/r6qc96lx1x7c0h1529l70j5m0000gn/T//ccZ3h3t9debugobj
                                                  /var/folders/01/r6qc96lx1x7c0h1529l70j5m0000gn/T//ccqg8YyW.ltrans0.ltrans.o
syscalls.c.6b25ad70                               /var/folders/01/r6qc96lx1x7c0h1529l70j5m0000gn/T//ccZ3h3t9debugobj
                                                  /var/folders/01/r6qc96lx1x7c0h1529l70j5m0000gn/T//ccqg8YyW.ltrans0.ltrans.o
tap_code                                          .build/obj_crkbd_rev1_tensotha_helios/quantum/action.o (symbol from plugin)
                                                  .build/obj_crkbd_rev1_tensotha_helios/quantum/process_keycode/process_space_cadet.o (symbol from plugin)
                                                  .build/obj_crkbd_rev1_tensotha_helios/quantum/send_string/send_string.o (symbol from plugin)
tap_code16                                        .build/obj_crkbd_rev1_tensotha_helios/quantum/quantum.o (symbol from plugin)
tap_code16_delay                                  .build/obj_crkbd_rev1_tensotha_helios/quantum/quantum.o (symbol from plugin)
tap_code_delay                                    .build/obj_crkbd_rev1_tensotha_helios/quantum/action.o (symbol from plugin)
                                                  .build/obj_crkbd_rev1_tensotha_helios/quantum/send_string/send_string.o (symbol from plugin)
tap_random_base64                                 .build/obj_crkbd_rev1_tensotha_helios/quantum/send_string/send_string.o (symbol from plugin)
thatHand                                          .build/obj_crkbd_rev1_tensotha_helios/quantum/matrix_common.o (symbol from plugin)
                                                  .build/obj_crkbd_rev1_tensotha_helios/quantum/matrix.o (symbol from plugin)
thisHand                                          .build/obj_crkbd_rev1_tensotha_helios/quantum/matrix_common.o (symbol from plugin)
                                                  .build/obj_crkbd_rev1_tensotha_helios/quantum/matrix.o (symbol from plugin)
time_us_64                                        .build/obj_crkbd_rev1_tensotha_helios/./lib/pico-sdk/src/rp2_common/hardware_timer/timer.o (symbol from plugin)
                                                  .build/obj_crkbd_rev1_tensotha_helios/ws2812_vendor.o (symbol from plugin)
timer.c.8637328c                                  /var/folders/01/r6qc96lx1x7c0h1529l70j5m0000gn/T//ccZ3h3t9debugobj
timer.c.9d068145                                  /var/folders/01/r6qc96lx1x7c0h1529l70j5m0000gn/T//ccZ3h3t9debugobj
                                                  /var/folders/01/r6qc96lx1x7c0h1529l70j5m0000gn/T//ccqg8YyW.ltrans0.ltrans.o
timer.c.fcebc10b                                  /var/folders/01/r6qc96lx1x7c0h1529l70j5m0000gn/T//ccZ3h3t9debugobj
                                                  /var/folders/01/r6qc96lx1x7c0h1529l70j5m0000gn/T//ccqg8YyW.ltrans0.ltrans.o
timer_clear                                       .build/obj_crkbd_rev1_tensotha_helios/platforms/chibios/timer.o (symbol from plugin)
timer_elapsed                                     .build/obj_crkbd_rev1_tensotha_helios/platforms/chibios/timer.o (symbol from plugin)
                                                  .build/obj_crkbd_rev1_tensotha_helios/quantum/process_keycode/process_space_cadet.o (symbol from plugin)
                                                  .build/obj_crkbd_rev1_tensotha_helios/quantum/mousekey.o (symbol from plugin)
                                                  .build/obj_crkbd_rev1_tensotha_helios/oled_driver.o (symbol from plugin)
                                                  .build/obj_crkbd_rev1_tensotha_helios/quantum/split_common/split_util.o (symbol from plugin)
                                                  .build/obj_crkbd_rev1_tensotha_helios/quantum/sync_timer.o (symbol from plugin)
timer_elapsed32                                   .build/obj_crkbd_rev1_tensotha_helios/platforms/chibios/timer.o (symbol from plugin)
                                                  .build/obj_crkbd_rev1_tensotha_helios/platforms/timer.o (symbol from plugin)
                                                  .build/obj_crkbd_rev1_tensotha_helios/quantum/split_common/transactions.o (symbol from plugin)
                                                  .build/obj_crkbd_rev1_tensotha_helios/quantum/debounce/sym_defer_g.o (symbol from plugin)
                                                  .build/obj_crkbd_rev1_tensotha_helios/quantum/sync_timer.o (symbol from plugin)
                                                  .build/obj_crkbd_rev1_tensotha_helios/quantum/led.o (symbol from plugin)
timer_elapsed_fast                                .build/obj_crkbd_rev1_tensotha_helios/platforms/timer.o (symbol from plugin)
timer_init                                        .build/obj_crkbd_rev1_tensotha_helios/platforms/chibios/timer.o (symbol from plugin)
                                                  .build/obj_crkbd_rev1_tensotha_helios/quantum/keyboard.o (symbol from plugin)
timer_read                                        .build/obj_crkbd_rev1_tensotha_helios/platforms/chibios/timer.o (symbol from plugin)
                                                  .build/obj_crkbd_rev1_tensotha_helios/quantum/process_keycode/process_space_cadet.o (symbol from plugin)
                                                  .build/obj_crkbd_rev1_tensotha_helios/quantum/mousekey.o (symbol from plugin)
                                                  .build/obj_crkbd_rev1_tensotha_helios/oled_driver.o (symbol from plugin)
                                                  .build/obj_crkbd_rev1_tensotha_helios/quantum/split_common/split_util.o (symbol from plugin)
                                                  .build/obj_crkbd_rev1_tensotha_helios/quantum/sync_timer.o (symbol from plugin)
                                                  .build/obj_crkbd_rev1_tensotha_helios/quantum/keyboard.o (symbol from plugin)
timer_read32                                      .build/obj_crkbd_rev1_tensotha_helios/platforms/chibios/timer.o (symbol from plugin)
                                                  .build/obj_crkbd_rev1_tensotha_helios/platforms/timer.o (symbol from plugin)
                                                  .build/obj_crkbd_rev1_tensotha_helios/oled_driver.o (symbol from plugin)
                                                  .build/obj_crkbd_rev1_tensotha_helios/quantum/split_common/transactions.o (symbol from plugin)
                                                  .build/obj_crkbd_rev1_tensotha_helios/quantum/debounce/sym_defer_g.o (symbol from plugin)
                                                  .build/obj_crkbd_rev1_tensotha_helios/quantum/sync_timer.o (symbol from plugin)
                                                  .build/obj_crkbd_rev1_tensotha_helios/quantum/led.o (symbol from plugin)
timer_read_fast                                   .build/obj_crkbd_rev1_tensotha_helios/platforms/timer.o (symbol from plugin)
tp_buttons                                        .build/obj_crkbd_rev1_tensotha_helios/quantum/action.o (symbol from plugin)
transactions.c.6f63051c                           /var/folders/01/r6qc96lx1x7c0h1529l70j5m0000gn/T//ccZ3h3t9debugobj
                                                  /var/folders/01/r6qc96lx1x7c0h1529l70j5m0000gn/T//ccqg8YyW.ltrans0.ltrans.o
transactions_master                               .build/obj_crkbd_rev1_tensotha_helios/quantum/split_common/transactions.o (symbol from plugin)
                                                  .build/obj_crkbd_rev1_tensotha_helios/quantum/split_common/transport.o (symbol from plugin)
transactions_slave                                .build/obj_crkbd_rev1_tensotha_helios/quantum/split_common/transactions.o (symbol from plugin)
                                                  .build/obj_crkbd_rev1_tensotha_helios/quantum/split_common/transport.o (symbol from plugin)
transport.c.7abf12f2                              /var/folders/01/r6qc96lx1x7c0h1529l70j5m0000gn/T//ccZ3h3t9debugobj
                                                  /var/folders/01/r6qc96lx1x7c0h1529l70j5m0000gn/T//ccqg8YyW.ltrans0.ltrans.o
transport_execute_transaction                     .build/obj_crkbd_rev1_tensotha_helios/quantum/split_common/transport.o (symbol from plugin)
                                                  .build/obj_crkbd_rev1_tensotha_helios/quantum/split_common/transactions.o (symbol from plugin)
transport_master                                  .build/obj_crkbd_rev1_tensotha_helios/quantum/split_common/transport.o (symbol from plugin)
                                                  .build/obj_crkbd_rev1_tensotha_helios/quantum/split_common/split_util.o (symbol from plugin)
                                                  .build/obj_crkbd_rev1_tensotha_helios/quantum/matrix.o (symbol from plugin)
transport_master_if_connected                     .build/obj_crkbd_rev1_tensotha_helios/quantum/split_common/split_util.o (symbol from plugin)
                                                  .build/obj_crkbd_rev1_tensotha_helios/quantum/matrix.o (symbol from plugin)
                                                  .build/obj_crkbd_rev1_tensotha_helios/quantum/matrix_common.o (symbol from plugin)
transport_master_init                             .build/obj_crkbd_rev1_tensotha_helios/quantum/split_common/transport.o (symbol from plugin)
                                                  .build/obj_crkbd_rev1_tensotha_helios/quantum/split_common/split_util.o (symbol from plugin)
transport_slave                                   .build/obj_crkbd_rev1_tensotha_helios/quantum/split_common/transport.o (symbol from plugin)
                                                  .build/obj_crkbd_rev1_tensotha_helios/quantum/matrix_common.o (symbol from plugin)
transport_slave_init                              .build/obj_crkbd_rev1_tensotha_helios/quantum/split_common/transport.o (symbol from plugin)
                                                  .build/obj_crkbd_rev1_tensotha_helios/quantum/split_common/split_util.o (symbol from plugin)
tx_thread                                         .build/obj_crkbd_rev1_tensotha_helios/serial_vendor.a(serial_vendor.o)
unregister_code                                   .build/obj_crkbd_rev1_tensotha_helios/quantum/action.o (symbol from plugin)
                                                  .build/obj_crkbd_rev1_tensotha_helios/quantum/send_string/send_string.o (symbol from plugin)
                                                  .build/obj_crkbd_rev1_tensotha_helios/quantum/quantum.o (symbol from plugin)
unregister_code16                                 .build/obj_crkbd_rev1_tensotha_helios/quantum/quantum.o (symbol from plugin)
unregister_mods                                   .build/obj_crkbd_rev1_tensotha_helios/quantum/action.o (symbol from plugin)
                                                  .build/obj_crkbd_rev1_tensotha_helios/quantum/process_keycode/process_space_cadet.o (symbol from plugin)
                                                  .build/obj_crkbd_rev1_tensotha_helios/quantum/quantum.o (symbol from plugin)
unregister_weak_mods                              .build/obj_crkbd_rev1_tensotha_helios/quantum/action.o (symbol from plugin)
                                                  .build/obj_crkbd_rev1_tensotha_helios/quantum/quantum.o (symbol from plugin)
update_source_layers_cache                        .build/obj_crkbd_rev1_tensotha_helios/quantum/action_layer.o (symbol from plugin)
                                                  .build/obj_crkbd_rev1_tensotha_helios/quantum/quantum.o (symbol from plugin)
update_source_layers_cache_impl                   .build/obj_crkbd_rev1_tensotha_helios/quantum/action_layer.o (symbol from plugin)
update_tri_layer                                  .build/obj_crkbd_rev1_tensotha_helios/quantum/action_layer.o (symbol from plugin)
update_tri_layer_state                            .build/obj_crkbd_rev1_tensotha_helios/quantum/action_layer.o (symbol from plugin)
usbDisableEndpointsI                              .build/obj_crkbd_rev1_tensotha_helios/lib/chibios/os/hal/src/hal_usb.o (symbol from plugin)
usbInit                                           .build/obj_crkbd_rev1_tensotha_helios/lib/chibios/os/hal/src/hal_usb.o (symbol from plugin)
                                                  .build/obj_crkbd_rev1_tensotha_helios/lib/chibios/os/hal/src/hal.o (symbol from plugin)
usbInitEndpointI                                  .build/obj_crkbd_rev1_tensotha_helios/lib/chibios/os/hal/src/hal_usb.o (symbol from plugin)
                                                  .build/obj_crkbd_rev1_tensotha_helios/protocol/chibios/usb_driver.o (symbol from plugin)
usbObjectInit                                     .build/obj_crkbd_rev1_tensotha_helios/lib/chibios/os/hal/src/hal_usb.o (symbol from plugin)
                                                  .build/obj_crkbd_rev1_tensotha_helios/lib/chibios-contrib/os/hal/ports/RP/LLD/USBDv1/hal_usb_lld.o (symbol from plugin)
usbReceive                                        .build/obj_crkbd_rev1_tensotha_helios/lib/chibios/os/hal/src/hal_usb.o (symbol from plugin)
usbStallReceiveI                                  .build/obj_crkbd_rev1_tensotha_helios/lib/chibios/os/hal/src/hal_usb.o (symbol from plugin)
usbStallTransmitI                                 .build/obj_crkbd_rev1_tensotha_helios/lib/chibios/os/hal/src/hal_usb.o (symbol from plugin)
usbStart                                          .build/obj_crkbd_rev1_tensotha_helios/lib/chibios/os/hal/src/hal_usb.o (symbol from plugin)
                                                  .build/obj_crkbd_rev1_tensotha_helios/protocol/chibios/usb_main.o (symbol from plugin)
usbStartReceiveI                                  .build/obj_crkbd_rev1_tensotha_helios/lib/chibios/os/hal/src/hal_usb.o (symbol from plugin)
                                                  .build/obj_crkbd_rev1_tensotha_helios/protocol/chibios/usb_driver.o (symbol from plugin)
usbStartTransmitI                                 .build/obj_crkbd_rev1_tensotha_helios/lib/chibios/os/hal/src/hal_usb.o (symbol from plugin)
                                                  .build/obj_crkbd_rev1_tensotha_helios/protocol/chibios/usb_driver.o (symbol from plugin)
usbStop                                           .build/obj_crkbd_rev1_tensotha_helios/lib/chibios/os/hal/src/hal_usb.o (symbol from plugin)
                                                  .build/obj_crkbd_rev1_tensotha_helios/protocol/chibios/usb_util.o (symbol from plugin)
                                                  .build/obj_crkbd_rev1_tensotha_helios/protocol/chibios/usb_main.o (symbol from plugin)
usbTransmit                                       .build/obj_crkbd_rev1_tensotha_helios/lib/chibios/os/hal/src/hal_usb.o (symbol from plugin)
usbWakeupHost                                     .build/obj_crkbd_rev1_tensotha_helios/lib/chibios/os/hal/src/hal_usb.o (symbol from plugin)
                                                  .build/obj_crkbd_rev1_tensotha_helios/protocol/chibios/chibios.o (symbol from plugin)
usb_connected_state                               .build/obj_crkbd_rev1_tensotha_helios/protocol/chibios/usb_util.o (symbol from plugin)
                                                  .build/obj_crkbd_rev1_tensotha_helios/protocol/usb_util.o (symbol from plugin)
usb_descriptor.c.bbfbc80f                         /var/folders/01/r6qc96lx1x7c0h1529l70j5m0000gn/T//ccZ3h3t9debugobj
                                                  /var/folders/01/r6qc96lx1x7c0h1529l70j5m0000gn/T//ccqg8YyW.ltrans0.ltrans.o
usb_device_state                                  .build/obj_crkbd_rev1_tensotha_helios/protocol/usb_device_state.o (symbol from plugin)
usb_device_state.c.e181099d                       /var/folders/01/r6qc96lx1x7c0h1529l70j5m0000gn/T//ccZ3h3t9debugobj
                                                  /var/folders/01/r6qc96lx1x7c0h1529l70j5m0000gn/T//ccqg8YyW.ltrans0.ltrans.o
usb_device_state_init                             .build/obj_crkbd_rev1_tensotha_helios/protocol/usb_device_state.o (symbol from plugin)
                                                  .build/obj_crkbd_rev1_tensotha_helios/protocol/chibios/chibios.o (symbol from plugin)
usb_device_state_set_configuration                .build/obj_crkbd_rev1_tensotha_helios/protocol/usb_device_state.o (symbol from plugin)
                                                  .build/obj_crkbd_rev1_tensotha_helios/protocol/chibios/usb_main.o (symbol from plugin)
usb_device_state_set_reset                        .build/obj_crkbd_rev1_tensotha_helios/protocol/usb_device_state.o (symbol from plugin)
                                                  .build/obj_crkbd_rev1_tensotha_helios/protocol/chibios/usb_main.o (symbol from plugin)
usb_device_state_set_resume                       .build/obj_crkbd_rev1_tensotha_helios/protocol/usb_device_state.o (symbol from plugin)
                                                  .build/obj_crkbd_rev1_tensotha_helios/protocol/chibios/usb_main.o (symbol from plugin)
usb_device_state_set_suspend                      .build/obj_crkbd_rev1_tensotha_helios/protocol/usb_device_state.o (symbol from plugin)
                                                  .build/obj_crkbd_rev1_tensotha_helios/protocol/chibios/usb_main.o (symbol from plugin)
usb_disconnect                                    .build/obj_crkbd_rev1_tensotha_helios/protocol/chibios/usb_util.o (symbol from plugin)
                                                  .build/obj_crkbd_rev1_tensotha_helios/protocol/usb_util.o (symbol from plugin)
                                                  .build/obj_crkbd_rev1_tensotha_helios/quantum/split_common/split_util.o (symbol from plugin)
usb_driver.c.4f534d50                             /var/folders/01/r6qc96lx1x7c0h1529l70j5m0000gn/T//ccZ3h3t9debugobj
                                                  /var/folders/01/r6qc96lx1x7c0h1529l70j5m0000gn/T//ccqg8YyW.ltrans0.ltrans.o
usb_endpoint_in_configure_cb                      .build/obj_crkbd_rev1_tensotha_helios/protocol/chibios/usb_driver.o (symbol from plugin)
                                                  .build/obj_crkbd_rev1_tensotha_helios/protocol/chibios/usb_main.o (symbol from plugin)
usb_endpoint_in_flush                             .build/obj_crkbd_rev1_tensotha_helios/protocol/chibios/usb_driver.o (symbol from plugin)
usb_endpoint_in_init                              .build/obj_crkbd_rev1_tensotha_helios/protocol/chibios/usb_driver.o (symbol from plugin)
                                                  .build/obj_crkbd_rev1_tensotha_helios/protocol/chibios/usb_main.o (symbol from plugin)
usb_endpoint_in_is_inactive                       .build/obj_crkbd_rev1_tensotha_helios/protocol/chibios/usb_driver.o (symbol from plugin)
                                                  .build/obj_crkbd_rev1_tensotha_helios/protocol/chibios/usb_report_handling.o (symbol from plugin)
usb_endpoint_in_send                              .build/obj_crkbd_rev1_tensotha_helios/protocol/chibios/usb_driver.o (symbol from plugin)
                                                  .build/obj_crkbd_rev1_tensotha_helios/protocol/chibios/usb_main.o (symbol from plugin)
usb_endpoint_in_start                             .build/obj_crkbd_rev1_tensotha_helios/protocol/chibios/usb_driver.o (symbol from plugin)
                                                  .build/obj_crkbd_rev1_tensotha_helios/protocol/chibios/usb_main.o (symbol from plugin)
usb_endpoint_in_stop                              .build/obj_crkbd_rev1_tensotha_helios/protocol/chibios/usb_driver.o (symbol from plugin)
                                                  .build/obj_crkbd_rev1_tensotha_helios/protocol/chibios/usb_main.o (symbol from plugin)
usb_endpoint_in_suspend_cb                        .build/obj_crkbd_rev1_tensotha_helios/protocol/chibios/usb_driver.o (symbol from plugin)
                                                  .build/obj_crkbd_rev1_tensotha_helios/protocol/chibios/usb_main.o (symbol from plugin)
usb_endpoint_in_tx_complete_cb                    .build/obj_crkbd_rev1_tensotha_helios/protocol/chibios/usb_driver.o (symbol from plugin)
                                                  .build/obj_crkbd_rev1_tensotha_helios/protocol/chibios/usb_endpoints.o (symbol from plugin)
usb_endpoint_in_wakeup_cb                         .build/obj_crkbd_rev1_tensotha_helios/protocol/chibios/usb_driver.o (symbol from plugin)
                                                  .build/obj_crkbd_rev1_tensotha_helios/protocol/chibios/usb_main.o (symbol from plugin)
usb_endpoint_interface_lut                        .build/obj_crkbd_rev1_tensotha_helios/protocol/chibios/usb_endpoints.o (symbol from plugin)
                                                  .build/obj_crkbd_rev1_tensotha_helios/protocol/chibios/usb_util.o (symbol from plugin)
                                                  .build/obj_crkbd_rev1_tensotha_helios/protocol/chibios/usb_report_handling.o (symbol from plugin)
                                                  .build/obj_crkbd_rev1_tensotha_helios/protocol/chibios/chibios.o (symbol from plugin)
                                                  .build/obj_crkbd_rev1_tensotha_helios/protocol/chibios/usb_main.o (symbol from plugin)
usb_endpoint_out_configure_cb                     .build/obj_crkbd_rev1_tensotha_helios/protocol/chibios/usb_driver.o (symbol from plugin)
usb_endpoint_out_init                             .build/obj_crkbd_rev1_tensotha_helios/protocol/chibios/usb_driver.o (symbol from plugin)
usb_endpoint_out_receive                          .build/obj_crkbd_rev1_tensotha_helios/protocol/chibios/usb_driver.o (symbol from plugin)
usb_endpoint_out_rx_complete_cb                   .build/obj_crkbd_rev1_tensotha_helios/protocol/chibios/usb_driver.o (symbol from plugin)
usb_endpoint_out_start                            .build/obj_crkbd_rev1_tensotha_helios/protocol/chibios/usb_driver.o (symbol from plugin)
usb_endpoint_out_stop                             .build/obj_crkbd_rev1_tensotha_helios/protocol/chibios/usb_driver.o (symbol from plugin)
usb_endpoint_out_suspend_cb                       .build/obj_crkbd_rev1_tensotha_helios/protocol/chibios/usb_driver.o (symbol from plugin)
usb_endpoint_out_wakeup_cb                        .build/obj_crkbd_rev1_tensotha_helios/protocol/chibios/usb_driver.o (symbol from plugin)
usb_endpoints.c.1b728697                          /var/folders/01/r6qc96lx1x7c0h1529l70j5m0000gn/T//ccZ3h3t9debugobj
                                                  /var/folders/01/r6qc96lx1x7c0h1529l70j5m0000gn/T//ccqg8YyW.ltrans0.ltrans.o
usb_endpoints_in                                  .build/obj_crkbd_rev1_tensotha_helios/protocol/chibios/usb_endpoints.o (symbol from plugin)
                                                  .build/obj_crkbd_rev1_tensotha_helios/protocol/chibios/usb_report_handling.o (symbol from plugin)
                                                  .build/obj_crkbd_rev1_tensotha_helios/protocol/chibios/usb_main.o (symbol from plugin)
usb_endpoints_out                                 .build/obj_crkbd_rev1_tensotha_helios/protocol/chibios/usb_endpoints.o (symbol from plugin)
usb_event_queue_init                              .build/obj_crkbd_rev1_tensotha_helios/protocol/chibios/usb_main.o (symbol from plugin)
                                                  .build/obj_crkbd_rev1_tensotha_helios/protocol/chibios/chibios.o (symbol from plugin)
usb_event_queue_task                              .build/obj_crkbd_rev1_tensotha_helios/protocol/chibios/usb_main.o (symbol from plugin)
                                                  .build/obj_crkbd_rev1_tensotha_helios/protocol/chibios/chibios.o (symbol from plugin)
usb_get_idle_cb                                   .build/obj_crkbd_rev1_tensotha_helios/protocol/chibios/usb_report_handling.o (symbol from plugin)
                                                  .build/obj_crkbd_rev1_tensotha_helios/protocol/chibios/usb_main.o (symbol from plugin)
usb_get_idle_rate                                 .build/obj_crkbd_rev1_tensotha_helios/protocol/chibios/usb_report_handling.o (symbol from plugin)
                                                  .build/obj_crkbd_rev1_tensotha_helios/protocol/chibios/usb_endpoints.o (symbol from plugin)
usb_get_report                                    .build/obj_crkbd_rev1_tensotha_helios/protocol/chibios/usb_report_handling.o (symbol from plugin)
                                                  .build/obj_crkbd_rev1_tensotha_helios/protocol/chibios/usb_endpoints.o (symbol from plugin)
usb_get_report_cb                                 .build/obj_crkbd_rev1_tensotha_helios/protocol/chibios/usb_report_handling.o (symbol from plugin)
                                                  .build/obj_crkbd_rev1_tensotha_helios/protocol/chibios/usb_main.o (symbol from plugin)
usb_idle_task                                     .build/obj_crkbd_rev1_tensotha_helios/protocol/chibios/usb_report_handling.o (symbol from plugin)
                                                  .build/obj_crkbd_rev1_tensotha_helios/protocol/chibios/chibios.o (symbol from plugin)
usb_idle_timer_elapsed                            .build/obj_crkbd_rev1_tensotha_helios/protocol/chibios/usb_report_handling.o (symbol from plugin)
                                                  .build/obj_crkbd_rev1_tensotha_helios/protocol/chibios/usb_endpoints.o (symbol from plugin)
usb_lld_clear_in                                  .build/obj_crkbd_rev1_tensotha_helios/lib/chibios-contrib/os/hal/ports/RP/LLD/USBDv1/hal_usb_lld.o (symbol from plugin)
                                                  .build/obj_crkbd_rev1_tensotha_helios/lib/chibios/os/hal/src/hal_usb.o (symbol from plugin)
usb_lld_clear_out                                 .build/obj_crkbd_rev1_tensotha_helios/lib/chibios-contrib/os/hal/ports/RP/LLD/USBDv1/hal_usb_lld.o (symbol from plugin)
                                                  .build/obj_crkbd_rev1_tensotha_helios/lib/chibios/os/hal/src/hal_usb.o (symbol from plugin)
usb_lld_disable_endpoints                         .build/obj_crkbd_rev1_tensotha_helios/lib/chibios-contrib/os/hal/ports/RP/LLD/USBDv1/hal_usb_lld.o (symbol from plugin)
                                                  .build/obj_crkbd_rev1_tensotha_helios/lib/chibios/os/hal/src/hal_usb.o (symbol from plugin)
usb_lld_get_status_in                             .build/obj_crkbd_rev1_tensotha_helios/lib/chibios-contrib/os/hal/ports/RP/LLD/USBDv1/hal_usb_lld.o (symbol from plugin)
                                                  .build/obj_crkbd_rev1_tensotha_helios/lib/chibios/os/hal/src/hal_usb.o (symbol from plugin)
usb_lld_get_status_out                            .build/obj_crkbd_rev1_tensotha_helios/lib/chibios-contrib/os/hal/ports/RP/LLD/USBDv1/hal_usb_lld.o (symbol from plugin)
                                                  .build/obj_crkbd_rev1_tensotha_helios/lib/chibios/os/hal/src/hal_usb.o (symbol from plugin)
usb_lld_init                                      .build/obj_crkbd_rev1_tensotha_helios/lib/chibios-contrib/os/hal/ports/RP/LLD/USBDv1/hal_usb_lld.o (symbol from plugin)
                                                  .build/obj_crkbd_rev1_tensotha_helios/lib/chibios/os/hal/src/hal_usb.o (symbol from plugin)
usb_lld_init_endpoint                             .build/obj_crkbd_rev1_tensotha_helios/lib/chibios-contrib/os/hal/ports/RP/LLD/USBDv1/hal_usb_lld.o (symbol from plugin)
                                                  .build/obj_crkbd_rev1_tensotha_helios/lib/chibios/os/hal/src/hal_usb.o (symbol from plugin)
usb_lld_read_setup                                .build/obj_crkbd_rev1_tensotha_helios/lib/chibios-contrib/os/hal/ports/RP/LLD/USBDv1/hal_usb_lld.o (symbol from plugin)
                                                  .build/obj_crkbd_rev1_tensotha_helios/lib/chibios/os/hal/src/hal_usb.o (symbol from plugin)
usb_lld_reset                                     .build/obj_crkbd_rev1_tensotha_helios/lib/chibios-contrib/os/hal/ports/RP/LLD/USBDv1/hal_usb_lld.o (symbol from plugin)
                                                  .build/obj_crkbd_rev1_tensotha_helios/lib/chibios/os/hal/src/hal_usb.o (symbol from plugin)
usb_lld_set_address                               .build/obj_crkbd_rev1_tensotha_helios/lib/chibios-contrib/os/hal/ports/RP/LLD/USBDv1/hal_usb_lld.o (symbol from plugin)
                                                  .build/obj_crkbd_rev1_tensotha_helios/lib/chibios/os/hal/src/hal_usb.o (symbol from plugin)
usb_lld_stall_in                                  .build/obj_crkbd_rev1_tensotha_helios/lib/chibios-contrib/os/hal/ports/RP/LLD/USBDv1/hal_usb_lld.o (symbol from plugin)
                                                  .build/obj_crkbd_rev1_tensotha_helios/lib/chibios/os/hal/src/hal_usb.o (symbol from plugin)
usb_lld_stall_out                                 .build/obj_crkbd_rev1_tensotha_helios/lib/chibios-contrib/os/hal/ports/RP/LLD/USBDv1/hal_usb_lld.o (symbol from plugin)
                                                  .build/obj_crkbd_rev1_tensotha_helios/lib/chibios/os/hal/src/hal_usb.o (symbol from plugin)
usb_lld_start                                     .build/obj_crkbd_rev1_tensotha_helios/lib/chibios-contrib/os/hal/ports/RP/LLD/USBDv1/hal_usb_lld.o (symbol from plugin)
                                                  .build/obj_crkbd_rev1_tensotha_helios/lib/chibios/os/hal/src/hal_usb.o (symbol from plugin)
usb_lld_start_in                                  .build/obj_crkbd_rev1_tensotha_helios/lib/chibios-contrib/os/hal/ports/RP/LLD/USBDv1/hal_usb_lld.o (symbol from plugin)
                                                  .build/obj_crkbd_rev1_tensotha_helios/lib/chibios/os/hal/src/hal_usb.o (symbol from plugin)
usb_lld_start_out                                 .build/obj_crkbd_rev1_tensotha_helios/lib/chibios-contrib/os/hal/ports/RP/LLD/USBDv1/hal_usb_lld.o (symbol from plugin)
                                                  .build/obj_crkbd_rev1_tensotha_helios/lib/chibios/os/hal/src/hal_usb.o (symbol from plugin)
usb_lld_stop                                      .build/obj_crkbd_rev1_tensotha_helios/lib/chibios-contrib/os/hal/ports/RP/LLD/USBDv1/hal_usb_lld.o (symbol from plugin)
                                                  .build/obj_crkbd_rev1_tensotha_helios/lib/chibios/os/hal/src/hal_usb.o (symbol from plugin)
usb_main.c.e000b393                               /var/folders/01/r6qc96lx1x7c0h1529l70j5m0000gn/T//ccZ3h3t9debugobj
                                                  /var/folders/01/r6qc96lx1x7c0h1529l70j5m0000gn/T//ccqg8YyW.ltrans0.ltrans.o
usb_prepare_out_ep_buffer                         .build/obj_crkbd_rev1_tensotha_helios/lib/chibios-contrib/os/hal/ports/RP/LLD/USBDv1/hal_usb_lld.o (symbol from plugin)
usb_report_handling.c.8822774e                    /var/folders/01/r6qc96lx1x7c0h1529l70j5m0000gn/T//ccZ3h3t9debugobj
                                                  /var/folders/01/r6qc96lx1x7c0h1529l70j5m0000gn/T//ccqg8YyW.ltrans0.ltrans.o
usb_reset_report                                  .build/obj_crkbd_rev1_tensotha_helios/protocol/chibios/usb_report_handling.o (symbol from plugin)
                                                  .build/obj_crkbd_rev1_tensotha_helios/protocol/chibios/usb_endpoints.o (symbol from plugin)
usb_set_idle_cb                                   .build/obj_crkbd_rev1_tensotha_helios/protocol/chibios/usb_report_handling.o (symbol from plugin)
                                                  .build/obj_crkbd_rev1_tensotha_helios/protocol/chibios/usb_main.o (symbol from plugin)
usb_set_idle_rate                                 .build/obj_crkbd_rev1_tensotha_helios/protocol/chibios/usb_report_handling.o (symbol from plugin)
                                                  .build/obj_crkbd_rev1_tensotha_helios/protocol/chibios/usb_endpoints.o (symbol from plugin)
usb_set_report                                    .build/obj_crkbd_rev1_tensotha_helios/protocol/chibios/usb_report_handling.o (symbol from plugin)
                                                  .build/obj_crkbd_rev1_tensotha_helios/protocol/chibios/usb_endpoints.o (symbol from plugin)
usb_shared_get_idle_rate                          .build/obj_crkbd_rev1_tensotha_helios/protocol/chibios/usb_report_handling.o (symbol from plugin)
                                                  .build/obj_crkbd_rev1_tensotha_helios/protocol/chibios/usb_endpoints.o (symbol from plugin)
usb_shared_get_report                             .build/obj_crkbd_rev1_tensotha_helios/protocol/chibios/usb_report_handling.o (symbol from plugin)
                                                  .build/obj_crkbd_rev1_tensotha_helios/protocol/chibios/usb_endpoints.o (symbol from plugin)
usb_shared_idle_timer_elapsed                     .build/obj_crkbd_rev1_tensotha_helios/protocol/chibios/usb_report_handling.o (symbol from plugin)
                                                  .build/obj_crkbd_rev1_tensotha_helios/protocol/chibios/usb_endpoints.o (symbol from plugin)
usb_shared_reset_report                           .build/obj_crkbd_rev1_tensotha_helios/protocol/chibios/usb_report_handling.o (symbol from plugin)
                                                  .build/obj_crkbd_rev1_tensotha_helios/protocol/chibios/usb_endpoints.o (symbol from plugin)
usb_shared_set_idle_rate                          .build/obj_crkbd_rev1_tensotha_helios/protocol/chibios/usb_report_handling.o (symbol from plugin)
                                                  .build/obj_crkbd_rev1_tensotha_helios/protocol/chibios/usb_endpoints.o (symbol from plugin)
usb_shared_set_report                             .build/obj_crkbd_rev1_tensotha_helios/protocol/chibios/usb_report_handling.o (symbol from plugin)
                                                  .build/obj_crkbd_rev1_tensotha_helios/protocol/chibios/usb_endpoints.o (symbol from plugin)
usb_util.c.1acf2b4f                               /var/folders/01/r6qc96lx1x7c0h1529l70j5m0000gn/T//ccZ3h3t9debugobj
                                                  /var/folders/01/r6qc96lx1x7c0h1529l70j5m0000gn/T//ccqg8YyW.ltrans0.ltrans.o
usb_util.c.b27314f5                               /var/folders/01/r6qc96lx1x7c0h1529l70j5m0000gn/T//ccZ3h3t9debugobj
                                                  /var/folders/01/r6qc96lx1x7c0h1529l70j5m0000gn/T//ccqg8YyW.ltrans0.ltrans.o
usb_vbus_state                                    .build/obj_crkbd_rev1_tensotha_helios/protocol/usb_util.o (symbol from plugin)
                                                  .build/obj_crkbd_rev1_tensotha_helios/quantum/split_common/split_util.o (symbol from plugin)
vfctprintf                                        .build/obj_crkbd_rev1_tensotha_helios/printf.o (symbol from plugin)
vfiprintf                                         /opt/homebrew/Cellar/arm-none-eabi-gcc@8/8.5.0_2/lib/arm-none-eabi-gcc/8/gcc/arm-none-eabi/8.5.0/../../../../../../arm-none-eabi/lib/thumb/v6-m/nofp/libg_nano.a(lib_a-nano-vfprintf.o)
vfprintf                                          /opt/homebrew/Cellar/arm-none-eabi-gcc@8/8.5.0_2/lib/arm-none-eabi-gcc/8/gcc/arm-none-eabi/8.5.0/../../../../../../arm-none-eabi/lib/thumb/v6-m/nofp/libg_nano.a(lib_a-nano-vfprintf.o)
vprintf                                           /var/folders/01/r6qc96lx1x7c0h1529l70j5m0000gn/T//ccqg8YyW.ltrans0.ltrans.o
vsnprintf                                         /var/folders/01/r6qc96lx1x7c0h1529l70j5m0000gn/T//ccqg8YyW.ltrans0.ltrans.o
vsprintf                                          /var/folders/01/r6qc96lx1x7c0h1529l70j5m0000gn/T//ccqg8YyW.ltrans0.ltrans.o
wait.c.3a82f2f2                                   /var/folders/01/r6qc96lx1x7c0h1529l70j5m0000gn/T//ccZ3h3t9debugobj
watchdog.c.b966c965                               /var/folders/01/r6qc96lx1x7c0h1529l70j5m0000gn/T//ccZ3h3t9debugobj
                                                  /var/folders/01/r6qc96lx1x7c0h1529l70j5m0000gn/T//ccqg8YyW.ltrans0.ltrans.o
watchdog_caused_reboot                            .build/obj_crkbd_rev1_tensotha_helios/./lib/pico-sdk/src/rp2_common/hardware_watchdog/watchdog.o (symbol from plugin)
watchdog_enable                                   .build/obj_crkbd_rev1_tensotha_helios/./lib/pico-sdk/src/rp2_common/hardware_watchdog/watchdog.o (symbol from plugin)
watchdog_enable_caused_reboot                     .build/obj_crkbd_rev1_tensotha_helios/./lib/pico-sdk/src/rp2_common/hardware_watchdog/watchdog.o (symbol from plugin)
watchdog_get_count                                .build/obj_crkbd_rev1_tensotha_helios/./lib/pico-sdk/src/rp2_common/hardware_watchdog/watchdog.o (symbol from plugin)
watchdog_reboot                                   .build/obj_crkbd_rev1_tensotha_helios/./lib/pico-sdk/src/rp2_common/hardware_watchdog/watchdog.o (symbol from plugin)
watchdog_start_tick                               .build/obj_crkbd_rev1_tensotha_helios/./lib/pico-sdk/src/rp2_common/hardware_watchdog/watchdog.o (symbol from plugin)
                                                  .build/obj_crkbd_rev1_tensotha_helios/./lib/pico-sdk/src/rp2_common/hardware_clocks/clocks.o (symbol from plugin)
watchdog_update                                   .build/obj_crkbd_rev1_tensotha_helios/./lib/pico-sdk/src/rp2_common/hardware_watchdog/watchdog.o (symbol from plugin)
wear_leveling.c.562d4d23                          /var/folders/01/r6qc96lx1x7c0h1529l70j5m0000gn/T//ccZ3h3t9debugobj
                                                  /var/folders/01/r6qc96lx1x7c0h1529l70j5m0000gn/T//ccqg8YyW.ltrans0.ltrans.o
wear_leveling_erase                               .build/obj_crkbd_rev1_tensotha_helios/wear_leveling.o (symbol from plugin)
                                                  .build/obj_crkbd_rev1_tensotha_helios/eeprom_wear_leveling.o (symbol from plugin)
wear_leveling_init                                .build/obj_crkbd_rev1_tensotha_helios/wear_leveling.o (symbol from plugin)
                                                  .build/obj_crkbd_rev1_tensotha_helios/eeprom_wear_leveling.o (symbol from plugin)
wear_leveling_read                                .build/obj_crkbd_rev1_tensotha_helios/wear_leveling.o (symbol from plugin)
                                                  .build/obj_crkbd_rev1_tensotha_helios/eeprom_wear_leveling.o (symbol from plugin)
wear_leveling_rp2040_flash.c.ff9a0ec1             /var/folders/01/r6qc96lx1x7c0h1529l70j5m0000gn/T//ccZ3h3t9debugobj
                                                  /var/folders/01/r6qc96lx1x7c0h1529l70j5m0000gn/T//ccqg8YyW.ltrans0.ltrans.o
wear_leveling_write                               .build/obj_crkbd_rev1_tensotha_helios/wear_leveling.o (symbol from plugin)
                                                  .build/obj_crkbd_rev1_tensotha_helios/eeprom_wear_leveling.o (symbol from plugin)
ws2812_init                                       .build/obj_crkbd_rev1_tensotha_helios/ws2812_vendor.o (symbol from plugin)
                                                  .build/obj_crkbd_rev1_tensotha_helios/quantum/rgblight/rgblight_drivers.o (symbol from plugin)
ws2812_setleds                                    .build/obj_crkbd_rev1_tensotha_helios/ws2812_vendor.o (symbol from plugin)
                                                  .build/obj_crkbd_rev1_tensotha_helios/quantum/rgblight/rgblight_drivers.o (symbol from plugin)
ws2812_vendor.c.3fcdcb16                          /var/folders/01/r6qc96lx1x7c0h1529l70j5m0000gn/T//ccZ3h3t9debugobj
                                                  /var/folders/01/r6qc96lx1x7c0h1529l70j5m0000gn/T//ccqg8YyW.ltrans0.ltrans.o
xosc.c.a06aedd0                                   /var/folders/01/r6qc96lx1x7c0h1529l70j5m0000gn/T//ccZ3h3t9debugobj
                                                  /var/folders/01/r6qc96lx1x7c0h1529l70j5m0000gn/T//ccqg8YyW.ltrans0.ltrans.o
xosc_disable                                      .build/obj_crkbd_rev1_tensotha_helios/./lib/pico-sdk/src/rp2_common/hardware_xosc/xosc.o (symbol from plugin)
xosc_dormant                                      .build/obj_crkbd_rev1_tensotha_helios/./lib/pico-sdk/src/rp2_common/hardware_xosc/xosc.o (symbol from plugin)
xosc_init                                         .build/obj_crkbd_rev1_tensotha_helios/./lib/pico-sdk/src/rp2_common/hardware_xosc/xosc.o (symbol from plugin)
                                                  .build/obj_crkbd_rev1_tensotha_helios/./lib/pico-sdk/src/rp2_common/hardware_clocks/clocks.o (symbol from plugin)
